
RMP.elf:     file format elf32-littleriscv
RMP.elf
architecture: riscv:rv32, flags 0x00000112:
EXEC_P, HAS_SYMS, D_PAGED
start address 0x00000000

Program Header:
    LOAD off    0x00001000 vaddr 0x00000000 paddr 0x00000000 align 2**12
         filesz 0x00003fe6 memsz 0x00003fe8 flags rwx
    LOAD off    0x00005000 vaddr 0x20000000 paddr 0x00003fe8 align 2**12
         filesz 0x00000088 memsz 0x000043d0 flags rw-
    LOAD off    0x00005800 vaddr 0x20007800 paddr 0x20007800 align 2**12
         filesz 0x00000000 memsz 0x00000800 flags rw-

Sections:
Idx Name          Size      VMA       LMA       File off  Algn
  0 .init         00000038  00000000  00000000  00001000  2**1
                  CONTENTS, ALLOC, LOAD, READONLY, CODE
  1 .vector       000001c8  00000038  00000038  00001038  2**1
                  CONTENTS, ALLOC, LOAD, READONLY, CODE
  2 .text         00003c98  00000200  00000200  00001200  2**2
                  CONTENTS, ALLOC, LOAD, READONLY, CODE
  3 .reset_entry  0000014e  00003e98  00003e98  00004e98  2**2
                  CONTENTS, ALLOC, LOAD, READONLY, CODE
  4 .fini         00000002  00003fe6  00003fe6  00004fe6  2**0
                  ALLOC, CODE
  5 .dalign       00000000  20000000  20000000  00005088  2**0
                  CONTENTS
  6 .dlalign      00000000  00003fe8  00003fe8  00005088  2**0
                  CONTENTS
  7 .data         00000088  20000000  00003fe8  00005000  2**2
                  CONTENTS, ALLOC, LOAD, DATA
  8 .bss          00004348  20000088  00004070  00005088  2**2
                  ALLOC
  9 .stack        00000800  20007800  20007800  00005800  2**0
                  ALLOC
 10 .debug_info   00011c1f  00000000  00000000  00005088  2**0
                  CONTENTS, READONLY, DEBUGGING
 11 .debug_abbrev 000024de  00000000  00000000  00016ca7  2**0
                  CONTENTS, READONLY, DEBUGGING
 12 .debug_aranges 00000988  00000000  00000000  00019188  2**3
                  CONTENTS, READONLY, DEBUGGING
 13 .debug_ranges 00001930  00000000  00000000  00019b10  2**3
                  CONTENTS, READONLY, DEBUGGING
 14 .debug_macro  0000cacc  00000000  00000000  0001b440  2**0
                  CONTENTS, READONLY, DEBUGGING
 15 .debug_line   0001a467  00000000  00000000  00027f0c  2**0
                  CONTENTS, READONLY, DEBUGGING
 16 .debug_str    000359d8  00000000  00000000  00042373  2**0
                  CONTENTS, READONLY, DEBUGGING
 17 .comment      00000033  00000000  00000000  00077d4b  2**0
                  CONTENTS, READONLY
 18 .debug_frame  00002284  00000000  00000000  00077d80  2**2
                  CONTENTS, READONLY, DEBUGGING
 19 .debug_loc    00009a01  00000000  00000000  0007a004  2**0
                  CONTENTS, READONLY, DEBUGGING
 20 .stab         00000084  00000000  00000000  00083a08  2**2
                  CONTENTS, READONLY, DEBUGGING
 21 .stabstr      00000117  00000000  00000000  00083a8c  2**0
                  CONTENTS, READONLY, DEBUGGING
SYMBOL TABLE:
00000000 l    d  .init	00000000 .init
00000038 l    d  .vector	00000000 .vector
00000200 l    d  .text	00000000 .text
00003e98 l    d  .reset_entry	00000000 .reset_entry
00003fe6 l    d  .fini	00000000 .fini
20000000 l    d  .dalign	00000000 .dalign
00003fe8 l    d  .dlalign	00000000 .dlalign
20000000 l    d  .data	00000000 .data
20000088 l    d  .bss	00000000 .bss
20007800 l    d  .stack	00000000 .stack
00000000 l    d  .debug_info	00000000 .debug_info
00000000 l    d  .debug_abbrev	00000000 .debug_abbrev
00000000 l    d  .debug_aranges	00000000 .debug_aranges
00000000 l    d  .debug_ranges	00000000 .debug_ranges
00000000 l    d  .debug_macro	00000000 .debug_macro
00000000 l    d  .debug_line	00000000 .debug_line
00000000 l    d  .debug_str	00000000 .debug_str
00000000 l    d  .comment	00000000 .comment
00000000 l    d  .debug_frame	00000000 .debug_frame
00000000 l    d  .debug_loc	00000000 .debug_loc
00000000 l    d  .stab	00000000 .stab
00000000 l    d  .stabstr	00000000 .stabstr
00000000 l    df *ABS*	00000000 ./Startup/startup_ch32v30x_D8C.o
00000038 l       .vector	00000000 _vector_base
00000000 l    df *ABS*	00000000 ch32v30x_it.c
00000000 l    df *ABS*	00000000 system_ch32v30x.c
00000000 l    df *ABS*	00000000 ch32v30x_gpio.c
00000000 l    df *ABS*	00000000 ch32v30x_misc.c
00000000 l    df *ABS*	00000000 ch32v30x_rcc.c
20000000 l     O .data	00000010 APBAHBPrescTable
20000074 l     O .data	00000004 ADCPrescTable
00000000 l    df *ABS*	00000000 ch32v30x_tim.c
00000000 l    df *ABS*	00000000 ch32v30x_usart.c
00000000 l    df *ABS*	00000000 rmp_kernel.c
200000fc l     O .bss	00000100 RMP_Init_Stack
200001fc l     O .bss	0000003c RMP_Init_Thd
20000238 l     O .bss	00000100 RMP_Run
2000008c l     O .bss	00000004 RMP_Bitmap
20000090 l     O .bss	00000008 RMP_Delay
2000009c l     O .bss	00000004 RMP_Sched_Lock_Cnt
200000a0 l     O .bss	00000004 RMP_Sched_Locked
200000a4 l     O .bss	00000004 RMP_Sched_Pend
200000b0 l     O .bss	00000004 RMP_Timer_Pend
00000000 l    df *ABS*	00000000 rmp_platform_rv32imac.c
00000000 l    df *ABS*	00000000 rmp_test.c
200000b4 l     O .bss	00000004 Count.5440
200000b8 l     O .bss	00000004 Count.5481
200000bc l     O .bss	00000004 Count.5488
200000c0 l     O .bss	00000004 Count.5499
00000000 l    df *ABS*	00000000 debug.c
200000f0 l     O .bss	00000002 p_ms
200000f2 l     O .bss	00000001 p_us
20000078 l     O .data	00000004 curbrk.5216
00000000 l    df *ABS*	00000000 printf.c
00000000 l    df *ABS*	00000000 putchar.c
00000000 l    df *ABS*	00000000 findfp.c
00002b46 l     F .text	00000066 std
00000000 l    df *ABS*	00000000 fwalk.c
00000000 l    df *ABS*	00000000 nano-mallocr.c
00000000 l    df *ABS*	00000000 nano-vfprintf.c
00002e42 l     F .text	00000028 __sfputc_r
00000000 l    df *ABS*	00000000 nano-vfprintf_i.c
00000000 l    df *ABS*	00000000 putc.c
00000000 l    df *ABS*	00000000 sbrkr.c
00000000 l    df *ABS*	00000000 stdio.c
00000000 l    df *ABS*	00000000 wbuf.c
00000000 l    df *ABS*	00000000 writer.c
00000000 l    df *ABS*	00000000 wsetup.c
00000000 l    df *ABS*	00000000 closer.c
00000000 l    df *ABS*	00000000 fflush.c
00000000 l    df *ABS*	00000000 lseekr.c
00000000 l    df *ABS*	00000000 makebuf.c
00000000 l    df *ABS*	00000000 memchr.c
00000000 l    df *ABS*	00000000 mlock.c
00000000 l    df *ABS*	00000000 nano-mallocr.c
00000000 l    df *ABS*	00000000 readr.c
00000000 l    df *ABS*	00000000 fstatr.c
00000000 l    df *ABS*	00000000 isattyr.c
00000000 l    df *ABS*	00000000 close.c
00000000 l    df *ABS*	00000000 fstat.c
00000000 l    df *ABS*	00000000 isatty.c
00000000 l    df *ABS*	00000000 lseek.c
00000000 l    df *ABS*	00000000 read.c
00000000 l    df *ABS*	00000000 ./Kernel/rmp_platform_rv32imac_gcc.o
00003efe l       .reset_entry	00000000 ZERO
00003ecc l       .reset_entry	00000000 HEX
00003ed8 l       .reset_entry	00000000 OCT
00003ee4 l       .reset_entry	00000000 QUAD
00003ef0 l       .reset_entry	00000000 BIN
00003efc l       .reset_entry	00000000 ONE
00000000 l    df *ABS*	00000000 impure.c
20000010 l     O .data	00000060 impure_data
00000000 l    df *ABS*	00000000 reent.c
00000416  w      .text	00000000 EXTI2_IRQHandler
00002b1c g     F .text	0000002a putchar
00000416  w      .text	00000000 TIM8_TRG_COM_IRQHandler
00000416  w      .text	00000000 TIM8_CC_IRQHandler
00003c40 g     F .text	00000030 _isatty_r
00003e98 g       .reset_entry	00000000 _Reset_Entry
000039fc g     F .text	00000034 _lseek_r
00000e00 g     F .text	000000b4 RMP_Int_Print
00000416  w      .text	00000000 UART8_IRQHandler
000023fc g     F .text	00000016 _RMP_Yield
00003eac g       .reset_entry	00000000 RMP_Int_Disable
00002ade g     F .text	0000003e printf
20000870 g       .data	00000000 __global_pointer$
00000208 g     F .text	00000028 .hidden __riscv_save_8
00000416  w      .text	00000000 TIM1_CC_IRQHandler
0000360c g     F .text	00000030 __sseek
00002bfc g     F .text	00000066 __sinit
00003642 g     F .text	000000be __swbuf_r
0000030c g     F .text	00000002 HardFault_Handler
00002bb6 g     F .text	00000046 __sfmoreglue
00003b32 g     F .text	00000002 __malloc_unlock
00000254 g     F .text	0000000c .hidden __riscv_restore_3
00000416  w      .text	00000000 TIM6_IRQHandler
20002348 g     O .bss	00002000 Stack_2
00000416  w      .text	00000000 SysTick_Handler
00000928 g     F .text	000000d4 NVIC_Init
00000416  w      .text	00000000 PVD_IRQHandler
00000416  w      .text	00000000 SDIO_IRQHandler
000021b6 g     F .text	00000002 RMP_Ctx_Save
00000416  w      .text	00000000 TIM9_BRK_IRQHandler
00000240 g     F .text	00000020 .hidden __riscv_restore_10
00002942 g     F .text	000000ac RMP_Init_Hook
00000416  w      .text	00000000 DMA2_Channel8_IRQHandler
00000308 g     F .text	00000004 NMI_Handler
0000124e g     F .text	00000140 RMP_Thd_Crt
00000416  w      .text	00000000 CAN2_RX1_IRQHandler
00000416  w      .text	00000000 EXTI3_IRQHandler
00000208 g     F .text	00000028 .hidden __riscv_save_11
000027c8 g     F .text	00000066 Test_Sem_ISR
00001cba g     F .text	00000242 RMP_Sem_Pend
00000416  w      .text	00000000 USBHS_IRQHandler
00000de6 g     F .text	0000000a USART_GetFlagStatus
00000416  w      .text	00000000 DMA2_Channel9_IRQHandler
00003c0e g     F .text	00000032 _fstat_r
00000416  w      .text	00000000 TIM10_CC_IRQHandler
200043cc g     O .bss	00000004 errno
20000088 g       .bss	00000000 _sbss
00000800 g       *ABS*	00000000 __stack_size
00002412 g     F .text	00000048 _RMP_Int_Handler
00002672 g     F .text	00000048 Test_Yield_2
00002a1a g     F .text	0000005a USART_Printf_Init
00000254 g     F .text	0000000c .hidden __riscv_restore_2
00002710 g     F .text	00000054 Test_Sem_2
000029ee g     F .text	00000002 RMP_Init_Idle
00002bac g     F .text	0000000a _cleanup_r
00000416  w      .text	00000000 EXTI0_IRQHandler
00000416  w      .text	00000000 I2C2_EV_IRQHandler
00000416  w      .text	00000000 TIM10_TRG_COM_IRQHandler
00000c7c g     F .text	0000001a TIM_Cmd
20000070 g     O .data	00000004 SystemCoreClock
200000c8 g     O .bss	00000004 Mailbox_ISR_Time
00000ff6 g     F .text	00000258 _RMP_Tick_Handler
00000cce g     F .text	0000000c TIM_ClearFlag
200000ec g     O .bss	00000004 Yield_Time
00003c80 g     F .text	00000010 _fstat
20004348 g     O .bss	0000000a TIM4_Handle
00000038 g       .init	00000000 _einit
00000cda g     F .text	0000000c TIM_ClearITPendingBit
00000cca g     F .text	00000004 TIM_GetCounter
200000dc g     O .bss	00000004 Semaphore_Time
00000b88 g     F .text	0000001e RCC_APB2PeriphClockCmd
00000200 g     F .text	00000030 .hidden __riscv_save_12
00000416  w      .text	00000000 CAN2_SCE_IRQHandler
00000416  w      .text	00000000 ADC1_2_IRQHandler
000004a2 g     F .text	00000480 GPIO_Init
00003f16 g       .reset_entry	00000000 _RMP_MCYCLE_Get
00000416  w      .text	00000000 Break_Point_Handler
00000240 g     F .text	00000020 .hidden __riscv_restore_11
20000088 g     O .bss	00000004 NVIC_Priority_Group
00000416  w      .text	00000000 SPI1_IRQHandler
00000dc6 g     F .text	00000018 USART_Cmd
00003566 g     F .text	00000032 _sbrk_r
0000245a g     F .text	00000002 Test_Handler
00000230 g     F .text	0000000c .hidden __riscv_save_1
00000416  w      .text	00000000 TAMPER_IRQHandler
200000e4 g     O .bss	00000004 Temp
00003eb2 g       .reset_entry	00000000 RMP_Int_Enable
00000254 g     F .text	0000000c .hidden __riscv_restore_0
00003bda g     F .text	00000034 _read_r
00000216 g     F .text	0000001a .hidden __riscv_save_7
00003f0a g       .reset_entry	00000000 _RMP_MCAUSE_Get
00000416  w      .text	00000000 CAN2_RX0_IRQHandler
200000c4 g     O .bss	00000002 End
00001514 g     F .text	000002be RMP_Thd_Snd
00000416  w      .text	00000000 TIM8_UP_IRQHandler
00000ba6 g     F .text	0000001e RCC_APB1PeriphClockCmd
00000416  w      .text	00000000 Ecall_M_Mode_Handler
20007800 g       .stack	00000000 _heap_end
00003f10 g       .reset_entry	00000000 _RMP_MTVEC_Set
200000d8 g     O .bss	00000004 Semaphore_ISR_Time
200000e8 g     O .bss	00000004 Total
00003c90 g     F .text	00000010 _isatty
00000f56 g     F .text	0000001a RMP_Yield
20000080 g     O .data	00000004 _global_impure_ptr
0000024a g     F .text	00000016 .hidden __riscv_restore_5
00000416  w      .text	00000000 DMA2_Channel2_IRQHandler
00000416  w      .text	00000000 DMA1_Channel4_IRQHandler
00002ab2 g     F .text	0000002c _sbrk
00000f70 g     F .text	00000086 _RMP_Run_High
00000416  w      .text	00000000 TIM9_UP_IRQHandler
0000024a g     F .text	00000016 .hidden __riscv_restore_6
00000416  w      .text	00000000 USART3_IRQHandler
00000416  w      .text	00000000 RTC_IRQHandler
200043d0 g       .bss	00000000 _ebss
00000416  w      .text	00000000 DMA1_Channel7_IRQHandler
00000416  w      .text	00000000 CAN1_RX1_IRQHandler
0000245c g     F .text	00000074 Int_Init
000029f0 g     F .text	0000002a Delay_Init
00000416  w      .text	00000000 DVP_IRQHandler
00000416  w      .text	00000000 UART5_IRQHandler
000034e4 g     F .text	00000082 _putc_r
000024d0 g     F .text	000000d4 TIM4_IRQHandler
200000a8 g     O .bss	00000004 RMP_Thd_Cur
00000208 g     F .text	00000028 .hidden __riscv_save_9
00000416  w      .text	00000000 DMA2_Channel1_IRQHandler
00002652 g     F .text	00000020 Func_1
00003dfc g     O .text	00000020 __sf_fake_stderr
00000216 g     F .text	0000001a .hidden __riscv_save_4
00000416  w      .text	00000000 I2C1_EV_IRQHandler
000009fc g     F .text	0000018c RCC_GetClocksFreq
00000416  w      .text	00000000 DMA1_Channel6_IRQHandler
00002e6a g     F .text	00000040 __sfputs_r
00000416  w      .text	00000000 UART4_IRQHandler
00000416  w      .text	00000000 DMA2_Channel4_IRQHandler
00003b18 g     F .text	00000018 memchr
00000ce6 g     F .text	000000e0 USART_Init
00003b34 g     F .text	000000a6 _free_r
00000416  w      .text	00000000 TIM3_IRQHandler
00000416  w      .text	00000000 RCC_IRQHandler
00000230 g     F .text	0000000c .hidden __riscv_save_3
00000416  w      .text	00000000 TIM1_TRG_COM_IRQHandler
00000416  w      .text	00000000 DMA1_Channel1_IRQHandler
200000ac g     O .bss	00000004 RMP_Tick
00000000 g       .init	00000000 _start
00000416  w      .text	00000000 DMA2_Channel7_IRQHandler
00003ca0 g     F .text	00000010 _lseek
00000416  w      .text	00000000 EXTI15_10_IRQHandler
00000c96 g     F .text	00000014 TIM_ITConfig
00003f1c g       .reset_entry	00000000 _RMP_Mem_FENCE
00002392 g     F .text	00000054 _RMP_Low_Level_Init
00000416  w      .text	00000000 TIM7_IRQHandler
0000261e g     F .text	00000034 Test_Sem_1
00003834 g     F .text	00000030 _close_r
00000416  w      .text	00000000 CAN2_TX_IRQHandler
20000000 g       .dalign	00000000 _data_vma
00000416  w      .text	00000000 TIM5_IRQHandler
00003736 g     F .text	000000fe __swsetup_r
00002266 g     F .text	0000012c _RMP_Stack_Init
00000416  w      .text	00000000 EXTI9_5_IRQHandler
00002c62 g     F .text	0000009e __sfp
20000338 g     O .bss	00000010 Sem_1
00000208 g     F .text	00000028 .hidden __riscv_save_10
00003598 g     F .text	0000002c __sread
00000416  w      .text	00000000 ETH_WKUP_IRQHandler
00003b30 g     F .text	00000002 __malloc_lock
0000024a g     F .text	00000016 .hidden __riscv_restore_4
00000240 g     F .text	00000020 .hidden __riscv_restore_8
00003994 g     F .text	00000068 _fflush_r
00000216 g     F .text	0000001a .hidden __riscv_save_6
00000416  w      .text	00000000 SPI2_IRQHandler
00003e1c g     O .text	00000020 __sf_fake_stdin
20004390 g     O .bss	0000003c Thd_2
00000260 g     F .text	000000a8 memset
00000240 g     F .text	00000020 .hidden __riscv_restore_9
0000024a g     F .text	00000016 .hidden __riscv_restore_7
000021ba g     F .text	000000ac main
00001bd0 g     F .text	000000ea RMP_Sem_Crt
000025a4 g     F .text	0000002c Test_Yield_1
00003eb8 g       .reset_entry	00000000 RMP_MSB_Get
00000416  w      .text	00000000 TIM10_BRK_IRQHandler
00000416  w      .text	00000000 TIM9_CC_IRQHandler
0000363c g     F .text	00000006 __sclose
00000416  w      .text	00000000 DMA2_Channel5_IRQHandler
00000df0 g     F .text	00000010 RMP_Clear
00002d6a g     F .text	000000d8 _malloc_r
00000caa g     F .text	00000010 TIM_InternalClockConfig
00000416  w      .text	00000000 DMA1_Channel5_IRQHandler
00000416  w      .text	00000000 EXTI4_IRQHandler
00000416  w      .text	00000000 USB_LP_CAN1_RX0_IRQHandler
00002764 g     F .text	00000064 Test_Mail_ISR
000026ba g     F .text	00000056 Test_Mail_2
0000030e g     F .text	00000108 SystemInit
00000416  w      .text	00000000 RNG_IRQHandler
000018d2 g     F .text	000002fe RMP_Thd_Rcv
00002ade g     F .text	0000003e iprintf
00000416  w      .text	00000000 USB_HP_CAN1_TX_IRQHandler
00000000 g       .init	00000000 _sinit
00003700 g     F .text	00000036 _write_r
00000416  w      .text	00000000 DMA1_Channel3_IRQHandler
000021b8 g     F .text	00000002 RMP_Ctx_Load
00000416  w      .text	00000000 FSMC_IRQHandler
200000d0 g     O .bss	00000008 NVIC_InitStruture
00000416  w      .text	00000000 ETH_IRQHandler
00003134 g     F .text	0000010c _printf_common
2000007c g     O .data	00000004 _impure_ptr
00000416  w      .text	00000000 TIM1_UP_IRQHandler
00003864 g     F .text	00000130 __sflush_r
20004354 g     O .bss	0000003c Thd_1
00000416  w      .text	00000000 WWDG_IRQHandler
00000416  w      .text	00000000 USBHSWakeup_IRQHandler
00000416  w      .text	00000000 DMA2_Channel11_IRQHandler
0000282e g     F .text	00000114 Func_2
00000416  w      .text	00000000 Ecall_U_Mode_Handler
00001efc g     F .text	000001c8 RMP_Sem_Post
00000416  w      .text	00000000 DMA2_Channel6_IRQHandler
00000416  w      .text	00000000 TIM2_IRQHandler
20008000 g       .stack	00000000 _eusrstack
00000230 g     F .text	0000000c .hidden __riscv_save_2
00000416  w      .text	00000000 SW_Handler
00000ee6 g     F .text	00000048 RMP_Sched_Unlock
000025d0 g     F .text	0000004e Test_Mail_1
00000416  w      .text	00000000 TIM1_BRK_IRQHandler
00003a30 g     F .text	00000056 __swhatbuf_r
00000dde g     F .text	00000008 USART_SendData
20007800 g       .stack	00000000 __stack
00000416  w      .text	00000000 DMA2_Channel10_IRQHandler
00000416  w      .text	00000000 EXTI1_IRQHandler
00000216 g     F .text	0000001a .hidden __riscv_save_5
00003f02 g       .reset_entry	00000000 _RMP_Start
00002a74 g     F .text	0000003e _write
20000088 g       .data	00000000 _edata
200043d0 g       .bss	00000000 _end
00000bc4 g     F .text	000000b8 TIM_TimeBaseInit
00000416  w      .text	00000000 RTCAlarm_IRQHandler
00003fe8 g       .dlalign	00000000 _data_lma
00000416  w      .text	00000000 TIM10_UP_IRQHandler
00000416  w      .text	00000000 TIM9_TRG_COM_IRQHandler
00000416  w      .text	00000000 UART7_IRQHandler
00000416  w      .text	00000000 USART2_IRQHandler
00000416  w      .text	00000000 UART6_IRQHandler
000035c4 g     F .text	00000048 __swrite
00000f2e g     F .text	00000028 RMP_Init
00002eaa g     F .text	0000028a _vfiprintf_r
00002d00 g     F .text	0000006a _fwalk_reent
00000416  w      .text	00000000 I2C2_ER_IRQHandler
00000416  w      .text	00000000 DMA1_Channel2_IRQHandler
00003e3c g     O .text	00000020 __sf_fake_stdout
0000023c g     F .text	00000024 .hidden __riscv_restore_12
00000416  w      .text	00000000 TIM8_BRK_IRQHandler
00003cb0 g     F .text	00000010 _read
200000cc g     O .bss	00000004 Mailbox_Time
0000041a  w      .text	00000000 handle_reset
00000416  w      .text	00000000 CAN1_SCE_IRQHandler
00000230 g     F .text	0000000c .hidden __riscv_save_0
00000416  w      .text	00000000 FLASH_IRQHandler
200000e0 g     O .bss	00000002 Start
0000138e g     F .text	00000186 RMP_Thd_Set
000023e6 g     F .text	0000000a _RMP_Plat_Hook
00000416  w      .text	00000000 USART1_IRQHandler
00003a86 g     F .text	00000092 __smakebuf_r
00000416  w      .text	00000000 OTG_FS_IRQHandler
00003240 g     F .text	000002a4 _printf_i
00000416  w      .text	00000000 SPI3_IRQHandler
200000f8 g     O .bss	00000004 __malloc_sbrk_start
00003f24 g       .reset_entry	00000000 _RMP_RV32IMAC_Handler
00000416  w      .text	00000000 I2C1_ER_IRQHandler
00000922 g     F .text	00000006 NVIC_PriorityGroupConfig
200000f4 g     O .bss	00000004 __malloc_free_list
00000254 g     F .text	0000000c .hidden __riscv_restore_1
00002eaa g     F .text	0000028a _vfprintf_r
20000348 g     O .bss	00002000 Stack_1
000023f0 g     F .text	0000000c RMP_Putchar
00000eb4 g     F .text	00000032 RMP_Str_Print
00000416  w      .text	00000000 USBWakeUp_IRQHandler
00003c70 g     F .text	00000010 _close
00000cba g     F .text	00000010 TIM_CounterModeConfig
000017d2 g     F .text	00000100 RMP_Thd_Snd_ISR
000020c4 g     F .text	000000f2 RMP_Sem_Post_ISR
00000416  w      .text	00000000 DMA2_Channel3_IRQHandler
20000098 g     O .bss	00000004 RMP_SP_Cur



Disassembly of section .init:

00000000 <_sinit>:
   0:	41a0006f          	j	41a <handle_reset>
   4:	00000013          	nop
   8:	00000013          	nop
   c:	00000013          	nop
  10:	00000013          	nop
  14:	00000013          	nop
  18:	00000013          	nop
  1c:	00000013          	nop
  20:	00000013          	nop
  24:	00000013          	nop
  28:	00000013          	nop
  2c:	00000013          	nop
  30:	00000013          	nop
  34:	00100073          	ebreak

Disassembly of section .vector:

00000038 <_vector_base>:
	...
  40:	0308                	addi	a0,sp,384
  42:	0000                	unimp
  44:	030c                	addi	a1,sp,384
  46:	0000                	unimp
  48:	0000                	unimp
  4a:	0000                	unimp
  4c:	0416                	slli	s0,s0,0x5
	...
  56:	0000                	unimp
  58:	0416                	slli	s0,s0,0x5
  5a:	0000                	unimp
  5c:	0416                	slli	s0,s0,0x5
	...
  66:	0000                	unimp
  68:	0416                	slli	s0,s0,0x5
  6a:	0000                	unimp
  6c:	0000                	unimp
  6e:	0000                	unimp
  70:	0416                	slli	s0,s0,0x5
  72:	0000                	unimp
  74:	0000                	unimp
  76:	0000                	unimp
  78:	0416                	slli	s0,s0,0x5
  7a:	0000                	unimp
  7c:	0416                	slli	s0,s0,0x5
  7e:	0000                	unimp
  80:	0416                	slli	s0,s0,0x5
  82:	0000                	unimp
  84:	0416                	slli	s0,s0,0x5
  86:	0000                	unimp
  88:	0416                	slli	s0,s0,0x5
  8a:	0000                	unimp
  8c:	0416                	slli	s0,s0,0x5
  8e:	0000                	unimp
  90:	0416                	slli	s0,s0,0x5
  92:	0000                	unimp
  94:	0416                	slli	s0,s0,0x5
  96:	0000                	unimp
  98:	0416                	slli	s0,s0,0x5
  9a:	0000                	unimp
  9c:	0416                	slli	s0,s0,0x5
  9e:	0000                	unimp
  a0:	0416                	slli	s0,s0,0x5
  a2:	0000                	unimp
  a4:	0416                	slli	s0,s0,0x5
  a6:	0000                	unimp
  a8:	0416                	slli	s0,s0,0x5
  aa:	0000                	unimp
  ac:	0416                	slli	s0,s0,0x5
  ae:	0000                	unimp
  b0:	0416                	slli	s0,s0,0x5
  b2:	0000                	unimp
  b4:	0416                	slli	s0,s0,0x5
  b6:	0000                	unimp
  b8:	0416                	slli	s0,s0,0x5
  ba:	0000                	unimp
  bc:	0416                	slli	s0,s0,0x5
  be:	0000                	unimp
  c0:	0416                	slli	s0,s0,0x5
  c2:	0000                	unimp
  c4:	0416                	slli	s0,s0,0x5
  c6:	0000                	unimp
  c8:	0416                	slli	s0,s0,0x5
  ca:	0000                	unimp
  cc:	0416                	slli	s0,s0,0x5
  ce:	0000                	unimp
  d0:	0416                	slli	s0,s0,0x5
  d2:	0000                	unimp
  d4:	0416                	slli	s0,s0,0x5
  d6:	0000                	unimp
  d8:	0416                	slli	s0,s0,0x5
  da:	0000                	unimp
  dc:	0416                	slli	s0,s0,0x5
  de:	0000                	unimp
  e0:	0416                	slli	s0,s0,0x5
  e2:	0000                	unimp
  e4:	0416                	slli	s0,s0,0x5
  e6:	0000                	unimp
  e8:	0416                	slli	s0,s0,0x5
  ea:	0000                	unimp
  ec:	0416                	slli	s0,s0,0x5
  ee:	0000                	unimp
  f0:	24d0                	lbu	a2,12(s1)
  f2:	0000                	unimp
  f4:	0416                	slli	s0,s0,0x5
  f6:	0000                	unimp
  f8:	0416                	slli	s0,s0,0x5
  fa:	0000                	unimp
  fc:	0416                	slli	s0,s0,0x5
  fe:	0000                	unimp
 100:	0416                	slli	s0,s0,0x5
 102:	0000                	unimp
 104:	0416                	slli	s0,s0,0x5
 106:	0000                	unimp
 108:	0416                	slli	s0,s0,0x5
 10a:	0000                	unimp
 10c:	0416                	slli	s0,s0,0x5
 10e:	0000                	unimp
 110:	0416                	slli	s0,s0,0x5
 112:	0000                	unimp
 114:	0416                	slli	s0,s0,0x5
 116:	0000                	unimp
 118:	0416                	slli	s0,s0,0x5
 11a:	0000                	unimp
 11c:	0416                	slli	s0,s0,0x5
 11e:	0000                	unimp
 120:	0416                	slli	s0,s0,0x5
 122:	0000                	unimp
 124:	0416                	slli	s0,s0,0x5
 126:	0000                	unimp
 128:	0416                	slli	s0,s0,0x5
 12a:	0000                	unimp
 12c:	0416                	slli	s0,s0,0x5
 12e:	0000                	unimp
 130:	0416                	slli	s0,s0,0x5
 132:	0000                	unimp
 134:	0416                	slli	s0,s0,0x5
 136:	0000                	unimp
 138:	0416                	slli	s0,s0,0x5
 13a:	0000                	unimp
 13c:	0416                	slli	s0,s0,0x5
 13e:	0000                	unimp
 140:	0416                	slli	s0,s0,0x5
 142:	0000                	unimp
 144:	0416                	slli	s0,s0,0x5
 146:	0000                	unimp
 148:	0416                	slli	s0,s0,0x5
 14a:	0000                	unimp
 14c:	0416                	slli	s0,s0,0x5
 14e:	0000                	unimp
 150:	0416                	slli	s0,s0,0x5
 152:	0000                	unimp
 154:	0416                	slli	s0,s0,0x5
 156:	0000                	unimp
 158:	0416                	slli	s0,s0,0x5
 15a:	0000                	unimp
 15c:	0416                	slli	s0,s0,0x5
 15e:	0000                	unimp
 160:	0416                	slli	s0,s0,0x5
 162:	0000                	unimp
 164:	0416                	slli	s0,s0,0x5
 166:	0000                	unimp
 168:	0416                	slli	s0,s0,0x5
 16a:	0000                	unimp
 16c:	0416                	slli	s0,s0,0x5
 16e:	0000                	unimp
 170:	0416                	slli	s0,s0,0x5
 172:	0000                	unimp
 174:	0416                	slli	s0,s0,0x5
 176:	0000                	unimp
 178:	0416                	slli	s0,s0,0x5
 17a:	0000                	unimp
 17c:	0416                	slli	s0,s0,0x5
 17e:	0000                	unimp
 180:	0416                	slli	s0,s0,0x5
 182:	0000                	unimp
 184:	0416                	slli	s0,s0,0x5
 186:	0000                	unimp
 188:	0416                	slli	s0,s0,0x5
 18a:	0000                	unimp
 18c:	0416                	slli	s0,s0,0x5
 18e:	0000                	unimp
 190:	0416                	slli	s0,s0,0x5
 192:	0000                	unimp
 194:	0416                	slli	s0,s0,0x5
 196:	0000                	unimp
 198:	0416                	slli	s0,s0,0x5
 19a:	0000                	unimp
 19c:	0416                	slli	s0,s0,0x5
 19e:	0000                	unimp
 1a0:	0416                	slli	s0,s0,0x5
 1a2:	0000                	unimp
 1a4:	0416                	slli	s0,s0,0x5
 1a6:	0000                	unimp
 1a8:	0416                	slli	s0,s0,0x5
 1aa:	0000                	unimp
 1ac:	0416                	slli	s0,s0,0x5
 1ae:	0000                	unimp
 1b0:	0416                	slli	s0,s0,0x5
 1b2:	0000                	unimp
 1b4:	0416                	slli	s0,s0,0x5
 1b6:	0000                	unimp
 1b8:	0416                	slli	s0,s0,0x5
 1ba:	0000                	unimp
 1bc:	0416                	slli	s0,s0,0x5
 1be:	0000                	unimp
 1c0:	0416                	slli	s0,s0,0x5
 1c2:	0000                	unimp
 1c4:	0416                	slli	s0,s0,0x5
 1c6:	0000                	unimp
 1c8:	0416                	slli	s0,s0,0x5
 1ca:	0000                	unimp
 1cc:	0416                	slli	s0,s0,0x5
 1ce:	0000                	unimp
 1d0:	0416                	slli	s0,s0,0x5
 1d2:	0000                	unimp
 1d4:	0416                	slli	s0,s0,0x5
	...

Disassembly of section .text:

00000200 <__riscv_save_12>:
     200:	7139                	addi	sp,sp,-64
     202:	4301                	li	t1,0
     204:	c66e                	sw	s11,12(sp)
     206:	a019                	j	20c <__riscv_save_10+0x4>

00000208 <__riscv_save_10>:
     208:	7139                	addi	sp,sp,-64
     20a:	5341                	li	t1,-16
     20c:	c86a                	sw	s10,16(sp)
     20e:	ca66                	sw	s9,20(sp)
     210:	cc62                	sw	s8,24(sp)
     212:	ce5e                	sw	s7,28(sp)
     214:	a019                	j	21a <__riscv_save_4+0x4>

00000216 <__riscv_save_4>:
     216:	7139                	addi	sp,sp,-64
     218:	5301                	li	t1,-32
     21a:	d05a                	sw	s6,32(sp)
     21c:	d256                	sw	s5,36(sp)
     21e:	d452                	sw	s4,40(sp)
     220:	d64e                	sw	s3,44(sp)
     222:	d84a                	sw	s2,48(sp)
     224:	da26                	sw	s1,52(sp)
     226:	dc22                	sw	s0,56(sp)
     228:	de06                	sw	ra,60(sp)
     22a:	40610133          	sub	sp,sp,t1
     22e:	8282                	jr	t0

00000230 <__riscv_save_0>:
     230:	1141                	addi	sp,sp,-16
     232:	c04a                	sw	s2,0(sp)
     234:	c226                	sw	s1,4(sp)
     236:	c422                	sw	s0,8(sp)
     238:	c606                	sw	ra,12(sp)
     23a:	8282                	jr	t0

0000023c <__riscv_restore_12>:
     23c:	4db2                	lw	s11,12(sp)
     23e:	0141                	addi	sp,sp,16

00000240 <__riscv_restore_10>:
     240:	4d02                	lw	s10,0(sp)
     242:	4c92                	lw	s9,4(sp)
     244:	4c22                	lw	s8,8(sp)
     246:	4bb2                	lw	s7,12(sp)
     248:	0141                	addi	sp,sp,16

0000024a <__riscv_restore_4>:
     24a:	4b02                	lw	s6,0(sp)
     24c:	4a92                	lw	s5,4(sp)
     24e:	4a22                	lw	s4,8(sp)
     250:	49b2                	lw	s3,12(sp)
     252:	0141                	addi	sp,sp,16

00000254 <__riscv_restore_0>:
     254:	4902                	lw	s2,0(sp)
     256:	4492                	lw	s1,4(sp)
     258:	4422                	lw	s0,8(sp)
     25a:	40b2                	lw	ra,12(sp)
     25c:	0141                	addi	sp,sp,16
     25e:	8082                	ret

00000260 <memset>:
     260:	433d                	li	t1,15
     262:	872a                	mv	a4,a0
     264:	02c37363          	bgeu	t1,a2,28a <memset+0x2a>
     268:	00f77793          	andi	a5,a4,15
     26c:	efbd                	bnez	a5,2ea <memset+0x8a>
     26e:	e5ad                	bnez	a1,2d8 <memset+0x78>
     270:	ff067693          	andi	a3,a2,-16
     274:	8a3d                	andi	a2,a2,15
     276:	96ba                	add	a3,a3,a4
     278:	c30c                	sw	a1,0(a4)
     27a:	c34c                	sw	a1,4(a4)
     27c:	c70c                	sw	a1,8(a4)
     27e:	c74c                	sw	a1,12(a4)
     280:	0741                	addi	a4,a4,16
     282:	fed76be3          	bltu	a4,a3,278 <memset+0x18>
     286:	e211                	bnez	a2,28a <memset+0x2a>
     288:	8082                	ret
     28a:	40c306b3          	sub	a3,t1,a2
     28e:	068a                	slli	a3,a3,0x2
     290:	00000297          	auipc	t0,0x0
     294:	9696                	add	a3,a3,t0
     296:	00a68067          	jr	10(a3)
     29a:	00b70723          	sb	a1,14(a4)
     29e:	00b706a3          	sb	a1,13(a4)
     2a2:	00b70623          	sb	a1,12(a4)
     2a6:	00b705a3          	sb	a1,11(a4)
     2aa:	00b70523          	sb	a1,10(a4)
     2ae:	00b704a3          	sb	a1,9(a4)
     2b2:	00b70423          	sb	a1,8(a4)
     2b6:	00b703a3          	sb	a1,7(a4)
     2ba:	00b70323          	sb	a1,6(a4)
     2be:	00b702a3          	sb	a1,5(a4)
     2c2:	00b70223          	sb	a1,4(a4)
     2c6:	00b701a3          	sb	a1,3(a4)
     2ca:	00b70123          	sb	a1,2(a4)
     2ce:	00b700a3          	sb	a1,1(a4)
     2d2:	00b70023          	sb	a1,0(a4)
     2d6:	8082                	ret
     2d8:	0ff5f593          	andi	a1,a1,255
     2dc:	00859693          	slli	a3,a1,0x8
     2e0:	8dd5                	or	a1,a1,a3
     2e2:	01059693          	slli	a3,a1,0x10
     2e6:	8dd5                	or	a1,a1,a3
     2e8:	b761                	j	270 <memset+0x10>
     2ea:	00279693          	slli	a3,a5,0x2
     2ee:	00000297          	auipc	t0,0x0
     2f2:	9696                	add	a3,a3,t0
     2f4:	8286                	mv	t0,ra
     2f6:	fa8680e7          	jalr	-88(a3)
     2fa:	8096                	mv	ra,t0
     2fc:	17c1                	addi	a5,a5,-16
     2fe:	8f1d                	sub	a4,a4,a5
     300:	963e                	add	a2,a2,a5
     302:	f8c374e3          	bgeu	t1,a2,28a <memset+0x2a>
     306:	b7a5                	j	26e <memset+0xe>

00000308 <NMI_Handler>:
     308:	30200073          	mret

0000030c <HardFault_Handler>:
     30c:	a001                	j	30c <HardFault_Handler>

0000030e <SystemInit>:
     30e:	400217b7          	lui	a5,0x40021
     312:	4398                	lw	a4,0(a5)
     314:	f8ff06b7          	lui	a3,0xf8ff0
     318:	1141                	addi	sp,sp,-16
     31a:	00176713          	ori	a4,a4,1
     31e:	c398                	sw	a4,0(a5)
     320:	43d8                	lw	a4,4(a5)
     322:	40021537          	lui	a0,0x40021
     326:	000205b7          	lui	a1,0x20
     32a:	8f75                	and	a4,a4,a3
     32c:	c3d8                	sw	a4,4(a5)
     32e:	4398                	lw	a4,0(a5)
     330:	fef706b7          	lui	a3,0xfef70
     334:	16fd                	addi	a3,a3,-1
     336:	8f75                	and	a4,a4,a3
     338:	c398                	sw	a4,0(a5)
     33a:	4398                	lw	a4,0(a5)
     33c:	fffc06b7          	lui	a3,0xfffc0
     340:	16fd                	addi	a3,a3,-1
     342:	8f75                	and	a4,a4,a3
     344:	c398                	sw	a4,0(a5)
     346:	43d8                	lw	a4,4(a5)
     348:	ff8106b7          	lui	a3,0xff810
     34c:	16fd                	addi	a3,a3,-1
     34e:	8f75                	and	a4,a4,a3
     350:	c3d8                	sw	a4,4(a5)
     352:	4398                	lw	a4,0(a5)
     354:	ec0006b7          	lui	a3,0xec000
     358:	16fd                	addi	a3,a3,-1
     35a:	8f75                	and	a4,a4,a3
     35c:	c398                	sw	a4,0(a5)
     35e:	00ff0737          	lui	a4,0xff0
     362:	c798                	sw	a4,8(a5)
     364:	0207a623          	sw	zero,44(a5) # 4002102c <_eusrstack+0x2001902c>
     368:	c402                	sw	zero,8(sp)
     36a:	c602                	sw	zero,12(sp)
     36c:	4398                	lw	a4,0(a5)
     36e:	66c1                	lui	a3,0x10
     370:	6605                	lui	a2,0x1
     372:	8f55                	or	a4,a4,a3
     374:	c398                	sw	a4,0(a5)
     376:	a021                	j	37e <SystemInit+0x70>
     378:	47a2                	lw	a5,8(sp)
     37a:	00c78a63          	beq	a5,a2,38e <SystemInit+0x80>
     37e:	411c                	lw	a5,0(a0)
     380:	8fed                	and	a5,a5,a1
     382:	c63e                	sw	a5,12(sp)
     384:	47a2                	lw	a5,8(sp)
     386:	0785                	addi	a5,a5,1
     388:	c43e                	sw	a5,8(sp)
     38a:	47b2                	lw	a5,12(sp)
     38c:	d7f5                	beqz	a5,378 <SystemInit+0x6a>
     38e:	400217b7          	lui	a5,0x40021
     392:	439c                	lw	a5,0(a5)
     394:	00e79713          	slli	a4,a5,0xe
     398:	00075a63          	bgez	a4,3ac <SystemInit+0x9e>
     39c:	4785                	li	a5,1
     39e:	c63e                	sw	a5,12(sp)
     3a0:	4732                	lw	a4,12(sp)
     3a2:	4785                	li	a5,1
     3a4:	00f70963          	beq	a4,a5,3b6 <SystemInit+0xa8>
     3a8:	0141                	addi	sp,sp,16
     3aa:	8082                	ret
     3ac:	c602                	sw	zero,12(sp)
     3ae:	4732                	lw	a4,12(sp)
     3b0:	4785                	li	a5,1
     3b2:	fef71be3          	bne	a4,a5,3a8 <SystemInit+0x9a>
     3b6:	400217b7          	lui	a5,0x40021
     3ba:	43d8                	lw	a4,4(a5)
     3bc:	ffc10637          	lui	a2,0xffc10
     3c0:	167d                	addi	a2,a2,-1
     3c2:	c3d8                	sw	a4,4(a5)
     3c4:	43d8                	lw	a4,4(a5)
     3c6:	c3d8                	sw	a4,4(a5)
     3c8:	43d4                	lw	a3,4(a5)
     3ca:	40021737          	lui	a4,0x40021
     3ce:	4006e693          	ori	a3,a3,1024
     3d2:	c3d4                	sw	a3,4(a5)
     3d4:	43d4                	lw	a3,4(a5)
     3d6:	8ef1                	and	a3,a3,a2
     3d8:	c3d4                	sw	a3,4(a5)
     3da:	43d4                	lw	a3,4(a5)
     3dc:	6641                	lui	a2,0x10
     3de:	8ed1                	or	a3,a3,a2
     3e0:	c3d4                	sw	a3,4(a5)
     3e2:	4394                	lw	a3,0(a5)
     3e4:	01000637          	lui	a2,0x1000
     3e8:	8ed1                	or	a3,a3,a2
     3ea:	c394                	sw	a3,0(a5)
     3ec:	431c                	lw	a5,0(a4)
     3ee:	00679693          	slli	a3,a5,0x6
     3f2:	fe06dde3          	bgez	a3,3ec <SystemInit+0xde>
     3f6:	435c                	lw	a5,4(a4)
     3f8:	40021637          	lui	a2,0x40021
     3fc:	46a1                	li	a3,8
     3fe:	9bf1                	andi	a5,a5,-4
     400:	c35c                	sw	a5,4(a4)
     402:	435c                	lw	a5,4(a4)
     404:	0027e793          	ori	a5,a5,2
     408:	c35c                	sw	a5,4(a4)
     40a:	425c                	lw	a5,4(a2)
     40c:	8bb1                	andi	a5,a5,12
     40e:	fed79ee3          	bne	a5,a3,40a <SystemInit+0xfc>
     412:	0141                	addi	sp,sp,16
     414:	8082                	ret

00000416 <ADC1_2_IRQHandler>:
     416:	30f0306f          	j	3f24 <_RMP_RV32IMAC_Handler>

0000041a <handle_reset>:
     41a:	20000197          	auipc	gp,0x20000
     41e:	45618193          	addi	gp,gp,1110 # 20000870 <__global_pointer$>
     422:	20008117          	auipc	sp,0x20008
     426:	bde10113          	addi	sp,sp,-1058 # 20008000 <_eusrstack>
     42a:	00004517          	auipc	a0,0x4
     42e:	bbe50513          	addi	a0,a0,-1090 # 3fe8 <_data_lma>
     432:	20000597          	auipc	a1,0x20000
     436:	bce58593          	addi	a1,a1,-1074 # 20000000 <_data_vma>
     43a:	81818613          	addi	a2,gp,-2024 # 20000088 <_edata>
     43e:	00c5fa63          	bgeu	a1,a2,452 <handle_reset+0x38>
     442:	00052283          	lw	t0,0(a0)
     446:	0055a023          	sw	t0,0(a1)
     44a:	0511                	addi	a0,a0,4
     44c:	0591                	addi	a1,a1,4
     44e:	fec5eae3          	bltu	a1,a2,442 <handle_reset+0x28>
     452:	81818513          	addi	a0,gp,-2024 # 20000088 <_edata>
     456:	20004597          	auipc	a1,0x20004
     45a:	f7a58593          	addi	a1,a1,-134 # 200043d0 <_ebss>
     45e:	00b57763          	bgeu	a0,a1,46c <handle_reset+0x52>
     462:	00052023          	sw	zero,0(a0)
     466:	0511                	addi	a0,a0,4
     468:	feb56de3          	bltu	a0,a1,462 <handle_reset+0x48>
     46c:	42fd                	li	t0,31
     46e:	bc029073          	csrw	0xbc0,t0
     472:	000022b7          	lui	t0,0x2
     476:	88828293          	addi	t0,t0,-1912 # 1888 <RMP_Thd_Snd_ISR+0xb6>
     47a:	3002a073          	csrs	mstatus,t0
     47e:	00000297          	auipc	t0,0x0
     482:	bba28293          	addi	t0,t0,-1094 # 38 <_einit>
     486:	0032e293          	ori	t0,t0,3
     48a:	30529073          	csrw	mtvec,t0
     48e:	e81ff0ef          	jal	ra,30e <SystemInit>
     492:	00002297          	auipc	t0,0x2
     496:	d2828293          	addi	t0,t0,-728 # 21ba <main>
     49a:	34129073          	csrw	mepc,t0
     49e:	30200073          	mret

000004a2 <GPIO_Init>:
     4a2:	4594                	lw	a3,8(a1)
     4a4:	0106f793          	andi	a5,a3,16
     4a8:	00f6f613          	andi	a2,a3,15
     4ac:	c399                	beqz	a5,4b2 <GPIO_Init+0x10>
     4ae:	41dc                	lw	a5,4(a1)
     4b0:	8e5d                	or	a2,a2,a5
     4b2:	219e                	lhu	a5,0(a1)
     4b4:	0ff7f713          	andi	a4,a5,255
     4b8:	cb39                	beqz	a4,50e <GPIO_Init+0x6c>
     4ba:	4118                	lw	a4,0(a0)
     4bc:	04800593          	li	a1,72
     4c0:	1ab68a63          	beq	a3,a1,674 <GPIO_Init+0x1d2>
     4c4:	02800593          	li	a1,40
     4c8:	3ab68163          	beq	a3,a1,86a <__stack_size+0x6a>
     4cc:	0017f593          	andi	a1,a5,1
     4d0:	30059e63          	bnez	a1,7ec <GPIO_Init+0x34a>
     4d4:	0027f593          	andi	a1,a5,2
     4d8:	32059c63          	bnez	a1,810 <__stack_size+0x10>
     4dc:	0047f593          	andi	a1,a5,4
     4e0:	36059563          	bnez	a1,84a <__stack_size+0x4a>
     4e4:	0087f593          	andi	a1,a5,8
     4e8:	34059a63          	bnez	a1,83c <__stack_size+0x3c>
     4ec:	0107f593          	andi	a1,a5,16
     4f0:	32059e63          	bnez	a1,82c <__stack_size+0x2c>
     4f4:	0207f593          	andi	a1,a5,32
     4f8:	32059263          	bnez	a1,81c <__stack_size+0x1c>
     4fc:	0407f593          	andi	a1,a5,64
     500:	30059063          	bnez	a1,800 <__stack_size>
     504:	0807f593          	andi	a1,a5,128
     508:	2e059563          	bnez	a1,7f2 <GPIO_Init+0x350>
     50c:	c118                	sw	a4,0(a0)
     50e:	0ff00713          	li	a4,255
     512:	0cf77063          	bgeu	a4,a5,5d2 <GPIO_Init+0x130>
     516:	4158                	lw	a4,4(a0)
     518:	04800593          	li	a1,72
     51c:	0ab69c63          	bne	a3,a1,5d4 <GPIO_Init+0x132>
     520:	1007f693          	andi	a3,a5,256
     524:	c691                	beqz	a3,530 <GPIO_Init+0x8e>
     526:	9b41                	andi	a4,a4,-16
     528:	10000693          	li	a3,256
     52c:	8f51                	or	a4,a4,a2
     52e:	c914                	sw	a3,16(a0)
     530:	2007f693          	andi	a3,a5,512
     534:	ca89                	beqz	a3,546 <GPIO_Init+0xa4>
     536:	00461693          	slli	a3,a2,0x4
     53a:	f0f77713          	andi	a4,a4,-241
     53e:	8f55                	or	a4,a4,a3
     540:	20000693          	li	a3,512
     544:	c914                	sw	a3,16(a0)
     546:	4007f693          	andi	a3,a5,1024
     54a:	ca99                	beqz	a3,560 <GPIO_Init+0xbe>
     54c:	76fd                	lui	a3,0xfffff
     54e:	0ff68693          	addi	a3,a3,255 # fffff0ff <_eusrstack+0xdfff70ff>
     552:	8f75                	and	a4,a4,a3
     554:	00861693          	slli	a3,a2,0x8
     558:	8f55                	or	a4,a4,a3
     55a:	40000693          	li	a3,1024
     55e:	c914                	sw	a3,16(a0)
     560:	6685                	lui	a3,0x1
     562:	80068693          	addi	a3,a3,-2048 # 800 <__stack_size>
     566:	00d7f5b3          	and	a1,a5,a3
     56a:	c981                	beqz	a1,57a <GPIO_Init+0xd8>
     56c:	75c5                	lui	a1,0xffff1
     56e:	15fd                	addi	a1,a1,-1
     570:	8f6d                	and	a4,a4,a1
     572:	00c61593          	slli	a1,a2,0xc
     576:	8f4d                	or	a4,a4,a1
     578:	c914                	sw	a3,16(a0)
     57a:	01379693          	slli	a3,a5,0x13
     57e:	0006db63          	bgez	a3,594 <GPIO_Init+0xf2>
     582:	fff106b7          	lui	a3,0xfff10
     586:	16fd                	addi	a3,a3,-1
     588:	8f75                	and	a4,a4,a3
     58a:	01061693          	slli	a3,a2,0x10
     58e:	8f55                	or	a4,a4,a3
     590:	6685                	lui	a3,0x1
     592:	c914                	sw	a3,16(a0)
     594:	01279693          	slli	a3,a5,0x12
     598:	0006db63          	bgez	a3,5ae <GPIO_Init+0x10c>
     59c:	ff1006b7          	lui	a3,0xff100
     5a0:	16fd                	addi	a3,a3,-1
     5a2:	8f75                	and	a4,a4,a3
     5a4:	01461693          	slli	a3,a2,0x14
     5a8:	8f55                	or	a4,a4,a3
     5aa:	6689                	lui	a3,0x2
     5ac:	c914                	sw	a3,16(a0)
     5ae:	01179693          	slli	a3,a5,0x11
     5b2:	0006db63          	bgez	a3,5c8 <GPIO_Init+0x126>
     5b6:	f10006b7          	lui	a3,0xf1000
     5ba:	16fd                	addi	a3,a3,-1
     5bc:	8f75                	and	a4,a4,a3
     5be:	01861693          	slli	a3,a2,0x18
     5c2:	8f55                	or	a4,a4,a3
     5c4:	6691                	lui	a3,0x4
     5c6:	c914                	sw	a3,16(a0)
     5c8:	07c2                	slli	a5,a5,0x10
     5ca:	87c1                	srai	a5,a5,0x10
     5cc:	2807c763          	bltz	a5,85a <__stack_size+0x5a>
     5d0:	c158                	sw	a4,4(a0)
     5d2:	8082                	ret
     5d4:	02800593          	li	a1,40
     5d8:	14b68a63          	beq	a3,a1,72c <GPIO_Init+0x28a>
     5dc:	1007f693          	andi	a3,a5,256
     5e0:	c299                	beqz	a3,5e6 <GPIO_Init+0x144>
     5e2:	9b41                	andi	a4,a4,-16
     5e4:	8f51                	or	a4,a4,a2
     5e6:	2007f693          	andi	a3,a5,512
     5ea:	c691                	beqz	a3,5f6 <GPIO_Init+0x154>
     5ec:	f0f77713          	andi	a4,a4,-241
     5f0:	00461693          	slli	a3,a2,0x4
     5f4:	8f55                	or	a4,a4,a3
     5f6:	4007f693          	andi	a3,a5,1024
     5fa:	ca81                	beqz	a3,60a <GPIO_Init+0x168>
     5fc:	76fd                	lui	a3,0xfffff
     5fe:	0ff68693          	addi	a3,a3,255 # fffff0ff <_eusrstack+0xdfff70ff>
     602:	8f75                	and	a4,a4,a3
     604:	00861693          	slli	a3,a2,0x8
     608:	8f55                	or	a4,a4,a3
     60a:	01479693          	slli	a3,a5,0x14
     60e:	0006d863          	bgez	a3,61e <GPIO_Init+0x17c>
     612:	76c5                	lui	a3,0xffff1
     614:	16fd                	addi	a3,a3,-1
     616:	8f75                	and	a4,a4,a3
     618:	00c61693          	slli	a3,a2,0xc
     61c:	8f55                	or	a4,a4,a3
     61e:	01379693          	slli	a3,a5,0x13
     622:	0006d963          	bgez	a3,634 <GPIO_Init+0x192>
     626:	fff106b7          	lui	a3,0xfff10
     62a:	16fd                	addi	a3,a3,-1
     62c:	8f75                	and	a4,a4,a3
     62e:	01061693          	slli	a3,a2,0x10
     632:	8f55                	or	a4,a4,a3
     634:	01279693          	slli	a3,a5,0x12
     638:	0006d963          	bgez	a3,64a <GPIO_Init+0x1a8>
     63c:	ff1006b7          	lui	a3,0xff100
     640:	16fd                	addi	a3,a3,-1
     642:	8f75                	and	a4,a4,a3
     644:	01461693          	slli	a3,a2,0x14
     648:	8f55                	or	a4,a4,a3
     64a:	01179693          	slli	a3,a5,0x11
     64e:	0006d963          	bgez	a3,660 <GPIO_Init+0x1be>
     652:	f10006b7          	lui	a3,0xf1000
     656:	16fd                	addi	a3,a3,-1
     658:	8f75                	and	a4,a4,a3
     65a:	01861693          	slli	a3,a2,0x18
     65e:	8f55                	or	a4,a4,a3
     660:	07c2                	slli	a5,a5,0x10
     662:	87c1                	srai	a5,a5,0x10
     664:	f607d6e3          	bgez	a5,5d0 <GPIO_Init+0x12e>
     668:	0712                	slli	a4,a4,0x4
     66a:	8311                	srli	a4,a4,0x4
     66c:	0672                	slli	a2,a2,0x1c
     66e:	8f51                	or	a4,a4,a2
     670:	c158                	sw	a4,4(a0)
     672:	b785                	j	5d2 <GPIO_Init+0x130>
     674:	0017f593          	andi	a1,a5,1
     678:	c589                	beqz	a1,682 <GPIO_Init+0x1e0>
     67a:	9b41                	andi	a4,a4,-16
     67c:	4585                	li	a1,1
     67e:	8f51                	or	a4,a4,a2
     680:	c90c                	sw	a1,16(a0)
     682:	0027f593          	andi	a1,a5,2
     686:	c981                	beqz	a1,696 <GPIO_Init+0x1f4>
     688:	00461593          	slli	a1,a2,0x4
     68c:	f0f77713          	andi	a4,a4,-241
     690:	8f4d                	or	a4,a4,a1
     692:	4589                	li	a1,2
     694:	c90c                	sw	a1,16(a0)
     696:	0047f593          	andi	a1,a5,4
     69a:	c991                	beqz	a1,6ae <GPIO_Init+0x20c>
     69c:	75fd                	lui	a1,0xfffff
     69e:	0ff58593          	addi	a1,a1,255 # fffff0ff <_eusrstack+0xdfff70ff>
     6a2:	8f6d                	and	a4,a4,a1
     6a4:	00861593          	slli	a1,a2,0x8
     6a8:	8f4d                	or	a4,a4,a1
     6aa:	4591                	li	a1,4
     6ac:	c90c                	sw	a1,16(a0)
     6ae:	0087f593          	andi	a1,a5,8
     6b2:	c989                	beqz	a1,6c4 <GPIO_Init+0x222>
     6b4:	75c5                	lui	a1,0xffff1
     6b6:	15fd                	addi	a1,a1,-1
     6b8:	8f6d                	and	a4,a4,a1
     6ba:	00c61593          	slli	a1,a2,0xc
     6be:	8f4d                	or	a4,a4,a1
     6c0:	45a1                	li	a1,8
     6c2:	c90c                	sw	a1,16(a0)
     6c4:	0107f593          	andi	a1,a5,16
     6c8:	c991                	beqz	a1,6dc <GPIO_Init+0x23a>
     6ca:	fff105b7          	lui	a1,0xfff10
     6ce:	15fd                	addi	a1,a1,-1
     6d0:	8f6d                	and	a4,a4,a1
     6d2:	01061593          	slli	a1,a2,0x10
     6d6:	8f4d                	or	a4,a4,a1
     6d8:	45c1                	li	a1,16
     6da:	c90c                	sw	a1,16(a0)
     6dc:	0207f593          	andi	a1,a5,32
     6e0:	c999                	beqz	a1,6f6 <GPIO_Init+0x254>
     6e2:	ff1005b7          	lui	a1,0xff100
     6e6:	15fd                	addi	a1,a1,-1
     6e8:	8f6d                	and	a4,a4,a1
     6ea:	01461593          	slli	a1,a2,0x14
     6ee:	8f4d                	or	a4,a4,a1
     6f0:	02000593          	li	a1,32
     6f4:	c90c                	sw	a1,16(a0)
     6f6:	0407f593          	andi	a1,a5,64
     6fa:	c999                	beqz	a1,710 <GPIO_Init+0x26e>
     6fc:	f10005b7          	lui	a1,0xf1000
     700:	15fd                	addi	a1,a1,-1
     702:	8f6d                	and	a4,a4,a1
     704:	01861593          	slli	a1,a2,0x18
     708:	8f4d                	or	a4,a4,a1
     70a:	04000593          	li	a1,64
     70e:	c90c                	sw	a1,16(a0)
     710:	0807f593          	andi	a1,a5,128
     714:	de058ce3          	beqz	a1,50c <GPIO_Init+0x6a>
     718:	0712                	slli	a4,a4,0x4
     71a:	01c61593          	slli	a1,a2,0x1c
     71e:	8311                	srli	a4,a4,0x4
     720:	8f4d                	or	a4,a4,a1
     722:	08000593          	li	a1,128
     726:	c90c                	sw	a1,16(a0)
     728:	c118                	sw	a4,0(a0)
     72a:	b3d5                	j	50e <GPIO_Init+0x6c>
     72c:	1007f693          	andi	a3,a5,256
     730:	c691                	beqz	a3,73c <GPIO_Init+0x29a>
     732:	9b41                	andi	a4,a4,-16
     734:	10000693          	li	a3,256
     738:	8f51                	or	a4,a4,a2
     73a:	c954                	sw	a3,20(a0)
     73c:	2007f693          	andi	a3,a5,512
     740:	ca89                	beqz	a3,752 <GPIO_Init+0x2b0>
     742:	00461693          	slli	a3,a2,0x4
     746:	f0f77713          	andi	a4,a4,-241
     74a:	8f55                	or	a4,a4,a3
     74c:	20000693          	li	a3,512
     750:	c954                	sw	a3,20(a0)
     752:	4007f693          	andi	a3,a5,1024
     756:	ca99                	beqz	a3,76c <GPIO_Init+0x2ca>
     758:	76fd                	lui	a3,0xfffff
     75a:	0ff68693          	addi	a3,a3,255 # fffff0ff <_eusrstack+0xdfff70ff>
     75e:	8f75                	and	a4,a4,a3
     760:	00861693          	slli	a3,a2,0x8
     764:	8f55                	or	a4,a4,a3
     766:	40000693          	li	a3,1024
     76a:	c954                	sw	a3,20(a0)
     76c:	6685                	lui	a3,0x1
     76e:	80068693          	addi	a3,a3,-2048 # 800 <__stack_size>
     772:	00d7f5b3          	and	a1,a5,a3
     776:	c981                	beqz	a1,786 <GPIO_Init+0x2e4>
     778:	75c5                	lui	a1,0xffff1
     77a:	15fd                	addi	a1,a1,-1
     77c:	8f6d                	and	a4,a4,a1
     77e:	00c61593          	slli	a1,a2,0xc
     782:	8f4d                	or	a4,a4,a1
     784:	c954                	sw	a3,20(a0)
     786:	01379693          	slli	a3,a5,0x13
     78a:	0006db63          	bgez	a3,7a0 <GPIO_Init+0x2fe>
     78e:	fff106b7          	lui	a3,0xfff10
     792:	16fd                	addi	a3,a3,-1
     794:	8f75                	and	a4,a4,a3
     796:	01061693          	slli	a3,a2,0x10
     79a:	8f55                	or	a4,a4,a3
     79c:	6685                	lui	a3,0x1
     79e:	c954                	sw	a3,20(a0)
     7a0:	01279693          	slli	a3,a5,0x12
     7a4:	0006db63          	bgez	a3,7ba <GPIO_Init+0x318>
     7a8:	ff1006b7          	lui	a3,0xff100
     7ac:	16fd                	addi	a3,a3,-1
     7ae:	8f75                	and	a4,a4,a3
     7b0:	01461693          	slli	a3,a2,0x14
     7b4:	8f55                	or	a4,a4,a3
     7b6:	6689                	lui	a3,0x2
     7b8:	c954                	sw	a3,20(a0)
     7ba:	01179693          	slli	a3,a5,0x11
     7be:	0006db63          	bgez	a3,7d4 <GPIO_Init+0x332>
     7c2:	f10006b7          	lui	a3,0xf1000
     7c6:	16fd                	addi	a3,a3,-1
     7c8:	8f75                	and	a4,a4,a3
     7ca:	01861693          	slli	a3,a2,0x18
     7ce:	8f55                	or	a4,a4,a3
     7d0:	6691                	lui	a3,0x4
     7d2:	c954                	sw	a3,20(a0)
     7d4:	07c2                	slli	a5,a5,0x10
     7d6:	87c1                	srai	a5,a5,0x10
     7d8:	de07dce3          	bgez	a5,5d0 <GPIO_Init+0x12e>
     7dc:	0712                	slli	a4,a4,0x4
     7de:	8311                	srli	a4,a4,0x4
     7e0:	0672                	slli	a2,a2,0x1c
     7e2:	67a1                	lui	a5,0x8
     7e4:	8f51                	or	a4,a4,a2
     7e6:	c95c                	sw	a5,20(a0)
     7e8:	c158                	sw	a4,4(a0)
     7ea:	b3e5                	j	5d2 <GPIO_Init+0x130>
     7ec:	9b41                	andi	a4,a4,-16
     7ee:	8f51                	or	a4,a4,a2
     7f0:	b1d5                	j	4d4 <GPIO_Init+0x32>
     7f2:	0712                	slli	a4,a4,0x4
     7f4:	8311                	srli	a4,a4,0x4
     7f6:	01c61593          	slli	a1,a2,0x1c
     7fa:	8f4d                	or	a4,a4,a1
     7fc:	c118                	sw	a4,0(a0)
     7fe:	bb01                	j	50e <GPIO_Init+0x6c>
     800:	f10005b7          	lui	a1,0xf1000
     804:	15fd                	addi	a1,a1,-1
     806:	8f6d                	and	a4,a4,a1
     808:	01861593          	slli	a1,a2,0x18
     80c:	8f4d                	or	a4,a4,a1
     80e:	b9dd                	j	504 <GPIO_Init+0x62>
     810:	f0f77713          	andi	a4,a4,-241
     814:	00461593          	slli	a1,a2,0x4
     818:	8f4d                	or	a4,a4,a1
     81a:	b1c9                	j	4dc <GPIO_Init+0x3a>
     81c:	ff1005b7          	lui	a1,0xff100
     820:	15fd                	addi	a1,a1,-1
     822:	8f6d                	and	a4,a4,a1
     824:	01461593          	slli	a1,a2,0x14
     828:	8f4d                	or	a4,a4,a1
     82a:	b9c9                	j	4fc <GPIO_Init+0x5a>
     82c:	fff105b7          	lui	a1,0xfff10
     830:	15fd                	addi	a1,a1,-1
     832:	8f6d                	and	a4,a4,a1
     834:	01061593          	slli	a1,a2,0x10
     838:	8f4d                	or	a4,a4,a1
     83a:	b96d                	j	4f4 <GPIO_Init+0x52>
     83c:	75c5                	lui	a1,0xffff1
     83e:	15fd                	addi	a1,a1,-1
     840:	8f6d                	and	a4,a4,a1
     842:	00c61593          	slli	a1,a2,0xc
     846:	8f4d                	or	a4,a4,a1
     848:	b155                	j	4ec <GPIO_Init+0x4a>
     84a:	75fd                	lui	a1,0xfffff
     84c:	0ff58593          	addi	a1,a1,255 # fffff0ff <_eusrstack+0xdfff70ff>
     850:	8f6d                	and	a4,a4,a1
     852:	00861593          	slli	a1,a2,0x8
     856:	8f4d                	or	a4,a4,a1
     858:	b171                	j	4e4 <GPIO_Init+0x42>
     85a:	0712                	slli	a4,a4,0x4
     85c:	8311                	srli	a4,a4,0x4
     85e:	0672                	slli	a2,a2,0x1c
     860:	67a1                	lui	a5,0x8
     862:	8f51                	or	a4,a4,a2
     864:	c91c                	sw	a5,16(a0)
     866:	c158                	sw	a4,4(a0)
     868:	b3ad                	j	5d2 <GPIO_Init+0x130>
     86a:	0017f593          	andi	a1,a5,1
     86e:	c589                	beqz	a1,878 <__stack_size+0x78>
     870:	9b41                	andi	a4,a4,-16
     872:	4585                	li	a1,1
     874:	8f51                	or	a4,a4,a2
     876:	c94c                	sw	a1,20(a0)
     878:	0027f593          	andi	a1,a5,2
     87c:	c981                	beqz	a1,88c <__stack_size+0x8c>
     87e:	00461593          	slli	a1,a2,0x4
     882:	f0f77713          	andi	a4,a4,-241
     886:	8f4d                	or	a4,a4,a1
     888:	4589                	li	a1,2
     88a:	c94c                	sw	a1,20(a0)
     88c:	0047f593          	andi	a1,a5,4
     890:	c991                	beqz	a1,8a4 <__stack_size+0xa4>
     892:	75fd                	lui	a1,0xfffff
     894:	0ff58593          	addi	a1,a1,255 # fffff0ff <_eusrstack+0xdfff70ff>
     898:	8f6d                	and	a4,a4,a1
     89a:	00861593          	slli	a1,a2,0x8
     89e:	8f4d                	or	a4,a4,a1
     8a0:	4591                	li	a1,4
     8a2:	c94c                	sw	a1,20(a0)
     8a4:	0087f593          	andi	a1,a5,8
     8a8:	c989                	beqz	a1,8ba <__stack_size+0xba>
     8aa:	75c5                	lui	a1,0xffff1
     8ac:	15fd                	addi	a1,a1,-1
     8ae:	8f6d                	and	a4,a4,a1
     8b0:	00c61593          	slli	a1,a2,0xc
     8b4:	8f4d                	or	a4,a4,a1
     8b6:	45a1                	li	a1,8
     8b8:	c94c                	sw	a1,20(a0)
     8ba:	0107f593          	andi	a1,a5,16
     8be:	c991                	beqz	a1,8d2 <__stack_size+0xd2>
     8c0:	fff105b7          	lui	a1,0xfff10
     8c4:	15fd                	addi	a1,a1,-1
     8c6:	8f6d                	and	a4,a4,a1
     8c8:	01061593          	slli	a1,a2,0x10
     8cc:	8f4d                	or	a4,a4,a1
     8ce:	45c1                	li	a1,16
     8d0:	c94c                	sw	a1,20(a0)
     8d2:	0207f593          	andi	a1,a5,32
     8d6:	c999                	beqz	a1,8ec <__stack_size+0xec>
     8d8:	ff1005b7          	lui	a1,0xff100
     8dc:	15fd                	addi	a1,a1,-1
     8de:	8f6d                	and	a4,a4,a1
     8e0:	01461593          	slli	a1,a2,0x14
     8e4:	8f4d                	or	a4,a4,a1
     8e6:	02000593          	li	a1,32
     8ea:	c94c                	sw	a1,20(a0)
     8ec:	0407f593          	andi	a1,a5,64
     8f0:	c999                	beqz	a1,906 <__stack_size+0x106>
     8f2:	f10005b7          	lui	a1,0xf1000
     8f6:	15fd                	addi	a1,a1,-1
     8f8:	8f6d                	and	a4,a4,a1
     8fa:	01861593          	slli	a1,a2,0x18
     8fe:	8f4d                	or	a4,a4,a1
     900:	04000593          	li	a1,64
     904:	c94c                	sw	a1,20(a0)
     906:	0807f593          	andi	a1,a5,128
     90a:	c00581e3          	beqz	a1,50c <GPIO_Init+0x6a>
     90e:	0712                	slli	a4,a4,0x4
     910:	01c61593          	slli	a1,a2,0x1c
     914:	8311                	srli	a4,a4,0x4
     916:	8f4d                	or	a4,a4,a1
     918:	08000593          	li	a1,128
     91c:	c94c                	sw	a1,20(a0)
     91e:	c118                	sw	a4,0(a0)
     920:	b6fd                	j	50e <GPIO_Init+0x6c>

00000922 <NVIC_PriorityGroupConfig>:
     922:	80a1ac23          	sw	a0,-2024(gp) # 20000088 <_edata>
     926:	8082                	ret

00000928 <NVIC_Init>:
     928:	81818793          	addi	a5,gp,-2024 # 20000088 <_edata>
     92c:	4398                	lw	a4,0(a5)
     92e:	2114                	lbu	a3,0(a0)
     930:	e329                	bnez	a4,972 <NVIC_Init+0x4a>
     932:	213c                	lbu	a5,2(a0)
     934:	e000e737          	lui	a4,0xe000e
     938:	0792                	slli	a5,a5,0x4
     93a:	9736                	add	a4,a4,a3
     93c:	0ff7f793          	andi	a5,a5,255
     940:	40f70023          	sb	a5,1024(a4) # e000e400 <_eusrstack+0xc0006400>
     944:	4150                	lw	a2,4(a0)
     946:	4705                	li	a4,1
     948:	0056d793          	srli	a5,a3,0x5
     94c:	00d71733          	sll	a4,a4,a3
     950:	ca09                	beqz	a2,962 <NVIC_Init+0x3a>
     952:	04078793          	addi	a5,a5,64 # 8040 <_data_lma+0x4058>
     956:	078a                	slli	a5,a5,0x2
     958:	e000e6b7          	lui	a3,0xe000e
     95c:	97b6                	add	a5,a5,a3
     95e:	c398                	sw	a4,0(a5)
     960:	8082                	ret
     962:	06078793          	addi	a5,a5,96
     966:	078a                	slli	a5,a5,0x2
     968:	e000e6b7          	lui	a3,0xe000e
     96c:	97b6                	add	a5,a5,a3
     96e:	c398                	sw	a4,0(a5)
     970:	8082                	ret
     972:	4398                	lw	a4,0(a5)
     974:	4605                	li	a2,1
     976:	02c70863          	beq	a4,a2,9a6 <NVIC_Init+0x7e>
     97a:	438c                	lw	a1,0(a5)
     97c:	4709                	li	a4,2
     97e:	04e58163          	beq	a1,a4,9c0 <NVIC_Init+0x98>
     982:	4398                	lw	a4,0(a5)
     984:	460d                	li	a2,3
     986:	00c70863          	beq	a4,a2,996 <NVIC_Init+0x6e>
     98a:	4398                	lw	a4,0(a5)
     98c:	4791                	li	a5,4
     98e:	faf71be3          	bne	a4,a5,944 <NVIC_Init+0x1c>
     992:	311c                	lbu	a5,1(a0)
     994:	b745                	j	934 <NVIC_Init+0xc>
     996:	3110                	lbu	a2,1(a0)
     998:	213c                	lbu	a5,2(a0)
     99a:	04c76863          	bltu	a4,a2,9ea <NVIC_Init+0xc2>
     99e:	0606                	slli	a2,a2,0x1
     9a0:	97b2                	add	a5,a5,a2
     9a2:	0792                	slli	a5,a5,0x4
     9a4:	a031                	j	9b0 <NVIC_Init+0x88>
     9a6:	213c                	lbu	a5,2(a0)
     9a8:	3110                	lbu	a2,1(a0)
     9aa:	0792                	slli	a5,a5,0x4
     9ac:	02e60563          	beq	a2,a4,9d6 <NVIC_Init+0xae>
     9b0:	e000e737          	lui	a4,0xe000e
     9b4:	0ff7f793          	andi	a5,a5,255
     9b8:	9736                	add	a4,a4,a3
     9ba:	40f70023          	sb	a5,1024(a4) # e000e400 <_eusrstack+0xc0006400>
     9be:	b759                	j	944 <NVIC_Init+0x1c>
     9c0:	3118                	lbu	a4,1(a0)
     9c2:	213c                	lbu	a5,2(a0)
     9c4:	02e67863          	bgeu	a2,a4,9f4 <NVIC_Init+0xcc>
     9c8:	03e70713          	addi	a4,a4,62
     9cc:	070a                	slli	a4,a4,0x2
     9ce:	97ba                	add	a5,a5,a4
     9d0:	0ff7f793          	andi	a5,a5,255
     9d4:	0792                	slli	a5,a5,0x4
     9d6:	f807e793          	ori	a5,a5,-128
     9da:	e000e737          	lui	a4,0xe000e
     9de:	0ff7f793          	andi	a5,a5,255
     9e2:	9736                	add	a4,a4,a3
     9e4:	40f70023          	sb	a5,1024(a4) # e000e400 <_eusrstack+0xc0006400>
     9e8:	bfb1                	j	944 <NVIC_Init+0x1c>
     9ea:	07c60613          	addi	a2,a2,124 # 4002107c <_eusrstack+0x2001907c>
     9ee:	0606                	slli	a2,a2,0x1
     9f0:	97b2                	add	a5,a5,a2
     9f2:	bff9                	j	9d0 <NVIC_Init+0xa8>
     9f4:	070a                	slli	a4,a4,0x2
     9f6:	97ba                	add	a5,a5,a4
     9f8:	0792                	slli	a5,a5,0x4
     9fa:	bf5d                	j	9b0 <NVIC_Init+0x88>

000009fc <RCC_GetClocksFreq>:
     9fc:	40021737          	lui	a4,0x40021
     a00:	435c                	lw	a5,4(a4)
     a02:	4691                	li	a3,4
     a04:	8bb1                	andi	a5,a5,12
     a06:	00d78563          	beq	a5,a3,a10 <RCC_GetClocksFreq+0x14>
     a0a:	46a1                	li	a3,8
     a0c:	06d78163          	beq	a5,a3,a6e <RCC_GetClocksFreq+0x72>
     a10:	007a17b7          	lui	a5,0x7a1
     a14:	20078793          	addi	a5,a5,512 # 7a1200 <_data_lma+0x79d218>
     a18:	c11c                	sw	a5,0(a0)
     a1a:	40021637          	lui	a2,0x40021
     a1e:	4254                	lw	a3,4(a2)
     a20:	20000737          	lui	a4,0x20000
     a24:	00070713          	mv	a4,a4
     a28:	8291                	srli	a3,a3,0x4
     a2a:	8abd                	andi	a3,a3,15
     a2c:	96ba                	add	a3,a3,a4
     a2e:	2294                	lbu	a3,0(a3)
     a30:	00d7d7b3          	srl	a5,a5,a3
     a34:	c15c                	sw	a5,4(a0)
     a36:	4254                	lw	a3,4(a2)
     a38:	82a1                	srli	a3,a3,0x8
     a3a:	8a9d                	andi	a3,a3,7
     a3c:	96ba                	add	a3,a3,a4
     a3e:	2294                	lbu	a3,0(a3)
     a40:	00d7d6b3          	srl	a3,a5,a3
     a44:	c514                	sw	a3,8(a0)
     a46:	4254                	lw	a3,4(a2)
     a48:	82ad                	srli	a3,a3,0xb
     a4a:	8a9d                	andi	a3,a3,7
     a4c:	9736                	add	a4,a4,a3
     a4e:	2318                	lbu	a4,0(a4)
     a50:	00e7d7b3          	srl	a5,a5,a4
     a54:	c55c                	sw	a5,12(a0)
     a56:	4258                	lw	a4,4(a2)
     a58:	8339                	srli	a4,a4,0xe
     a5a:	00377693          	andi	a3,a4,3
     a5e:	80418713          	addi	a4,gp,-2044 # 20000074 <ADCPrescTable>
     a62:	9736                	add	a4,a4,a3
     a64:	2318                	lbu	a4,0(a4)
     a66:	02e7d7b3          	divu	a5,a5,a4
     a6a:	c91c                	sw	a5,16(a0)
     a6c:	8082                	ret
     a6e:	435c                	lw	a5,4(a4)
     a70:	1ffff6b7          	lui	a3,0x1ffff
     a74:	4358                	lw	a4,4(a4)
     a76:	70c6a683          	lw	a3,1804(a3) # 1ffff70c <_data_lma+0x1fffb724>
     a7a:	6641                	lui	a2,0x10
     a7c:	83c9                	srli	a5,a5,0x12
     a7e:	8bbd                	andi	a5,a5,15
     a80:	8f71                	and	a4,a4,a2
     a82:	01169613          	slli	a2,a3,0x11
     a86:	0789                	addi	a5,a5,2
     a88:	02065f63          	bgez	a2,ac6 <RCC_GetClocksFreq+0xca>
     a8c:	4689                	li	a3,2
     a8e:	0cd78963          	beq	a5,a3,b60 <RCC_GetClocksFreq+0x164>
     a92:	46bd                	li	a3,15
     a94:	0cd78963          	beq	a5,a3,b66 <RCC_GetClocksFreq+0x16a>
     a98:	46c1                	li	a3,16
     a9a:	0ad79d63          	bne	a5,a3,b54 <RCC_GetClocksFreq+0x158>
     a9e:	4681                	li	a3,0
     aa0:	47bd                	li	a5,15
     aa2:	eb05                	bnez	a4,ad2 <RCC_GetClocksFreq+0xd6>
     aa4:	40024737          	lui	a4,0x40024
     aa8:	80072703          	lw	a4,-2048(a4) # 40023800 <_eusrstack+0x2001b800>
     aac:	8b41                	andi	a4,a4,16
     aae:	cb2d                	beqz	a4,b20 <RCC_GetClocksFreq+0x124>
     ab0:	007a1737          	lui	a4,0x7a1
     ab4:	20070713          	addi	a4,a4,512 # 7a1200 <_data_lma+0x79d218>
     ab8:	02e787b3          	mul	a5,a5,a4
     abc:	c11c                	sw	a5,0(a0)
     abe:	deb1                	beqz	a3,a1a <RCC_GetClocksFreq+0x1e>
     ac0:	8385                	srli	a5,a5,0x1
     ac2:	c11c                	sw	a5,0(a0)
     ac4:	bf99                	j	a1a <RCC_GetClocksFreq+0x1e>
     ac6:	4645                	li	a2,17
     ac8:	4681                	li	a3,0
     aca:	fcc79ce3          	bne	a5,a2,aa2 <RCC_GetClocksFreq+0xa6>
     ace:	47c9                	li	a5,18
     ad0:	db71                	beqz	a4,aa4 <RCC_GetClocksFreq+0xa8>
     ad2:	400215b7          	lui	a1,0x40021
     ad6:	55d8                	lw	a4,44(a1)
     ad8:	00f71613          	slli	a2,a4,0xf
     adc:	55d8                	lw	a4,44(a1)
     ade:	04065963          	bgez	a2,b30 <RCC_GetClocksFreq+0x134>
     ae2:	8311                	srli	a4,a4,0x4
     ae4:	8b3d                	andi	a4,a4,15
     ae6:	007a1637          	lui	a2,0x7a1
     aea:	0705                	addi	a4,a4,1
     aec:	20060613          	addi	a2,a2,512 # 7a1200 <_data_lma+0x79d218>
     af0:	02e65633          	divu	a2,a2,a4
     af4:	c110                	sw	a2,0(a0)
     af6:	55d8                	lw	a4,44(a1)
     af8:	8321                	srli	a4,a4,0x8
     afa:	8b3d                	andi	a4,a4,15
     afc:	c739                	beqz	a4,b4a <RCC_GetClocksFreq+0x14e>
     afe:	4585                	li	a1,1
     b00:	06b70663          	beq	a4,a1,b6c <RCC_GetClocksFreq+0x170>
     b04:	45bd                	li	a1,15
     b06:	06b70a63          	beq	a4,a1,b7a <RCC_GetClocksFreq+0x17e>
     b0a:	0709                	addi	a4,a4,2
     b0c:	02c70733          	mul	a4,a4,a2
     b10:	40021637          	lui	a2,0x40021
     b14:	5650                	lw	a2,44(a2)
     b16:	8a3d                	andi	a2,a2,15
     b18:	0605                	addi	a2,a2,1
     b1a:	02c75733          	divu	a4,a4,a2
     b1e:	a015                	j	b42 <RCC_GetClocksFreq+0x146>
     b20:	003d1737          	lui	a4,0x3d1
     b24:	90070713          	addi	a4,a4,-1792 # 3d0900 <_data_lma+0x3cc918>
     b28:	02e787b3          	mul	a5,a5,a4
     b2c:	c11c                	sw	a5,0(a0)
     b2e:	bf41                	j	abe <RCC_GetClocksFreq+0xc2>
     b30:	8b3d                	andi	a4,a4,15
     b32:	00170613          	addi	a2,a4,1
     b36:	007a1737          	lui	a4,0x7a1
     b3a:	20070713          	addi	a4,a4,512 # 7a1200 <_data_lma+0x79d218>
     b3e:	02c75733          	divu	a4,a4,a2
     b42:	02e787b3          	mul	a5,a5,a4
     b46:	c11c                	sw	a5,0(a0)
     b48:	bf9d                	j	abe <RCC_GetClocksFreq+0xc2>
     b4a:	00261713          	slli	a4,a2,0x2
     b4e:	9732                	add	a4,a4,a2
     b50:	8305                	srli	a4,a4,0x1
     b52:	bf7d                	j	b10 <RCC_GetClocksFreq+0x114>
     b54:	46c5                	li	a3,17
     b56:	02d79763          	bne	a5,a3,b84 <RCC_GetClocksFreq+0x188>
     b5a:	4681                	li	a3,0
     b5c:	47c1                	li	a5,16
     b5e:	b791                	j	aa2 <RCC_GetClocksFreq+0xa6>
     b60:	4681                	li	a3,0
     b62:	47c9                	li	a5,18
     b64:	b7b5                	j	ad0 <RCC_GetClocksFreq+0xd4>
     b66:	4685                	li	a3,1
     b68:	47b5                	li	a5,13
     b6a:	bf25                	j	aa2 <RCC_GetClocksFreq+0xa6>
     b6c:	00161713          	slli	a4,a2,0x1
     b70:	9732                	add	a4,a4,a2
     b72:	070e                	slli	a4,a4,0x3
     b74:	9732                	add	a4,a4,a2
     b76:	8305                	srli	a4,a4,0x1
     b78:	bf61                	j	b10 <RCC_GetClocksFreq+0x114>
     b7a:	00261713          	slli	a4,a2,0x2
     b7e:	9732                	add	a4,a4,a2
     b80:	070a                	slli	a4,a4,0x2
     b82:	b779                	j	b10 <RCC_GetClocksFreq+0x114>
     b84:	4681                	li	a3,0
     b86:	bf31                	j	aa2 <RCC_GetClocksFreq+0xa6>

00000b88 <RCC_APB2PeriphClockCmd>:
     b88:	c599                	beqz	a1,b96 <RCC_APB2PeriphClockCmd+0xe>
     b8a:	40021737          	lui	a4,0x40021
     b8e:	4f1c                	lw	a5,24(a4)
     b90:	8d5d                	or	a0,a0,a5
     b92:	cf08                	sw	a0,24(a4)
     b94:	8082                	ret
     b96:	400217b7          	lui	a5,0x40021
     b9a:	4f98                	lw	a4,24(a5)
     b9c:	fff54513          	not	a0,a0
     ba0:	8d79                	and	a0,a0,a4
     ba2:	cf88                	sw	a0,24(a5)
     ba4:	8082                	ret

00000ba6 <RCC_APB1PeriphClockCmd>:
     ba6:	c599                	beqz	a1,bb4 <RCC_APB1PeriphClockCmd+0xe>
     ba8:	40021737          	lui	a4,0x40021
     bac:	4f5c                	lw	a5,28(a4)
     bae:	8d5d                	or	a0,a0,a5
     bb0:	cf48                	sw	a0,28(a4)
     bb2:	8082                	ret
     bb4:	400217b7          	lui	a5,0x40021
     bb8:	4fd8                	lw	a4,28(a5)
     bba:	fff54513          	not	a0,a0
     bbe:	8d79                	and	a0,a0,a4
     bc0:	cfc8                	sw	a0,28(a5)
     bc2:	8082                	ret

00000bc4 <TIM_TimeBaseInit>:
     bc4:	211e                	lhu	a5,0(a0)
     bc6:	400136b7          	lui	a3,0x40013
     bca:	c0068713          	addi	a4,a3,-1024 # 40012c00 <_eusrstack+0x2000ac00>
     bce:	07c2                	slli	a5,a5,0x10
     bd0:	83c1                	srli	a5,a5,0x10
     bd2:	04e50063          	beq	a0,a4,c12 <TIM_TimeBaseInit+0x4e>
     bd6:	40000737          	lui	a4,0x40000
     bda:	02e50c63          	beq	a0,a4,c12 <TIM_TimeBaseInit+0x4e>
     bde:	40070713          	addi	a4,a4,1024 # 40000400 <_eusrstack+0x1fff8400>
     be2:	02e50863          	beq	a0,a4,c12 <TIM_TimeBaseInit+0x4e>
     be6:	40001737          	lui	a4,0x40001
     bea:	80070613          	addi	a2,a4,-2048 # 40000800 <_eusrstack+0x1fff8800>
     bee:	02c50263          	beq	a0,a2,c12 <TIM_TimeBaseInit+0x4e>
     bf2:	c0070713          	addi	a4,a4,-1024
     bf6:	00e50e63          	beq	a0,a4,c12 <TIM_TimeBaseInit+0x4e>
     bfa:	40068693          	addi	a3,a3,1024
     bfe:	00d50a63          	beq	a0,a3,c12 <TIM_TimeBaseInit+0x4e>
     c02:	40015737          	lui	a4,0x40015
     c06:	c0070693          	addi	a3,a4,-1024 # 40014c00 <_eusrstack+0x2000cc00>
     c0a:	00d50463          	beq	a0,a3,c12 <TIM_TimeBaseInit+0x4e>
     c0e:	00e51663          	bne	a0,a4,c1a <TIM_TimeBaseInit+0x56>
     c12:	21ba                	lhu	a4,2(a1)
     c14:	f8f7f793          	andi	a5,a5,-113
     c18:	8fd9                	or	a5,a5,a4
     c1a:	40001737          	lui	a4,0x40001
     c1e:	21d2                	lhu	a2,4(a1)
     c20:	2196                	lhu	a3,0(a1)
     c22:	02e50a63          	beq	a0,a4,c56 <TIM_TimeBaseInit+0x92>
     c26:	40070713          	addi	a4,a4,1024 # 40001400 <_eusrstack+0x1fff9400>
     c2a:	02e50663          	beq	a0,a4,c56 <TIM_TimeBaseInit+0x92>
     c2e:	21fa                	lhu	a4,6(a1)
     c30:	cff7f793          	andi	a5,a5,-769
     c34:	07c2                	slli	a5,a5,0x10
     c36:	83c1                	srli	a5,a5,0x10
     c38:	8fd9                	or	a5,a5,a4
     c3a:	a11e                	sh	a5,0(a0)
     c3c:	b552                	sh	a2,44(a0)
     c3e:	400137b7          	lui	a5,0x40013
     c42:	b516                	sh	a3,40(a0)
     c44:	c0078713          	addi	a4,a5,-1024 # 40012c00 <_eusrstack+0x2000ac00>
     c48:	00e51d63          	bne	a0,a4,c62 <TIM_TimeBaseInit+0x9e>
     c4c:	259c                	lbu	a5,8(a1)
     c4e:	b91e                	sh	a5,48(a0)
     c50:	4785                	li	a5,1
     c52:	a95e                	sh	a5,20(a0)
     c54:	8082                	ret
     c56:	a11e                	sh	a5,0(a0)
     c58:	b552                	sh	a2,44(a0)
     c5a:	b516                	sh	a3,40(a0)
     c5c:	4785                	li	a5,1
     c5e:	a95e                	sh	a5,20(a0)
     c60:	8082                	ret
     c62:	40078793          	addi	a5,a5,1024
     c66:	fef503e3          	beq	a0,a5,c4c <TIM_TimeBaseInit+0x88>
     c6a:	400157b7          	lui	a5,0x40015
     c6e:	c0078713          	addi	a4,a5,-1024 # 40014c00 <_eusrstack+0x2000cc00>
     c72:	fce50de3          	beq	a0,a4,c4c <TIM_TimeBaseInit+0x88>
     c76:	fcf50be3          	beq	a0,a5,c4c <TIM_TimeBaseInit+0x88>
     c7a:	b7cd                	j	c5c <TIM_TimeBaseInit+0x98>

00000c7c <TIM_Cmd>:
     c7c:	211e                	lhu	a5,0(a0)
     c7e:	c589                	beqz	a1,c88 <TIM_Cmd+0xc>
     c80:	0017e793          	ori	a5,a5,1
     c84:	a11e                	sh	a5,0(a0)
     c86:	8082                	ret
     c88:	07c2                	slli	a5,a5,0x10
     c8a:	83c1                	srli	a5,a5,0x10
     c8c:	9bf9                	andi	a5,a5,-2
     c8e:	07c2                	slli	a5,a5,0x10
     c90:	83c1                	srli	a5,a5,0x10
     c92:	a11e                	sh	a5,0(a0)
     c94:	8082                	ret

00000c96 <TIM_ITConfig>:
     c96:	255e                	lhu	a5,12(a0)
     c98:	c601                	beqz	a2,ca0 <TIM_ITConfig+0xa>
     c9a:	8ddd                	or	a1,a1,a5
     c9c:	a54e                	sh	a1,12(a0)
     c9e:	8082                	ret
     ca0:	fff5c593          	not	a1,a1
     ca4:	8dfd                	and	a1,a1,a5
     ca6:	a54e                	sh	a1,12(a0)
     ca8:	8082                	ret

00000caa <TIM_InternalClockConfig>:
     caa:	251e                	lhu	a5,8(a0)
     cac:	07c2                	slli	a5,a5,0x10
     cae:	83c1                	srli	a5,a5,0x10
     cb0:	9be1                	andi	a5,a5,-8
     cb2:	07c2                	slli	a5,a5,0x10
     cb4:	83c1                	srli	a5,a5,0x10
     cb6:	a51e                	sh	a5,8(a0)
     cb8:	8082                	ret

00000cba <TIM_CounterModeConfig>:
     cba:	211e                	lhu	a5,0(a0)
     cbc:	07c2                	slli	a5,a5,0x10
     cbe:	83c1                	srli	a5,a5,0x10
     cc0:	f8f7f793          	andi	a5,a5,-113
     cc4:	8ddd                	or	a1,a1,a5
     cc6:	a10e                	sh	a1,0(a0)
     cc8:	8082                	ret

00000cca <TIM_GetCounter>:
     cca:	314a                	lhu	a0,36(a0)
     ccc:	8082                	ret

00000cce <TIM_ClearFlag>:
     cce:	fff5c593          	not	a1,a1
     cd2:	05c2                	slli	a1,a1,0x10
     cd4:	81c1                	srli	a1,a1,0x10
     cd6:	a90e                	sh	a1,16(a0)
     cd8:	8082                	ret

00000cda <TIM_ClearITPendingBit>:
     cda:	fff5c593          	not	a1,a1
     cde:	05c2                	slli	a1,a1,0x10
     ce0:	81c1                	srli	a1,a1,0x10
     ce2:	a90e                	sh	a1,16(a0)
     ce4:	8082                	ret

00000ce6 <USART_Init>:
     ce6:	d4aff2ef          	jal	t0,230 <__riscv_save_0>
     cea:	2916                	lhu	a3,16(a0)
     cec:	21fa                	lhu	a4,6(a1)
     cee:	77f5                	lui	a5,0xffffd
     cf0:	17fd                	addi	a5,a5,-1
     cf2:	8ff5                	and	a5,a5,a3
     cf4:	8fd9                	or	a5,a5,a4
     cf6:	25da                	lhu	a4,12(a1)
     cf8:	a91e                	sh	a5,16(a0)
     cfa:	842a                	mv	s0,a0
     cfc:	254a                	lhu	a0,12(a0)
     cfe:	84ae                	mv	s1,a1
     d00:	77fd                	lui	a5,0xfffff
     d02:	21ce                	lhu	a1,4(a1)
     d04:	2492                	lhu	a2,8(s1)
     d06:	9f378793          	addi	a5,a5,-1549 # ffffe9f3 <_eusrstack+0xdfff69f3>
     d0a:	24b6                	lhu	a3,10(s1)
     d0c:	8fe9                	and	a5,a5,a0
     d0e:	8fcd                	or	a5,a5,a1
     d10:	8fd1                	or	a5,a5,a2
     d12:	8fd5                	or	a5,a5,a3
     d14:	a45e                	sh	a5,12(s0)
     d16:	285e                	lhu	a5,20(s0)
     d18:	1101                	addi	sp,sp,-32
     d1a:	0068                	addi	a0,sp,12
     d1c:	07c2                	slli	a5,a5,0x10
     d1e:	83c1                	srli	a5,a5,0x10
     d20:	cff7f793          	andi	a5,a5,-769
     d24:	8fd9                	or	a5,a5,a4
     d26:	a85e                	sh	a5,20(s0)
     d28:	39d1                	jal	9fc <RCC_GetClocksFreq>
     d2a:	400147b7          	lui	a5,0x40014
     d2e:	80078793          	addi	a5,a5,-2048 # 40013800 <_eusrstack+0x2000b800>
     d32:	08f40863          	beq	s0,a5,dc2 <USART_Init+0xdc>
     d36:	4752                	lw	a4,20(sp)
     d38:	2456                	lhu	a3,12(s0)
     d3a:	00171793          	slli	a5,a4,0x1
     d3e:	97ba                	add	a5,a5,a4
     d40:	06c2                	slli	a3,a3,0x10
     d42:	078e                	slli	a5,a5,0x3
     d44:	86c1                	srai	a3,a3,0x10
     d46:	97ba                	add	a5,a5,a4
     d48:	4098                	lw	a4,0(s1)
     d4a:	0206ce63          	bltz	a3,d86 <USART_Init+0xa0>
     d4e:	070a                	slli	a4,a4,0x2
     d50:	02e7d7b3          	divu	a5,a5,a4
     d54:	06400713          	li	a4,100
     d58:	2452                	lhu	a2,12(s0)
     d5a:	0642                	slli	a2,a2,0x10
     d5c:	8641                	srai	a2,a2,0x10
     d5e:	02e7d6b3          	divu	a3,a5,a4
     d62:	02e7f7b3          	remu	a5,a5,a4
     d66:	0692                	slli	a3,a3,0x4
     d68:	02064e63          	bltz	a2,da4 <USART_Init+0xbe>
     d6c:	0792                	slli	a5,a5,0x4
     d6e:	03278793          	addi	a5,a5,50
     d72:	02e7d7b3          	divu	a5,a5,a4
     d76:	8bbd                	andi	a5,a5,15
     d78:	8fd5                	or	a5,a5,a3
     d7a:	07c2                	slli	a5,a5,0x10
     d7c:	83c1                	srli	a5,a5,0x10
     d7e:	a41e                	sh	a5,8(s0)
     d80:	6105                	addi	sp,sp,32
     d82:	cd2ff06f          	j	254 <__riscv_restore_0>
     d86:	0706                	slli	a4,a4,0x1
     d88:	02e7d7b3          	divu	a5,a5,a4
     d8c:	06400713          	li	a4,100
     d90:	2452                	lhu	a2,12(s0)
     d92:	0642                	slli	a2,a2,0x10
     d94:	8641                	srai	a2,a2,0x10
     d96:	02e7d6b3          	divu	a3,a5,a4
     d9a:	02e7f7b3          	remu	a5,a5,a4
     d9e:	0692                	slli	a3,a3,0x4
     da0:	fc0656e3          	bgez	a2,d6c <USART_Init+0x86>
     da4:	078e                	slli	a5,a5,0x3
     da6:	03278793          	addi	a5,a5,50
     daa:	02e7d7b3          	divu	a5,a5,a4
     dae:	0077f713          	andi	a4,a5,7
     db2:	00d767b3          	or	a5,a4,a3
     db6:	07c2                	slli	a5,a5,0x10
     db8:	83c1                	srli	a5,a5,0x10
     dba:	a41e                	sh	a5,8(s0)
     dbc:	6105                	addi	sp,sp,32
     dbe:	c96ff06f          	j	254 <__riscv_restore_0>
     dc2:	4762                	lw	a4,24(sp)
     dc4:	bf95                	j	d38 <USART_Init+0x52>

00000dc6 <USART_Cmd>:
     dc6:	c591                	beqz	a1,dd2 <USART_Cmd+0xc>
     dc8:	255e                	lhu	a5,12(a0)
     dca:	6709                	lui	a4,0x2
     dcc:	8fd9                	or	a5,a5,a4
     dce:	a55e                	sh	a5,12(a0)
     dd0:	8082                	ret
     dd2:	255a                	lhu	a4,12(a0)
     dd4:	77f9                	lui	a5,0xffffe
     dd6:	17fd                	addi	a5,a5,-1
     dd8:	8ff9                	and	a5,a5,a4
     dda:	a55e                	sh	a5,12(a0)
     ddc:	8082                	ret

00000dde <USART_SendData>:
     dde:	1ff5f593          	andi	a1,a1,511
     de2:	a14e                	sh	a1,4(a0)
     de4:	8082                	ret

00000de6 <USART_GetFlagStatus>:
     de6:	210a                	lhu	a0,0(a0)
     de8:	8d6d                	and	a0,a0,a1
     dea:	00a03533          	snez	a0,a0
     dee:	8082                	ret

00000df0 <RMP_Clear>:
     df0:	c599                	beqz	a1,dfe <RMP_Clear+0xe>
     df2:	95aa                	add	a1,a1,a0
     df4:	00050023          	sb	zero,0(a0)
     df8:	0505                	addi	a0,a0,1
     dfa:	feb51de3          	bne	a0,a1,df4 <RMP_Clear+0x4>
     dfe:	8082                	ret

00000e00 <RMP_Int_Print>:
     e00:	c16ff2ef          	jal	t0,216 <__riscv_save_4>
     e04:	c145                	beqz	a0,ea4 <RMP_Int_Print+0xa4>
     e06:	84aa                	mv	s1,a0
     e08:	04054463          	bltz	a0,e50 <RMP_Int_Print+0x50>
     e0c:	872a                	mv	a4,a0
     e0e:	4405                	li	s0,1
     e10:	4901                	li	s2,0
     e12:	46a9                	li	a3,10
     e14:	a011                	j	e18 <RMP_Int_Print+0x18>
     e16:	843e                	mv	s0,a5
     e18:	02d74733          	div	a4,a4,a3
     e1c:	00241793          	slli	a5,s0,0x2
     e20:	97a2                	add	a5,a5,s0
     e22:	0786                	slli	a5,a5,0x1
     e24:	0905                	addi	s2,s2,1
     e26:	fb65                	bnez	a4,e16 <RMP_Int_Print+0x16>
     e28:	89ca                	mv	s3,s2
     e2a:	4a29                	li	s4,10
     e2c:	0284c533          	div	a0,s1,s0
     e30:	19fd                	addi	s3,s3,-1
     e32:	03050513          	addi	a0,a0,48
     e36:	0562                	slli	a0,a0,0x18
     e38:	8561                	srai	a0,a0,0x18
     e3a:	5b6010ef          	jal	ra,23f0 <RMP_Putchar>
     e3e:	0284e4b3          	rem	s1,s1,s0
     e42:	03444433          	div	s0,s0,s4
     e46:	fe0993e3          	bnez	s3,e2c <RMP_Int_Print+0x2c>
     e4a:	854a                	mv	a0,s2
     e4c:	bfeff06f          	j	24a <__riscv_restore_4>
     e50:	40a004b3          	neg	s1,a0
     e54:	8726                	mv	a4,s1
     e56:	4405                	li	s0,1
     e58:	4901                	li	s2,0
     e5a:	46a9                	li	a3,10
     e5c:	a019                	j	e62 <RMP_Int_Print+0x62>
     e5e:	843e                	mv	s0,a5
     e60:	894e                	mv	s2,s3
     e62:	02d74733          	div	a4,a4,a3
     e66:	00241793          	slli	a5,s0,0x2
     e6a:	97a2                	add	a5,a5,s0
     e6c:	00190993          	addi	s3,s2,1
     e70:	0786                	slli	a5,a5,0x1
     e72:	f775                	bnez	a4,e5e <RMP_Int_Print+0x5e>
     e74:	02d00513          	li	a0,45
     e78:	578010ef          	jal	ra,23f0 <RMP_Putchar>
     e7c:	0909                	addi	s2,s2,2
     e7e:	4a29                	li	s4,10
     e80:	0284c533          	div	a0,s1,s0
     e84:	19fd                	addi	s3,s3,-1
     e86:	03050513          	addi	a0,a0,48
     e8a:	0562                	slli	a0,a0,0x18
     e8c:	8561                	srai	a0,a0,0x18
     e8e:	562010ef          	jal	ra,23f0 <RMP_Putchar>
     e92:	0284e4b3          	rem	s1,s1,s0
     e96:	03444433          	div	s0,s0,s4
     e9a:	fe0993e3          	bnez	s3,e80 <RMP_Int_Print+0x80>
     e9e:	854a                	mv	a0,s2
     ea0:	baaff06f          	j	24a <__riscv_restore_4>
     ea4:	03000513          	li	a0,48
     ea8:	548010ef          	jal	ra,23f0 <RMP_Putchar>
     eac:	4905                	li	s2,1
     eae:	854a                	mv	a0,s2
     eb0:	b9aff06f          	j	24a <__riscv_restore_4>

00000eb4 <RMP_Str_Print>:
     eb4:	b7cff2ef          	jal	t0,230 <__riscv_save_0>
     eb8:	84aa                	mv	s1,a0
     eba:	4401                	li	s0,0
     ebc:	0ff00913          	li	s2,255
     ec0:	a031                	j	ecc <RMP_Str_Print+0x18>
     ec2:	0405                	addi	s0,s0,1
     ec4:	52c010ef          	jal	ra,23f0 <RMP_Putchar>
     ec8:	01240b63          	beq	s0,s2,ede <RMP_Str_Print+0x2a>
     ecc:	008487b3          	add	a5,s1,s0
     ed0:	00078783          	lb	a5,0(a5) # ffffe000 <_eusrstack+0xdfff6000>
     ed4:	853e                	mv	a0,a5
     ed6:	f7f5                	bnez	a5,ec2 <RMP_Str_Print+0xe>
     ed8:	8522                	mv	a0,s0
     eda:	b7aff06f          	j	254 <__riscv_restore_0>
     ede:	0ff00513          	li	a0,255
     ee2:	b72ff06f          	j	254 <__riscv_restore_0>

00000ee6 <RMP_Sched_Unlock>:
     ee6:	82c18793          	addi	a5,gp,-2004 # 2000009c <RMP_Sched_Lock_Cnt>
     eea:	4394                	lw	a3,0(a5)
     eec:	4705                	li	a4,1
     eee:	00e68a63          	beq	a3,a4,f02 <RMP_Sched_Unlock+0x1c>
     ef2:	4394                	lw	a3,0(a5)
     ef4:	00d77663          	bgeu	a4,a3,f00 <RMP_Sched_Unlock+0x1a>
     ef8:	4398                	lw	a4,0(a5)
     efa:	177d                	addi	a4,a4,-1
     efc:	c398                	sw	a4,0(a5)
     efe:	8082                	ret
     f00:	a001                	j	f00 <RMP_Sched_Unlock+0x1a>
     f02:	b2eff2ef          	jal	t0,230 <__riscv_save_0>
     f06:	0007a023          	sw	zero,0(a5)
     f0a:	8201a823          	sw	zero,-2000(gp) # 200000a0 <RMP_Sched_Locked>
     f0e:	83418793          	addi	a5,gp,-1996 # 200000a4 <RMP_Sched_Pend>
     f12:	4398                	lw	a4,0(a5)
     f14:	e709                	bnez	a4,f1e <RMP_Sched_Unlock+0x38>
     f16:	79d020ef          	jal	ra,3eb2 <RMP_Int_Enable>
     f1a:	b3aff06f          	j	254 <__riscv_restore_0>
     f1e:	0007a023          	sw	zero,0(a5)
     f22:	4da010ef          	jal	ra,23fc <_RMP_Yield>
     f26:	78d020ef          	jal	ra,3eb2 <RMP_Int_Enable>
     f2a:	b2aff06f          	j	254 <__riscv_restore_0>

00000f2e <RMP_Init>:
     f2e:	b02ff2ef          	jal	t0,230 <__riscv_save_0>
     f32:	77b020ef          	jal	ra,3eac <RMP_Int_Disable>
     f36:	4705                	li	a4,1
     f38:	82e1a823          	sw	a4,-2000(gp) # 200000a0 <RMP_Sched_Locked>
     f3c:	82c18793          	addi	a5,gp,-2004 # 2000009c <RMP_Sched_Lock_Cnt>
     f40:	4398                	lw	a4,0(a5)
     f42:	0705                	addi	a4,a4,1
     f44:	c398                	sw	a4,0(a5)
     f46:	4a0010ef          	jal	ra,23e6 <_RMP_Plat_Hook>
     f4a:	1f9010ef          	jal	ra,2942 <RMP_Init_Hook>
     f4e:	3f61                	jal	ee6 <RMP_Sched_Unlock>
     f50:	29f010ef          	jal	ra,29ee <RMP_Init_Idle>
     f54:	bff5                	j	f50 <RMP_Init+0x22>

00000f56 <RMP_Yield>:
     f56:	8301a783          	lw	a5,-2000(gp) # 200000a0 <RMP_Sched_Locked>
     f5a:	c789                	beqz	a5,f64 <RMP_Yield+0xe>
     f5c:	4705                	li	a4,1
     f5e:	82e1aa23          	sw	a4,-1996(gp) # 200000a4 <RMP_Sched_Pend>
     f62:	8082                	ret
     f64:	accff2ef          	jal	t0,230 <__riscv_save_0>
     f68:	494010ef          	jal	ra,23fc <_RMP_Yield>
     f6c:	ae8ff06f          	j	254 <__riscv_restore_0>

00000f70 <_RMP_Run_High>:
     f70:	ac0ff2ef          	jal	t0,230 <__riscv_save_0>
     f74:	82818493          	addi	s1,gp,-2008 # 20000098 <RMP_SP_Cur>
     f78:	83818413          	addi	s0,gp,-1992 # 200000a8 <RMP_Thd_Cur>
     f7c:	4018                	lw	a4,0(s0)
     f7e:	4094                	lw	a3,0(s1)
     f80:	db54                	sw	a3,52(a4)
     f82:	8201aa23          	sw	zero,-1996(gp) # 200000a4 <RMP_Sched_Pend>
     f86:	81c18793          	addi	a5,gp,-2020 # 2000008c <RMP_Bitmap>
     f8a:	4398                	lw	a4,0(a5)
     f8c:	c705                	beqz	a4,fb4 <_RMP_Run_High+0x44>
     f8e:	4388                	lw	a0,0(a5)
     f90:	729020ef          	jal	ra,3eb8 <RMP_MSB_Get>
     f94:	9c818793          	addi	a5,gp,-1592 # 20000238 <RMP_Run>
     f98:	050e                	slli	a0,a0,0x3
     f9a:	00a78733          	add	a4,a5,a0
     f9e:	4354                	lw	a3,4(a4)
     fa0:	4018                	lw	a4,0(s0)
     fa2:	00e68e63          	beq	a3,a4,fbe <_RMP_Run_High+0x4e>
     fa6:	4014                	lw	a3,0(s0)
     fa8:	4018                	lw	a4,0(s0)
     faa:	97aa                	add	a5,a5,a0
     fac:	4ed4                	lw	a3,28(a3)
     fae:	d314                	sw	a3,32(a4)
     fb0:	43dc                	lw	a5,4(a5)
     fb2:	c01c                	sw	a5,0(s0)
     fb4:	401c                	lw	a5,0(s0)
     fb6:	5bdc                	lw	a5,52(a5)
     fb8:	c09c                	sw	a5,0(s1)
     fba:	a9aff06f          	j	254 <__riscv_restore_0>
     fbe:	4018                	lw	a4,0(s0)
     fc0:	4318                	lw	a4,0(a4)
     fc2:	4014                	lw	a3,0(s0)
     fc4:	42d4                	lw	a3,4(a3)
     fc6:	c298                	sw	a4,0(a3)
     fc8:	c354                	sw	a3,4(a4)
     fca:	4014                	lw	a3,0(s0)
     fcc:	4018                	lw	a4,0(s0)
     fce:	5358                	lw	a4,36(a4)
     fd0:	070e                	slli	a4,a4,0x3
     fd2:	973e                	add	a4,a4,a5
     fd4:	4310                	lw	a2,0(a4)
     fd6:	4018                	lw	a4,0(s0)
     fd8:	5358                	lw	a4,36(a4)
     fda:	070e                	slli	a4,a4,0x3
     fdc:	973e                	add	a4,a4,a5
     fde:	c314                	sw	a3,0(a4)
     fe0:	c2d8                	sw	a4,4(a3)
     fe2:	c290                	sw	a2,0(a3)
     fe4:	c254                	sw	a3,4(a2)
     fe6:	4014                	lw	a3,0(s0)
     fe8:	4018                	lw	a4,0(s0)
     fea:	97aa                	add	a5,a5,a0
     fec:	4ed4                	lw	a3,28(a3)
     fee:	d314                	sw	a3,32(a4)
     ff0:	43dc                	lw	a5,4(a5)
     ff2:	c01c                	sw	a5,0(s0)
     ff4:	b7c1                	j	fb4 <_RMP_Run_High+0x44>

00000ff6 <_RMP_Tick_Handler>:
     ff6:	a20ff2ef          	jal	t0,216 <__riscv_save_4>
     ffa:	83c18613          	addi	a2,gp,-1988 # 200000ac <RMP_Tick>
     ffe:	421c                	lw	a5,0(a2)
    1000:	83818893          	addi	a7,gp,-1992 # 200000a8 <RMP_Thd_Cur>
    1004:	97aa                	add	a5,a5,a0
    1006:	c21c                	sw	a5,0(a2)
    1008:	0008a783          	lw	a5,0(a7)
    100c:	539c                	lw	a5,32(a5)
    100e:	0ea7f463          	bgeu	a5,a0,10f6 <_RMP_Tick_Handler+0x100>
    1012:	83418813          	addi	a6,gp,-1996 # 200000a4 <RMP_Sched_Pend>
    1016:	4785                	li	a5,1
    1018:	00f82023          	sw	a5,0(a6)
    101c:	82018693          	addi	a3,gp,-2016 # 20000090 <RMP_Delay>
    1020:	42dc                	lw	a5,4(a3)
    1022:	00d78963          	beq	a5,a3,1034 <_RMP_Tick_Handler+0x3e>
    1026:	42d8                	lw	a4,4(a3)
    1028:	421c                	lw	a5,0(a2)
    102a:	1761                	addi	a4,a4,-8
    102c:	5718                	lw	a4,40(a4)
    102e:	8f99                	sub	a5,a5,a4
    1030:	0007d763          	bgez	a5,103e <_RMP_Tick_Handler+0x48>
    1034:	00082783          	lw	a5,0(a6)
    1038:	ebe1                	bnez	a5,1108 <_RMP_Tick_Handler+0x112>
    103a:	a10ff06f          	j	24a <__riscv_restore_4>
    103e:	440d                	li	s0,3
    1040:	536d                	li	t1,-5
    1042:	43a1                	li	t2,8
    1044:	4295                	li	t0,5
    1046:	4f99                	li	t6,6
    1048:	9c818513          	addi	a0,gp,-1592 # 20000238 <RMP_Run>
    104c:	81c18e13          	addi	t3,gp,-2020 # 2000008c <RMP_Bitmap>
    1050:	4f05                	li	t5,1
    1052:	4e85                	li	t4,1
    1054:	42dc                	lw	a5,4(a3)
    1056:	fcd78fe3          	beq	a5,a3,1034 <_RMP_Tick_Handler+0x3e>
    105a:	42cc                	lw	a1,4(a3)
    105c:	4218                	lw	a4,0(a2)
    105e:	ff858793          	addi	a5,a1,-8 # 40020ff8 <_eusrstack+0x20018ff8>
    1062:	5784                	lw	s1,40(a5)
    1064:	8f05                	sub	a4,a4,s1
    1066:	fc0747e3          	bltz	a4,1034 <_RMP_Tick_Handler+0x3e>
    106a:	4798                	lw	a4,8(a5)
    106c:	47c4                	lw	s1,12(a5)
    106e:	c098                	sw	a4,0(s1)
    1070:	c344                	sw	s1,4(a4)
    1072:	4f98                	lw	a4,24(a5)
    1074:	0ff77713          	andi	a4,a4,255
    1078:	06870463          	beq	a4,s0,10e0 <_RMP_Tick_Handler+0xea>
    107c:	06770263          	beq	a4,t2,10e0 <_RMP_Tick_Handler+0xea>
    1080:	06570863          	beq	a4,t0,10f0 <_RMP_Tick_Handler+0xfa>
    1084:	09f71863          	bne	a4,t6,1114 <_RMP_Tick_Handler+0x11e>
    1088:	4f98                	lw	a4,24(a5)
    108a:	f0077713          	andi	a4,a4,-256
    108e:	00176713          	ori	a4,a4,1
    1092:	cf98                	sw	a4,24(a5)
    1094:	4f98                	lw	a4,24(a5)
    1096:	10077713          	andi	a4,a4,256
    109a:	ff4d                	bnez	a4,1054 <_RMP_Tick_Handler+0x5e>
    109c:	53d8                	lw	a4,36(a5)
    109e:	070e                	slli	a4,a4,0x3
    10a0:	972a                	add	a4,a4,a0
    10a2:	4304                	lw	s1,0(a4)
    10a4:	53d8                	lw	a4,36(a5)
    10a6:	070e                	slli	a4,a4,0x3
    10a8:	972a                	add	a4,a4,a0
    10aa:	c31c                	sw	a5,0(a4)
    10ac:	c3d8                	sw	a4,4(a5)
    10ae:	fe95ac23          	sw	s1,-8(a1)
    10b2:	c0dc                	sw	a5,4(s1)
    10b4:	53cc                	lw	a1,36(a5)
    10b6:	53d8                	lw	a4,36(a5)
    10b8:	00bf15b3          	sll	a1,t5,a1
    10bc:	8315                	srli	a4,a4,0x5
    10be:	070a                	slli	a4,a4,0x2
    10c0:	9772                	add	a4,a4,t3
    10c2:	4304                	lw	s1,0(a4)
    10c4:	8dc5                	or	a1,a1,s1
    10c6:	c30c                	sw	a1,0(a4)
    10c8:	53d8                	lw	a4,36(a5)
    10ca:	0008a783          	lw	a5,0(a7)
    10ce:	53dc                	lw	a5,36(a5)
    10d0:	f8e7f2e3          	bgeu	a5,a4,1054 <_RMP_Tick_Handler+0x5e>
    10d4:	01d82023          	sw	t4,0(a6)
    10d8:	42dc                	lw	a5,4(a3)
    10da:	f8d790e3          	bne	a5,a3,105a <_RMP_Tick_Handler+0x64>
    10de:	bf99                	j	1034 <_RMP_Tick_Handler+0x3e>
    10e0:	ff85a703          	lw	a4,-8(a1)
    10e4:	43c4                	lw	s1,4(a5)
    10e6:	c098                	sw	a4,0(s1)
    10e8:	c344                	sw	s1,4(a4)
    10ea:	0267ac23          	sw	t1,56(a5)
    10ee:	bf69                	j	1088 <_RMP_Tick_Handler+0x92>
    10f0:	0267ac23          	sw	t1,56(a5)
    10f4:	bf51                	j	1088 <_RMP_Tick_Handler+0x92>
    10f6:	0008a703          	lw	a4,0(a7)
    10fa:	83418813          	addi	a6,gp,-1996 # 200000a4 <RMP_Sched_Pend>
    10fe:	531c                	lw	a5,32(a4)
    1100:	40a78533          	sub	a0,a5,a0
    1104:	d308                	sw	a0,32(a4)
    1106:	bf19                	j	101c <_RMP_Tick_Handler+0x26>
    1108:	00082023          	sw	zero,0(a6)
    110c:	2f0010ef          	jal	ra,23fc <_RMP_Yield>
    1110:	93aff06f          	j	24a <__riscv_restore_4>
    1114:	00004437          	lui	s0,0x4
    1118:	000044b7          	lui	s1,0x4
    111c:	cc140413          	addi	s0,s0,-831 # 3cc1 <_read+0x11>
    1120:	dbf48493          	addi	s1,s1,-577 # 3dbf <_read+0x10f>
    1124:	4535                	li	a0,13
    1126:	2ca010ef          	jal	ra,23f0 <RMP_Putchar>
    112a:	00848663          	beq	s1,s0,1136 <_RMP_Tick_Handler+0x140>
    112e:	0405                	addi	s0,s0,1
    1130:	fff40503          	lb	a0,-1(s0)
    1134:	f96d                	bnez	a0,1126 <_RMP_Tick_Handler+0x130>
    1136:	00004437          	lui	s0,0x4
    113a:	000044b7          	lui	s1,0x4
    113e:	ce940413          	addi	s0,s0,-791 # 3ce9 <_read+0x39>
    1142:	de748493          	addi	s1,s1,-537 # 3de7 <_read+0x137>
    1146:	04400513          	li	a0,68
    114a:	2a6010ef          	jal	ra,23f0 <RMP_Putchar>
    114e:	00848663          	beq	s1,s0,115a <_RMP_Tick_Handler+0x164>
    1152:	0405                	addi	s0,s0,1
    1154:	fff40503          	lb	a0,-1(s0)
    1158:	f96d                	bnez	a0,114a <_RMP_Tick_Handler+0x154>
    115a:	00004437          	lui	s0,0x4
    115e:	000044b7          	lui	s1,0x4
    1162:	d2540413          	addi	s0,s0,-731 # 3d25 <_read+0x75>
    1166:	e2348493          	addi	s1,s1,-477 # 3e23 <__sf_fake_stdin+0x7>
    116a:	02000513          	li	a0,32
    116e:	282010ef          	jal	ra,23f0 <RMP_Putchar>
    1172:	00848663          	beq	s1,s0,117e <_RMP_Tick_Handler+0x188>
    1176:	0405                	addi	s0,s0,1
    1178:	fff40503          	lb	a0,-1(s0)
    117c:	f96d                	bnez	a0,116e <_RMP_Tick_Handler+0x178>
    117e:	06400413          	li	s0,100
    1182:	1f000493          	li	s1,496
    1186:	490d                	li	s2,3
    1188:	49a9                	li	s3,10
    118a:	0284c533          	div	a0,s1,s0
    118e:	197d                	addi	s2,s2,-1
    1190:	03050513          	addi	a0,a0,48
    1194:	0562                	slli	a0,a0,0x18
    1196:	8561                	srai	a0,a0,0x18
    1198:	258010ef          	jal	ra,23f0 <RMP_Putchar>
    119c:	0284e4b3          	rem	s1,s1,s0
    11a0:	03344433          	div	s0,s0,s3
    11a4:	fe0913e3          	bnez	s2,118a <_RMP_Tick_Handler+0x194>
    11a8:	00004437          	lui	s0,0x4
    11ac:	00004937          	lui	s2,0x4
    11b0:	d6d40493          	addi	s1,s0,-659 # 3d6d <_read+0xbd>
    11b4:	e6b90913          	addi	s2,s2,-405 # 3e6b <__sf_fake_stdout+0x2f>
    11b8:	d6d40413          	addi	s0,s0,-659
    11bc:	4535                	li	a0,13
    11be:	232010ef          	jal	ra,23f0 <RMP_Putchar>
    11c2:	00890663          	beq	s2,s0,11ce <_RMP_Tick_Handler+0x1d8>
    11c6:	0405                	addi	s0,s0,1
    11c8:	fff40503          	lb	a0,-1(s0)
    11cc:	f96d                	bnez	a0,11be <_RMP_Tick_Handler+0x1c8>
    11ce:	00004437          	lui	s0,0x4
    11d2:	000049b7          	lui	s3,0x4
    11d6:	d3140413          	addi	s0,s0,-719 # 3d31 <_read+0x81>
    11da:	e2f98993          	addi	s3,s3,-465 # 3e2f <__sf_fake_stdin+0x13>
    11de:	04600513          	li	a0,70
    11e2:	20e010ef          	jal	ra,23f0 <RMP_Putchar>
    11e6:	00898663          	beq	s3,s0,11f2 <_RMP_Tick_Handler+0x1fc>
    11ea:	0405                	addi	s0,s0,1
    11ec:	fff40503          	lb	a0,-1(s0)
    11f0:	f96d                	bnez	a0,11e2 <_RMP_Tick_Handler+0x1ec>
    11f2:	00004437          	lui	s0,0x4
    11f6:	000049b7          	lui	s3,0x4
    11fa:	d3d40413          	addi	s0,s0,-707 # 3d3d <_read+0x8d>
    11fe:	e3b98993          	addi	s3,s3,-453 # 3e3b <__sf_fake_stdin+0x1f>
    1202:	02000513          	li	a0,32
    1206:	1ea010ef          	jal	ra,23f0 <RMP_Putchar>
    120a:	00898663          	beq	s3,s0,1216 <_RMP_Tick_Handler+0x220>
    120e:	0405                	addi	s0,s0,1
    1210:	fff40503          	lb	a0,-1(s0)
    1214:	f96d                	bnez	a0,1206 <_RMP_Tick_Handler+0x210>
    1216:	00004437          	lui	s0,0x4
    121a:	000049b7          	lui	s3,0x4
    121e:	d4140413          	addi	s0,s0,-703 # 3d41 <_read+0x91>
    1222:	e3f98993          	addi	s3,s3,-449 # 3e3f <__sf_fake_stdout+0x3>
    1226:	03100513          	li	a0,49
    122a:	1c6010ef          	jal	ra,23f0 <RMP_Putchar>
    122e:	00898663          	beq	s3,s0,123a <_RMP_Tick_Handler+0x244>
    1232:	0405                	addi	s0,s0,1
    1234:	fff40503          	lb	a0,-1(s0)
    1238:	f96d                	bnez	a0,122a <_RMP_Tick_Handler+0x234>
    123a:	4535                	li	a0,13
    123c:	1b4010ef          	jal	ra,23f0 <RMP_Putchar>
    1240:	01248663          	beq	s1,s2,124c <_RMP_Tick_Handler+0x256>
    1244:	0485                	addi	s1,s1,1
    1246:	fff48503          	lb	a0,-1(s1)
    124a:	f96d                	bnez	a0,123c <_RMP_Tick_Handler+0x246>
    124c:	a001                	j	124c <_RMP_Tick_Handler+0x256>

0000124e <RMP_Thd_Crt>:
    124e:	487d                	li	a6,31
    1250:	0ee86c63          	bltu	a6,a4,1348 <RMP_Thd_Crt+0xfa>
    1254:	6861                	lui	a6,0x18
    1256:	fff78893          	addi	a7,a5,-1
    125a:	69e80813          	addi	a6,a6,1694 # 1869e <_data_lma+0x146b6>
    125e:	0f186763          	bltu	a6,a7,134c <RMP_Thd_Crt+0xfe>
    1262:	10050363          	beqz	a0,1368 <RMP_Thd_Crt+0x11a>
    1266:	fa3fe2ef          	jal	t0,208 <__riscv_save_10>
    126a:	83018a93          	addi	s5,gp,-2000 # 200000a0 <RMP_Sched_Locked>
    126e:	4c05                	li	s8,1
    1270:	893e                	mv	s2,a5
    1272:	842a                	mv	s0,a0
    1274:	82c18493          	addi	s1,gp,-2004 # 2000009c <RMP_Sched_Lock_Cnt>
    1278:	8bb6                	mv	s7,a3
    127a:	8a32                	mv	s4,a2
    127c:	8b2e                	mv	s6,a1
    127e:	89ba                	mv	s3,a4
    1280:	42d020ef          	jal	ra,3eac <RMP_Int_Disable>
    1284:	018aa023          	sw	s8,0(s5)
    1288:	409c                	lw	a5,0(s1)
    128a:	0785                	addi	a5,a5,1
    128c:	c09c                	sw	a5,0(s1)
    128e:	4c1c                	lw	a5,24(s0)
    1290:	0ff7f793          	andi	a5,a5,255
    1294:	efd5                	bnez	a5,1350 <RMP_Thd_Crt+0x102>
    1296:	03342223          	sw	s3,36(s0)
    129a:	01242e23          	sw	s2,28(s0)
    129e:	03242023          	sw	s2,32(s0)
    12a2:	03442a23          	sw	s4,52(s0)
    12a6:	865e                	mv	a2,s7
    12a8:	85d2                	mv	a1,s4
    12aa:	855a                	mv	a0,s6
    12ac:	7bb000ef          	jal	ra,2266 <_RMP_Stack_Init>
    12b0:	01040793          	addi	a5,s0,16
    12b4:	c81c                	sw	a5,16(s0)
    12b6:	c85c                	sw	a5,20(s0)
    12b8:	01842c23          	sw	s8,24(s0)
    12bc:	4c1c                	lw	a5,24(s0)
    12be:	1007f793          	andi	a5,a5,256
    12c2:	e3b9                	bnez	a5,1308 <RMP_Thd_Crt+0xba>
    12c4:	5058                	lw	a4,36(s0)
    12c6:	9c818793          	addi	a5,gp,-1592 # 20000238 <RMP_Run>
    12ca:	070e                	slli	a4,a4,0x3
    12cc:	973e                	add	a4,a4,a5
    12ce:	4314                	lw	a3,0(a4)
    12d0:	5058                	lw	a4,36(s0)
    12d2:	070e                	slli	a4,a4,0x3
    12d4:	97ba                	add	a5,a5,a4
    12d6:	c380                	sw	s0,0(a5)
    12d8:	c05c                	sw	a5,4(s0)
    12da:	c014                	sw	a3,0(s0)
    12dc:	c2c0                	sw	s0,4(a3)
    12de:	5058                	lw	a4,36(s0)
    12e0:	505c                	lw	a5,36(s0)
    12e2:	00ec1733          	sll	a4,s8,a4
    12e6:	8395                	srli	a5,a5,0x5
    12e8:	00279693          	slli	a3,a5,0x2
    12ec:	81c18793          	addi	a5,gp,-2020 # 2000008c <RMP_Bitmap>
    12f0:	97b6                	add	a5,a5,a3
    12f2:	4394                	lw	a3,0(a5)
    12f4:	8f55                	or	a4,a4,a3
    12f6:	c398                	sw	a4,0(a5)
    12f8:	5058                	lw	a4,36(s0)
    12fa:	8381a783          	lw	a5,-1992(gp) # 200000a8 <RMP_Thd_Cur>
    12fe:	53dc                	lw	a5,36(a5)
    1300:	00e7f463          	bgeu	a5,a4,1308 <RMP_Thd_Crt+0xba>
    1304:	8381aa23          	sw	s8,-1996(gp) # 200000a4 <RMP_Sched_Pend>
    1308:	4098                	lw	a4,0(s1)
    130a:	4785                	li	a5,1
    130c:	00f70c63          	beq	a4,a5,1324 <RMP_Thd_Crt+0xd6>
    1310:	4098                	lw	a4,0(s1)
    1312:	00e7f863          	bgeu	a5,a4,1322 <RMP_Thd_Crt+0xd4>
    1316:	409c                	lw	a5,0(s1)
    1318:	4501                	li	a0,0
    131a:	17fd                	addi	a5,a5,-1
    131c:	c09c                	sw	a5,0(s1)
    131e:	f23fe06f          	j	240 <__riscv_restore_10>
    1322:	a001                	j	1322 <RMP_Thd_Crt+0xd4>
    1324:	0004a023          	sw	zero,0(s1)
    1328:	000aa023          	sw	zero,0(s5)
    132c:	83418793          	addi	a5,gp,-1996 # 200000a4 <RMP_Sched_Pend>
    1330:	4398                	lw	a4,0(a5)
    1332:	e711                	bnez	a4,133e <RMP_Thd_Crt+0xf0>
    1334:	37f020ef          	jal	ra,3eb2 <RMP_Int_Enable>
    1338:	4501                	li	a0,0
    133a:	f07fe06f          	j	240 <__riscv_restore_10>
    133e:	0007a023          	sw	zero,0(a5)
    1342:	0ba010ef          	jal	ra,23fc <_RMP_Yield>
    1346:	b7fd                	j	1334 <RMP_Thd_Crt+0xe6>
    1348:	5579                	li	a0,-2
    134a:	8082                	ret
    134c:	5575                	li	a0,-3
    134e:	8082                	ret
    1350:	409c                	lw	a5,0(s1)
    1352:	01878d63          	beq	a5,s8,136c <RMP_Thd_Crt+0x11e>
    1356:	409c                	lw	a5,0(s1)
    1358:	00fc7763          	bgeu	s8,a5,1366 <RMP_Thd_Crt+0x118>
    135c:	409c                	lw	a5,0(s1)
    135e:	557d                	li	a0,-1
    1360:	17fd                	addi	a5,a5,-1
    1362:	c09c                	sw	a5,0(s1)
    1364:	bf6d                	j	131e <RMP_Thd_Crt+0xd0>
    1366:	a001                	j	1366 <RMP_Thd_Crt+0x118>
    1368:	557d                	li	a0,-1
    136a:	8082                	ret
    136c:	0004a023          	sw	zero,0(s1)
    1370:	000aa023          	sw	zero,0(s5)
    1374:	83418793          	addi	a5,gp,-1996 # 200000a4 <RMP_Sched_Pend>
    1378:	4398                	lw	a4,0(a5)
    137a:	e709                	bnez	a4,1384 <RMP_Thd_Crt+0x136>
    137c:	337020ef          	jal	ra,3eb2 <RMP_Int_Enable>
    1380:	557d                	li	a0,-1
    1382:	bf71                	j	131e <RMP_Thd_Crt+0xd0>
    1384:	0007a023          	sw	zero,0(a5)
    1388:	074010ef          	jal	ra,23fc <_RMP_Yield>
    138c:	bfc5                	j	137c <RMP_Thd_Crt+0x12e>

0000138e <RMP_Thd_Set>:
    138e:	14060263          	beqz	a2,14d2 <RMP_Thd_Set+0x144>
    1392:	14050263          	beqz	a0,14d6 <RMP_Thd_Set+0x148>
    1396:	e9bfe2ef          	jal	t0,230 <__riscv_save_0>
    139a:	842a                	mv	s0,a0
    139c:	8932                	mv	s2,a2
    139e:	84ae                	mv	s1,a1
    13a0:	30d020ef          	jal	ra,3eac <RMP_Int_Disable>
    13a4:	83018613          	addi	a2,gp,-2000 # 200000a0 <RMP_Sched_Locked>
    13a8:	4685                	li	a3,1
    13aa:	c214                	sw	a3,0(a2)
    13ac:	82c18713          	addi	a4,gp,-2004 # 2000009c <RMP_Sched_Lock_Cnt>
    13b0:	431c                	lw	a5,0(a4)
    13b2:	0785                	addi	a5,a5,1
    13b4:	c31c                	sw	a5,0(a4)
    13b6:	4c1c                	lw	a5,24(s0)
    13b8:	0ff7f793          	andi	a5,a5,255
    13bc:	10078f63          	beqz	a5,14da <RMP_Thd_Set+0x14c>
    13c0:	4c1c                	lw	a5,24(s0)
    13c2:	0ff7f793          	andi	a5,a5,255
    13c6:	04d78c63          	beq	a5,a3,141e <RMP_Thd_Set+0x90>
    13ca:	47fd                	li	a5,31
    13cc:	0097e363          	bltu	a5,s1,13d2 <RMP_Thd_Set+0x44>
    13d0:	d044                	sw	s1,36(s0)
    13d2:	67e1                	lui	a5,0x18
    13d4:	69f78793          	addi	a5,a5,1695 # 1869f <_data_lma+0x146b7>
    13d8:	0327f063          	bgeu	a5,s2,13f8 <RMP_Thd_Set+0x6a>
    13dc:	4314                	lw	a3,0(a4)
    13de:	4785                	li	a5,1
    13e0:	02f68263          	beq	a3,a5,1404 <RMP_Thd_Set+0x76>
    13e4:	4314                	lw	a3,0(a4)
    13e6:	00d7f863          	bgeu	a5,a3,13f6 <RMP_Thd_Set+0x68>
    13ea:	431c                	lw	a5,0(a4)
    13ec:	4501                	li	a0,0
    13ee:	17fd                	addi	a5,a5,-1
    13f0:	c31c                	sw	a5,0(a4)
    13f2:	e63fe06f          	j	254 <__riscv_restore_0>
    13f6:	a001                	j	13f6 <RMP_Thd_Set+0x68>
    13f8:	01242e23          	sw	s2,28(s0)
    13fc:	4314                	lw	a3,0(a4)
    13fe:	4785                	li	a5,1
    1400:	fef692e3          	bne	a3,a5,13e4 <RMP_Thd_Set+0x56>
    1404:	00072023          	sw	zero,0(a4) # 2000 <RMP_Sem_Post+0x104>
    1408:	00062023          	sw	zero,0(a2) # 40021000 <_eusrstack+0x20019000>
    140c:	83418793          	addi	a5,gp,-1996 # 200000a4 <RMP_Sched_Pend>
    1410:	4398                	lw	a4,0(a5)
    1412:	e759                	bnez	a4,14a0 <RMP_Thd_Set+0x112>
    1414:	29f020ef          	jal	ra,3eb2 <RMP_Int_Enable>
    1418:	4501                	li	a0,0
    141a:	e3bfe06f          	j	254 <__riscv_restore_0>
    141e:	46fd                	li	a3,31
    1420:	fa96e9e3          	bltu	a3,s1,13d2 <RMP_Thd_Set+0x44>
    1424:	5054                	lw	a3,36(s0)
    1426:	fa9686e3          	beq	a3,s1,13d2 <RMP_Thd_Set+0x44>
    142a:	4c14                	lw	a3,24(s0)
    142c:	1006f693          	andi	a3,a3,256
    1430:	ee89                	bnez	a3,144a <RMP_Thd_Set+0xbc>
    1432:	400c                	lw	a1,0(s0)
    1434:	4054                	lw	a3,4(s0)
    1436:	06d58e63          	beq	a1,a3,14b2 <RMP_Thd_Set+0x124>
    143a:	401c                	lw	a5,0(s0)
    143c:	4054                	lw	a3,4(s0)
    143e:	c29c                	sw	a5,0(a3)
    1440:	c3d4                	sw	a3,4(a5)
    1442:	8381a783          	lw	a5,-1992(gp) # 200000a8 <RMP_Thd_Cur>
    1446:	06f40263          	beq	s0,a5,14aa <RMP_Thd_Set+0x11c>
    144a:	d044                	sw	s1,36(s0)
    144c:	4c1c                	lw	a5,24(s0)
    144e:	1007f793          	andi	a5,a5,256
    1452:	f3c1                	bnez	a5,13d2 <RMP_Thd_Set+0x44>
    1454:	5054                	lw	a3,36(s0)
    1456:	9c818793          	addi	a5,gp,-1592 # 20000238 <RMP_Run>
    145a:	068e                	slli	a3,a3,0x3
    145c:	96be                	add	a3,a3,a5
    145e:	428c                	lw	a1,0(a3)
    1460:	5054                	lw	a3,36(s0)
    1462:	4505                	li	a0,1
    1464:	068e                	slli	a3,a3,0x3
    1466:	97b6                	add	a5,a5,a3
    1468:	c380                	sw	s0,0(a5)
    146a:	c05c                	sw	a5,4(s0)
    146c:	c00c                	sw	a1,0(s0)
    146e:	c1c0                	sw	s0,4(a1)
    1470:	5054                	lw	a3,36(s0)
    1472:	505c                	lw	a5,36(s0)
    1474:	00d516b3          	sll	a3,a0,a3
    1478:	8395                	srli	a5,a5,0x5
    147a:	00279593          	slli	a1,a5,0x2
    147e:	81c18793          	addi	a5,gp,-2020 # 2000008c <RMP_Bitmap>
    1482:	97ae                	add	a5,a5,a1
    1484:	0007a803          	lw	a6,0(a5)
    1488:	0106e6b3          	or	a3,a3,a6
    148c:	c394                	sw	a3,0(a5)
    148e:	5054                	lw	a3,36(s0)
    1490:	8381a783          	lw	a5,-1992(gp) # 200000a8 <RMP_Thd_Cur>
    1494:	53dc                	lw	a5,36(a5)
    1496:	f2d7fee3          	bgeu	a5,a3,13d2 <RMP_Thd_Set+0x44>
    149a:	82a1aa23          	sw	a0,-1996(gp) # 200000a4 <RMP_Sched_Pend>
    149e:	bf15                	j	13d2 <RMP_Thd_Set+0x44>
    14a0:	0007a023          	sw	zero,0(a5)
    14a4:	759000ef          	jal	ra,23fc <_RMP_Yield>
    14a8:	b7b5                	j	1414 <RMP_Thd_Set+0x86>
    14aa:	4685                	li	a3,1
    14ac:	82d1aa23          	sw	a3,-1996(gp) # 200000a4 <RMP_Sched_Pend>
    14b0:	bf69                	j	144a <RMP_Thd_Set+0xbc>
    14b2:	5048                	lw	a0,36(s0)
    14b4:	5054                	lw	a3,36(s0)
    14b6:	00a797b3          	sll	a5,a5,a0
    14ba:	8295                	srli	a3,a3,0x5
    14bc:	00269593          	slli	a1,a3,0x2
    14c0:	81c18693          	addi	a3,gp,-2020 # 2000008c <RMP_Bitmap>
    14c4:	96ae                	add	a3,a3,a1
    14c6:	428c                	lw	a1,0(a3)
    14c8:	fff7c793          	not	a5,a5
    14cc:	8fed                	and	a5,a5,a1
    14ce:	c29c                	sw	a5,0(a3)
    14d0:	b7ad                	j	143a <RMP_Thd_Set+0xac>
    14d2:	5575                	li	a0,-3
    14d4:	8082                	ret
    14d6:	557d                	li	a0,-1
    14d8:	8082                	ret
    14da:	431c                	lw	a5,0(a4)
    14dc:	00d78b63          	beq	a5,a3,14f2 <RMP_Thd_Set+0x164>
    14e0:	431c                	lw	a5,0(a4)
    14e2:	00f6f763          	bgeu	a3,a5,14f0 <RMP_Thd_Set+0x162>
    14e6:	431c                	lw	a5,0(a4)
    14e8:	557d                	li	a0,-1
    14ea:	17fd                	addi	a5,a5,-1
    14ec:	c31c                	sw	a5,0(a4)
    14ee:	b711                	j	13f2 <RMP_Thd_Set+0x64>
    14f0:	a001                	j	14f0 <RMP_Thd_Set+0x162>
    14f2:	00072023          	sw	zero,0(a4)
    14f6:	00062023          	sw	zero,0(a2)
    14fa:	83418793          	addi	a5,gp,-1996 # 200000a4 <RMP_Sched_Pend>
    14fe:	4398                	lw	a4,0(a5)
    1500:	e709                	bnez	a4,150a <RMP_Thd_Set+0x17c>
    1502:	1b1020ef          	jal	ra,3eb2 <RMP_Int_Enable>
    1506:	557d                	li	a0,-1
    1508:	b5ed                	j	13f2 <RMP_Thd_Set+0x64>
    150a:	0007a023          	sw	zero,0(a5)
    150e:	6ef000ef          	jal	ra,23fc <_RMP_Yield>
    1512:	bfc5                	j	1502 <RMP_Thd_Set+0x174>

00001514 <RMP_Thd_Snd>:
    1514:	22050263          	beqz	a0,1738 <RMP_Thd_Snd+0x224>
    1518:	cfffe2ef          	jal	t0,216 <__riscv_save_4>
    151c:	842a                	mv	s0,a0
    151e:	89b2                	mv	s3,a2
    1520:	84ae                	mv	s1,a1
    1522:	18b020ef          	jal	ra,3eac <RMP_Int_Disable>
    1526:	83018893          	addi	a7,gp,-2000 # 200000a0 <RMP_Sched_Locked>
    152a:	4705                	li	a4,1
    152c:	00e8a023          	sw	a4,0(a7)
    1530:	82c18813          	addi	a6,gp,-2004 # 2000009c <RMP_Sched_Lock_Cnt>
    1534:	00082783          	lw	a5,0(a6)
    1538:	0785                	addi	a5,a5,1
    153a:	00f82023          	sw	a5,0(a6)
    153e:	4c1c                	lw	a5,24(s0)
    1540:	0ff7f793          	andi	a5,a5,255
    1544:	1e078c63          	beqz	a5,173c <RMP_Thd_Snd+0x228>
    1548:	83818913          	addi	s2,gp,-1992 # 200000a8 <RMP_Thd_Cur>
    154c:	00092783          	lw	a5,0(s2)
    1550:	22878663          	beq	a5,s0,177c <RMP_Thd_Snd+0x268>
    1554:	00092783          	lw	a5,0(s2)
    1558:	0207ac23          	sw	zero,56(a5)
    155c:	4c1c                	lw	a5,24(s0)
    155e:	2007f793          	andi	a5,a5,512
    1562:	e7b1                	bnez	a5,15ae <RMP_Thd_Snd+0x9a>
    1564:	4c1c                	lw	a5,24(s0)
    1566:	4711                	li	a4,4
    1568:	0ff7f793          	andi	a5,a5,255
    156c:	10e78863          	beq	a5,a4,167c <RMP_Thd_Snd+0x168>
    1570:	4c1c                	lw	a5,24(s0)
    1572:	4715                	li	a4,5
    1574:	0ff7f793          	andi	a5,a5,255
    1578:	10e78263          	beq	a5,a4,167c <RMP_Thd_Snd+0x168>
    157c:	d444                	sw	s1,44(s0)
    157e:	4c1c                	lw	a5,24(s0)
    1580:	2007e793          	ori	a5,a5,512
    1584:	cc1c                	sw	a5,24(s0)
    1586:	00082703          	lw	a4,0(a6)
    158a:	4785                	li	a5,1
    158c:	0cf70d63          	beq	a4,a5,1666 <RMP_Thd_Snd+0x152>
    1590:	00082703          	lw	a4,0(a6)
    1594:	00e7fc63          	bgeu	a5,a4,15ac <RMP_Thd_Snd+0x98>
    1598:	00082783          	lw	a5,0(a6)
    159c:	17fd                	addi	a5,a5,-1
    159e:	00f82023          	sw	a5,0(a6)
    15a2:	00092783          	lw	a5,0(s2)
    15a6:	5f88                	lw	a0,56(a5)
    15a8:	ca3fe06f          	j	24a <__riscv_restore_4>
    15ac:	a001                	j	15ac <RMP_Thd_Snd+0x98>
    15ae:	1a098763          	beqz	s3,175c <RMP_Thd_Snd+0x248>
    15b2:	00092683          	lw	a3,0(s2)
    15b6:	4e9c                	lw	a5,24(a3)
    15b8:	1007f793          	andi	a5,a5,256
    15bc:	ef89                	bnez	a5,15d6 <RMP_Thd_Snd+0xc2>
    15be:	4290                	lw	a2,0(a3)
    15c0:	42dc                	lw	a5,4(a3)
    15c2:	14f60663          	beq	a2,a5,170e <RMP_Thd_Snd+0x1fa>
    15c6:	429c                	lw	a5,0(a3)
    15c8:	42d8                	lw	a4,4(a3)
    15ca:	c31c                	sw	a5,0(a4)
    15cc:	c3d8                	sw	a4,4(a5)
    15ce:	00092783          	lw	a5,0(s2)
    15d2:	12f68a63          	beq	a3,a5,1706 <RMP_Thd_Snd+0x1f2>
    15d6:	00092783          	lw	a5,0(s2)
    15da:	4818                	lw	a4,16(s0)
    15dc:	01040693          	addi	a3,s0,16
    15e0:	c81c                	sw	a5,16(s0)
    15e2:	c3d4                	sw	a3,4(a5)
    15e4:	c398                	sw	a4,0(a5)
    15e6:	c35c                	sw	a5,4(a4)
    15e8:	67e1                	lui	a5,0x18
    15ea:	69f78793          	addi	a5,a5,1695 # 1869f <_data_lma+0x146b7>
    15ee:	0f37ec63          	bltu	a5,s3,16e6 <RMP_Thd_Snd+0x1d2>
    15f2:	82018593          	addi	a1,gp,-2016 # 20000090 <RMP_Delay>
    15f6:	00092303          	lw	t1,0(s2)
    15fa:	41dc                	lw	a5,4(a1)
    15fc:	83c18513          	addi	a0,gp,-1988 # 200000ac <RMP_Tick>
    1600:	02b78463          	beq	a5,a1,1628 <RMP_Thd_Snd+0x114>
    1604:	83c18513          	addi	a0,gp,-1988 # 200000ac <RMP_Tick>
    1608:	5398                	lw	a4,32(a5)
    160a:	4114                	lw	a3,0(a0)
    160c:	8f15                	sub	a4,a4,a3
    160e:	00e9f863          	bgeu	s3,a4,161e <RMP_Thd_Snd+0x10a>
    1612:	a819                	j	1628 <RMP_Thd_Snd+0x114>
    1614:	5718                	lw	a4,40(a4)
    1616:	4114                	lw	a3,0(a0)
    1618:	8f15                	sub	a4,a4,a3
    161a:	00e9e763          	bltu	s3,a4,1628 <RMP_Thd_Snd+0x114>
    161e:	43dc                	lw	a5,4(a5)
    1620:	ff878713          	addi	a4,a5,-8
    1624:	feb798e3          	bne	a5,a1,1614 <RMP_Thd_Snd+0x100>
    1628:	4110                	lw	a2,0(a0)
    162a:	00830693          	addi	a3,t1,8
    162e:	964e                	add	a2,a2,s3
    1630:	02c32423          	sw	a2,40(t1)
    1634:	4398                	lw	a4,0(a5)
    1636:	c394                	sw	a3,0(a5)
    1638:	00f32623          	sw	a5,12(t1)
    163c:	00e32423          	sw	a4,8(t1)
    1640:	c354                	sw	a3,4(a4)
    1642:	00092783          	lw	a5,0(s2)
    1646:	4f9c                	lw	a5,24(a5)
    1648:	00092703          	lw	a4,0(s2)
    164c:	f007f793          	andi	a5,a5,-256
    1650:	0037e793          	ori	a5,a5,3
    1654:	cf1c                	sw	a5,24(a4)
    1656:	00092783          	lw	a5,0(s2)
    165a:	db84                	sw	s1,48(a5)
    165c:	00082703          	lw	a4,0(a6)
    1660:	4785                	li	a5,1
    1662:	f2f717e3          	bne	a4,a5,1590 <RMP_Thd_Snd+0x7c>
    1666:	00082023          	sw	zero,0(a6)
    166a:	0008a023          	sw	zero,0(a7)
    166e:	83418793          	addi	a5,gp,-1996 # 200000a4 <RMP_Sched_Pend>
    1672:	4398                	lw	a4,0(a5)
    1674:	ef4d                	bnez	a4,172e <RMP_Thd_Snd+0x21a>
    1676:	03d020ef          	jal	ra,3eb2 <RMP_Int_Enable>
    167a:	b725                	j	15a2 <RMP_Thd_Snd+0x8e>
    167c:	4c1c                	lw	a5,24(s0)
    167e:	4715                	li	a4,5
    1680:	0ff7f793          	andi	a5,a5,255
    1684:	06e78c63          	beq	a5,a4,16fc <RMP_Thd_Snd+0x1e8>
    1688:	4c1c                	lw	a5,24(s0)
    168a:	f007f793          	andi	a5,a5,-256
    168e:	0017e793          	ori	a5,a5,1
    1692:	cc1c                	sw	a5,24(s0)
    1694:	4c1c                	lw	a5,24(s0)
    1696:	1007f793          	andi	a5,a5,256
    169a:	ee0791e3          	bnez	a5,157c <RMP_Thd_Snd+0x68>
    169e:	5058                	lw	a4,36(s0)
    16a0:	9c818793          	addi	a5,gp,-1592 # 20000238 <RMP_Run>
    16a4:	070e                	slli	a4,a4,0x3
    16a6:	973e                	add	a4,a4,a5
    16a8:	4314                	lw	a3,0(a4)
    16aa:	5058                	lw	a4,36(s0)
    16ac:	4605                	li	a2,1
    16ae:	070e                	slli	a4,a4,0x3
    16b0:	97ba                	add	a5,a5,a4
    16b2:	c380                	sw	s0,0(a5)
    16b4:	c05c                	sw	a5,4(s0)
    16b6:	c014                	sw	a3,0(s0)
    16b8:	c2c0                	sw	s0,4(a3)
    16ba:	5058                	lw	a4,36(s0)
    16bc:	505c                	lw	a5,36(s0)
    16be:	00e61733          	sll	a4,a2,a4
    16c2:	8395                	srli	a5,a5,0x5
    16c4:	00279693          	slli	a3,a5,0x2
    16c8:	81c18793          	addi	a5,gp,-2020 # 2000008c <RMP_Bitmap>
    16cc:	97b6                	add	a5,a5,a3
    16ce:	4394                	lw	a3,0(a5)
    16d0:	8f55                	or	a4,a4,a3
    16d2:	c398                	sw	a4,0(a5)
    16d4:	5058                	lw	a4,36(s0)
    16d6:	00092783          	lw	a5,0(s2)
    16da:	53dc                	lw	a5,36(a5)
    16dc:	eae7f0e3          	bgeu	a5,a4,157c <RMP_Thd_Snd+0x68>
    16e0:	82c1aa23          	sw	a2,-1996(gp) # 200000a4 <RMP_Sched_Pend>
    16e4:	bd61                	j	157c <RMP_Thd_Snd+0x68>
    16e6:	00092783          	lw	a5,0(s2)
    16ea:	4f9c                	lw	a5,24(a5)
    16ec:	00092703          	lw	a4,0(s2)
    16f0:	f007f793          	andi	a5,a5,-256
    16f4:	0027e793          	ori	a5,a5,2
    16f8:	cf1c                	sw	a5,24(a4)
    16fa:	bfb1                	j	1656 <RMP_Thd_Snd+0x142>
    16fc:	441c                	lw	a5,8(s0)
    16fe:	4458                	lw	a4,12(s0)
    1700:	c31c                	sw	a5,0(a4)
    1702:	c3d8                	sw	a4,4(a5)
    1704:	b751                	j	1688 <RMP_Thd_Snd+0x174>
    1706:	4705                	li	a4,1
    1708:	82e1aa23          	sw	a4,-1996(gp) # 200000a4 <RMP_Sched_Pend>
    170c:	b5e9                	j	15d6 <RMP_Thd_Snd+0xc2>
    170e:	52dc                	lw	a5,36(a3)
    1710:	52d0                	lw	a2,36(a3)
    1712:	00f717b3          	sll	a5,a4,a5
    1716:	8215                	srli	a2,a2,0x5
    1718:	00261593          	slli	a1,a2,0x2
    171c:	81c18613          	addi	a2,gp,-2020 # 2000008c <RMP_Bitmap>
    1720:	962e                	add	a2,a2,a1
    1722:	420c                	lw	a1,0(a2)
    1724:	fff7c793          	not	a5,a5
    1728:	8fed                	and	a5,a5,a1
    172a:	c21c                	sw	a5,0(a2)
    172c:	bd69                	j	15c6 <RMP_Thd_Snd+0xb2>
    172e:	0007a023          	sw	zero,0(a5)
    1732:	4cb000ef          	jal	ra,23fc <_RMP_Yield>
    1736:	b781                	j	1676 <RMP_Thd_Snd+0x162>
    1738:	557d                	li	a0,-1
    173a:	8082                	ret
    173c:	00082783          	lw	a5,0(a6)
    1740:	04e78763          	beq	a5,a4,178e <RMP_Thd_Snd+0x27a>
    1744:	00082783          	lw	a5,0(a6)
    1748:	00f77963          	bgeu	a4,a5,175a <RMP_Thd_Snd+0x246>
    174c:	00082783          	lw	a5,0(a6)
    1750:	557d                	li	a0,-1
    1752:	17fd                	addi	a5,a5,-1
    1754:	00f82023          	sw	a5,0(a6)
    1758:	bd81                	j	15a8 <RMP_Thd_Snd+0x94>
    175a:	a001                	j	175a <RMP_Thd_Snd+0x246>
    175c:	00082783          	lw	a5,0(a6)
    1760:	04e78363          	beq	a5,a4,17a6 <RMP_Thd_Snd+0x292>
    1764:	00082783          	lw	a5,0(a6)
    1768:	00f77963          	bgeu	a4,a5,177a <RMP_Thd_Snd+0x266>
    176c:	00082783          	lw	a5,0(a6)
    1770:	556d                	li	a0,-5
    1772:	17fd                	addi	a5,a5,-1
    1774:	00f82023          	sw	a5,0(a6)
    1778:	bd05                	j	15a8 <RMP_Thd_Snd+0x94>
    177a:	a001                	j	177a <RMP_Thd_Snd+0x266>
    177c:	00082783          	lw	a5,0(a6)
    1780:	02e78363          	beq	a5,a4,17a6 <RMP_Thd_Snd+0x292>
    1784:	00082783          	lw	a5,0(a6)
    1788:	fef762e3          	bltu	a4,a5,176c <RMP_Thd_Snd+0x258>
    178c:	a001                	j	178c <RMP_Thd_Snd+0x278>
    178e:	00082023          	sw	zero,0(a6)
    1792:	0008a023          	sw	zero,0(a7)
    1796:	83418793          	addi	a5,gp,-1996 # 200000a4 <RMP_Sched_Pend>
    179a:	4398                	lw	a4,0(a5)
    179c:	e30d                	bnez	a4,17be <RMP_Thd_Snd+0x2aa>
    179e:	714020ef          	jal	ra,3eb2 <RMP_Int_Enable>
    17a2:	557d                	li	a0,-1
    17a4:	b511                	j	15a8 <RMP_Thd_Snd+0x94>
    17a6:	00082023          	sw	zero,0(a6)
    17aa:	0008a023          	sw	zero,0(a7)
    17ae:	83418793          	addi	a5,gp,-1996 # 200000a4 <RMP_Sched_Pend>
    17b2:	4398                	lw	a4,0(a5)
    17b4:	eb11                	bnez	a4,17c8 <RMP_Thd_Snd+0x2b4>
    17b6:	6fc020ef          	jal	ra,3eb2 <RMP_Int_Enable>
    17ba:	556d                	li	a0,-5
    17bc:	b3f5                	j	15a8 <RMP_Thd_Snd+0x94>
    17be:	0007a023          	sw	zero,0(a5)
    17c2:	43b000ef          	jal	ra,23fc <_RMP_Yield>
    17c6:	bfe1                	j	179e <RMP_Thd_Snd+0x28a>
    17c8:	0007a023          	sw	zero,0(a5)
    17cc:	431000ef          	jal	ra,23fc <_RMP_Yield>
    17d0:	b7dd                	j	17b6 <RMP_Thd_Snd+0x2a2>

000017d2 <RMP_Thd_Snd_ISR>:
    17d2:	0e050c63          	beqz	a0,18ca <RMP_Thd_Snd_ISR+0xf8>
    17d6:	4d1c                	lw	a5,24(a0)
    17d8:	0ff7f793          	andi	a5,a5,255
    17dc:	0e078763          	beqz	a5,18ca <RMP_Thd_Snd_ISR+0xf8>
    17e0:	4d1c                	lw	a5,24(a0)
    17e2:	2007f793          	andi	a5,a5,512
    17e6:	0e079463          	bnez	a5,18ce <RMP_Thd_Snd_ISR+0xfc>
    17ea:	a47fe2ef          	jal	t0,230 <__riscv_save_0>
    17ee:	4d1c                	lw	a5,24(a0)
    17f0:	4711                	li	a4,4
    17f2:	1141                	addi	sp,sp,-16
    17f4:	0ff7f793          	andi	a5,a5,255
    17f8:	842a                	mv	s0,a0
    17fa:	02e78163          	beq	a5,a4,181c <RMP_Thd_Snd_ISR+0x4a>
    17fe:	4d1c                	lw	a5,24(a0)
    1800:	4715                	li	a4,5
    1802:	0ff7f793          	andi	a5,a5,255
    1806:	00e78b63          	beq	a5,a4,181c <RMP_Thd_Snd_ISR+0x4a>
    180a:	d44c                	sw	a1,44(s0)
    180c:	4c1c                	lw	a5,24(s0)
    180e:	4501                	li	a0,0
    1810:	2007e793          	ori	a5,a5,512
    1814:	cc1c                	sw	a5,24(s0)
    1816:	0141                	addi	sp,sp,16
    1818:	a3dfe06f          	j	254 <__riscv_restore_0>
    181c:	4c1c                	lw	a5,24(s0)
    181e:	4715                	li	a4,5
    1820:	0ff7f793          	andi	a5,a5,255
    1824:	08e78463          	beq	a5,a4,18ac <RMP_Thd_Snd_ISR+0xda>
    1828:	4c1c                	lw	a5,24(s0)
    182a:	f007f793          	andi	a5,a5,-256
    182e:	0017e793          	ori	a5,a5,1
    1832:	cc1c                	sw	a5,24(s0)
    1834:	4c1c                	lw	a5,24(s0)
    1836:	1007f793          	andi	a5,a5,256
    183a:	c785                	beqz	a5,1862 <RMP_Thd_Snd_ISR+0x90>
    183c:	83418793          	addi	a5,gp,-1996 # 200000a4 <RMP_Sched_Pend>
    1840:	4398                	lw	a4,0(a5)
    1842:	d761                	beqz	a4,180a <RMP_Thd_Snd_ISR+0x38>
    1844:	c62e                	sw	a1,12(sp)
    1846:	0007a023          	sw	zero,0(a5)
    184a:	3b3000ef          	jal	ra,23fc <_RMP_Yield>
    184e:	45b2                	lw	a1,12(sp)
    1850:	4501                	li	a0,0
    1852:	d44c                	sw	a1,44(s0)
    1854:	4c1c                	lw	a5,24(s0)
    1856:	2007e793          	ori	a5,a5,512
    185a:	cc1c                	sw	a5,24(s0)
    185c:	0141                	addi	sp,sp,16
    185e:	9f7fe06f          	j	254 <__riscv_restore_0>
    1862:	5058                	lw	a4,36(s0)
    1864:	9c818793          	addi	a5,gp,-1592 # 20000238 <RMP_Run>
    1868:	070e                	slli	a4,a4,0x3
    186a:	973e                	add	a4,a4,a5
    186c:	4314                	lw	a3,0(a4)
    186e:	5058                	lw	a4,36(s0)
    1870:	4605                	li	a2,1
    1872:	070e                	slli	a4,a4,0x3
    1874:	97ba                	add	a5,a5,a4
    1876:	c380                	sw	s0,0(a5)
    1878:	c05c                	sw	a5,4(s0)
    187a:	c014                	sw	a3,0(s0)
    187c:	c2c0                	sw	s0,4(a3)
    187e:	5058                	lw	a4,36(s0)
    1880:	505c                	lw	a5,36(s0)
    1882:	00e61733          	sll	a4,a2,a4
    1886:	8395                	srli	a5,a5,0x5
    1888:	00279693          	slli	a3,a5,0x2
    188c:	81c18793          	addi	a5,gp,-2020 # 2000008c <RMP_Bitmap>
    1890:	97b6                	add	a5,a5,a3
    1892:	4388                	lw	a0,0(a5)
    1894:	8f49                	or	a4,a4,a0
    1896:	c398                	sw	a4,0(a5)
    1898:	5058                	lw	a4,36(s0)
    189a:	8381a783          	lw	a5,-1992(gp) # 200000a8 <RMP_Thd_Cur>
    189e:	53dc                	lw	a5,36(a5)
    18a0:	f8e7fee3          	bgeu	a5,a4,183c <RMP_Thd_Snd_ISR+0x6a>
    18a4:	83418793          	addi	a5,gp,-1996 # 200000a4 <RMP_Sched_Pend>
    18a8:	c390                	sw	a2,0(a5)
    18aa:	bf59                	j	1840 <RMP_Thd_Snd_ISR+0x6e>
    18ac:	441c                	lw	a5,8(s0)
    18ae:	4458                	lw	a4,12(s0)
    18b0:	c31c                	sw	a5,0(a4)
    18b2:	c3d8                	sw	a4,4(a5)
    18b4:	4c1c                	lw	a5,24(s0)
    18b6:	f007f793          	andi	a5,a5,-256
    18ba:	0017e793          	ori	a5,a5,1
    18be:	cc1c                	sw	a5,24(s0)
    18c0:	4c1c                	lw	a5,24(s0)
    18c2:	1007f793          	andi	a5,a5,256
    18c6:	dfd1                	beqz	a5,1862 <RMP_Thd_Snd_ISR+0x90>
    18c8:	bf95                	j	183c <RMP_Thd_Snd_ISR+0x6a>
    18ca:	557d                	li	a0,-1
    18cc:	8082                	ret
    18ce:	556d                	li	a0,-5
    18d0:	8082                	ret

000018d2 <RMP_Thd_Rcv>:
    18d2:	2c050063          	beqz	a0,1b92 <RMP_Thd_Rcv+0x2c0>
    18d6:	941fe2ef          	jal	t0,216 <__riscv_save_4>
    18da:	892e                	mv	s2,a1
    18dc:	89aa                	mv	s3,a0
    18de:	5ce020ef          	jal	ra,3eac <RMP_Int_Disable>
    18e2:	83018a13          	addi	s4,gp,-2000 # 200000a0 <RMP_Sched_Locked>
    18e6:	4705                	li	a4,1
    18e8:	00ea2023          	sw	a4,0(s4)
    18ec:	82c18493          	addi	s1,gp,-2004 # 2000009c <RMP_Sched_Lock_Cnt>
    18f0:	409c                	lw	a5,0(s1)
    18f2:	83818413          	addi	s0,gp,-1992 # 200000a8 <RMP_Thd_Cur>
    18f6:	0785                	addi	a5,a5,1
    18f8:	c09c                	sw	a5,0(s1)
    18fa:	401c                	lw	a5,0(s0)
    18fc:	4014                	lw	a3,0(s0)
    18fe:	07c1                	addi	a5,a5,16
    1900:	4ad4                	lw	a3,20(a3)
    1902:	0ef68163          	beq	a3,a5,19e4 <RMP_Thd_Rcv+0x112>
    1906:	401c                	lw	a5,0(s0)
    1908:	460d                	li	a2,3
    190a:	4bdc                	lw	a5,20(a5)
    190c:	4398                	lw	a4,0(a5)
    190e:	43d4                	lw	a3,4(a5)
    1910:	c298                	sw	a4,0(a3)
    1912:	c354                	sw	a3,4(a4)
    1914:	5b98                	lw	a4,48(a5)
    1916:	00e9a023          	sw	a4,0(s3)
    191a:	4f98                	lw	a4,24(a5)
    191c:	0ff77713          	andi	a4,a4,255
    1920:	08c70463          	beq	a4,a2,19a8 <RMP_Thd_Rcv+0xd6>
    1924:	4f98                	lw	a4,24(a5)
    1926:	f0077713          	andi	a4,a4,-256
    192a:	00176713          	ori	a4,a4,1
    192e:	cf98                	sw	a4,24(a5)
    1930:	4f98                	lw	a4,24(a5)
    1932:	10077713          	andi	a4,a4,256
    1936:	e339                	bnez	a4,197c <RMP_Thd_Rcv+0xaa>
    1938:	53d4                	lw	a3,36(a5)
    193a:	9c818713          	addi	a4,gp,-1592 # 20000238 <RMP_Run>
    193e:	068e                	slli	a3,a3,0x3
    1940:	96ba                	add	a3,a3,a4
    1942:	4290                	lw	a2,0(a3)
    1944:	53d4                	lw	a3,36(a5)
    1946:	4585                	li	a1,1
    1948:	068e                	slli	a3,a3,0x3
    194a:	9736                	add	a4,a4,a3
    194c:	c31c                	sw	a5,0(a4)
    194e:	c3d8                	sw	a4,4(a5)
    1950:	c390                	sw	a2,0(a5)
    1952:	c25c                	sw	a5,4(a2)
    1954:	53d4                	lw	a3,36(a5)
    1956:	53d8                	lw	a4,36(a5)
    1958:	00d596b3          	sll	a3,a1,a3
    195c:	8315                	srli	a4,a4,0x5
    195e:	00271613          	slli	a2,a4,0x2
    1962:	81c18713          	addi	a4,gp,-2020 # 2000008c <RMP_Bitmap>
    1966:	9732                	add	a4,a4,a2
    1968:	4310                	lw	a2,0(a4)
    196a:	8ed1                	or	a3,a3,a2
    196c:	c314                	sw	a3,0(a4)
    196e:	53d4                	lw	a3,36(a5)
    1970:	4018                	lw	a4,0(s0)
    1972:	5358                	lw	a4,36(a4)
    1974:	00d77463          	bgeu	a4,a3,197c <RMP_Thd_Rcv+0xaa>
    1978:	82b1aa23          	sw	a1,-1996(gp) # 200000a4 <RMP_Sched_Pend>
    197c:	4018                	lw	a4,0(s0)
    197e:	4f18                	lw	a4,24(a4)
    1980:	20077713          	andi	a4,a4,512
    1984:	e329                	bnez	a4,19c6 <RMP_Thd_Rcv+0xf4>
    1986:	4018                	lw	a4,0(s0)
    1988:	5b94                	lw	a3,48(a5)
    198a:	4785                	li	a5,1
    198c:	d754                	sw	a3,44(a4)
    198e:	4098                	lw	a4,0(s1)
    1990:	18f70663          	beq	a4,a5,1b1c <RMP_Thd_Rcv+0x24a>
    1994:	4098                	lw	a4,0(s1)
    1996:	00e7f863          	bgeu	a5,a4,19a6 <RMP_Thd_Rcv+0xd4>
    199a:	409c                	lw	a5,0(s1)
    199c:	4501                	li	a0,0
    199e:	17fd                	addi	a5,a5,-1
    19a0:	c09c                	sw	a5,0(s1)
    19a2:	8a9fe06f          	j	24a <__riscv_restore_4>
    19a6:	a001                	j	19a6 <RMP_Thd_Rcv+0xd4>
    19a8:	4798                	lw	a4,8(a5)
    19aa:	47d4                	lw	a3,12(a5)
    19ac:	c298                	sw	a4,0(a3)
    19ae:	c354                	sw	a3,4(a4)
    19b0:	4f98                	lw	a4,24(a5)
    19b2:	f0077713          	andi	a4,a4,-256
    19b6:	00176713          	ori	a4,a4,1
    19ba:	cf98                	sw	a4,24(a5)
    19bc:	4f98                	lw	a4,24(a5)
    19be:	10077713          	andi	a4,a4,256
    19c2:	ff4d                	bnez	a4,197c <RMP_Thd_Rcv+0xaa>
    19c4:	bf95                	j	1938 <RMP_Thd_Rcv+0x66>
    19c6:	4018                	lw	a4,0(s0)
    19c8:	5754                	lw	a3,44(a4)
    19ca:	4018                	lw	a4,0(s0)
    19cc:	00d9a023          	sw	a3,0(s3)
    19d0:	5b9c                	lw	a5,48(a5)
    19d2:	d75c                	sw	a5,44(a4)
    19d4:	4098                	lw	a4,0(s1)
    19d6:	4785                	li	a5,1
    19d8:	14f70263          	beq	a4,a5,1b1c <RMP_Thd_Rcv+0x24a>
    19dc:	4098                	lw	a4,0(s1)
    19de:	fae7eee3          	bltu	a5,a4,199a <RMP_Thd_Rcv+0xc8>
    19e2:	a001                	j	19e2 <RMP_Thd_Rcv+0x110>
    19e4:	401c                	lw	a5,0(s0)
    19e6:	4f9c                	lw	a5,24(a5)
    19e8:	2007f793          	andi	a5,a5,512
    19ec:	10079b63          	bnez	a5,1b02 <RMP_Thd_Rcv+0x230>
    19f0:	1a090363          	beqz	s2,1b96 <RMP_Thd_Rcv+0x2c4>
    19f4:	4014                	lw	a3,0(s0)
    19f6:	4e9c                	lw	a5,24(a3)
    19f8:	1007f793          	andi	a5,a5,256
    19fc:	ef81                	bnez	a5,1a14 <RMP_Thd_Rcv+0x142>
    19fe:	4290                	lw	a2,0(a3)
    1a00:	42dc                	lw	a5,4(a3)
    1a02:	12f60e63          	beq	a2,a5,1b3e <RMP_Thd_Rcv+0x26c>
    1a06:	429c                	lw	a5,0(a3)
    1a08:	42d8                	lw	a4,4(a3)
    1a0a:	c31c                	sw	a5,0(a4)
    1a0c:	c3d8                	sw	a4,4(a5)
    1a0e:	401c                	lw	a5,0(s0)
    1a10:	12f68363          	beq	a3,a5,1b36 <RMP_Thd_Rcv+0x264>
    1a14:	67e1                	lui	a5,0x18
    1a16:	69f78793          	addi	a5,a5,1695 # 1869f <_data_lma+0x146b7>
    1a1a:	0b27ec63          	bltu	a5,s2,1ad2 <RMP_Thd_Rcv+0x200>
    1a1e:	82018613          	addi	a2,gp,-2016 # 20000090 <RMP_Delay>
    1a22:	4008                	lw	a0,0(s0)
    1a24:	425c                	lw	a5,4(a2)
    1a26:	83c18593          	addi	a1,gp,-1988 # 200000ac <RMP_Tick>
    1a2a:	02c78463          	beq	a5,a2,1a52 <RMP_Thd_Rcv+0x180>
    1a2e:	83c18593          	addi	a1,gp,-1988 # 200000ac <RMP_Tick>
    1a32:	5398                	lw	a4,32(a5)
    1a34:	4194                	lw	a3,0(a1)
    1a36:	8f15                	sub	a4,a4,a3
    1a38:	00e97863          	bgeu	s2,a4,1a48 <RMP_Thd_Rcv+0x176>
    1a3c:	a819                	j	1a52 <RMP_Thd_Rcv+0x180>
    1a3e:	5718                	lw	a4,40(a4)
    1a40:	4194                	lw	a3,0(a1)
    1a42:	8f15                	sub	a4,a4,a3
    1a44:	00e96763          	bltu	s2,a4,1a52 <RMP_Thd_Rcv+0x180>
    1a48:	43dc                	lw	a5,4(a5)
    1a4a:	ff878713          	addi	a4,a5,-8
    1a4e:	fec798e3          	bne	a5,a2,1a3e <RMP_Thd_Rcv+0x16c>
    1a52:	418c                	lw	a1,0(a1)
    1a54:	00850693          	addi	a3,a0,8
    1a58:	992e                	add	s2,s2,a1
    1a5a:	03252423          	sw	s2,40(a0)
    1a5e:	4398                	lw	a4,0(a5)
    1a60:	c394                	sw	a3,0(a5)
    1a62:	c55c                	sw	a5,12(a0)
    1a64:	c518                	sw	a4,8(a0)
    1a66:	c354                	sw	a3,4(a4)
    1a68:	401c                	lw	a5,0(s0)
    1a6a:	4f9c                	lw	a5,24(a5)
    1a6c:	4018                	lw	a4,0(s0)
    1a6e:	f007f793          	andi	a5,a5,-256
    1a72:	0057e793          	ori	a5,a5,5
    1a76:	cf1c                	sw	a5,24(a4)
    1a78:	4098                	lw	a4,0(s1)
    1a7a:	4785                	li	a5,1
    1a7c:	06f70763          	beq	a4,a5,1aea <RMP_Thd_Rcv+0x218>
    1a80:	4098                	lw	a4,0(s1)
    1a82:	04e7f763          	bgeu	a5,a4,1ad0 <RMP_Thd_Rcv+0x1fe>
    1a86:	409c                	lw	a5,0(s1)
    1a88:	17fd                	addi	a5,a5,-1
    1a8a:	c09c                	sw	a5,0(s1)
    1a8c:	401c                	lw	a5,0(s0)
    1a8e:	57dc                	lw	a5,44(a5)
    1a90:	00f9a023          	sw	a5,0(s3)
    1a94:	418020ef          	jal	ra,3eac <RMP_Int_Disable>
    1a98:	4705                	li	a4,1
    1a9a:	00ea2023          	sw	a4,0(s4)
    1a9e:	409c                	lw	a5,0(s1)
    1aa0:	0785                	addi	a5,a5,1
    1aa2:	c09c                	sw	a5,0(s1)
    1aa4:	401c                	lw	a5,0(s0)
    1aa6:	57dc                	lw	a5,44(a5)
    1aa8:	4014                	lw	a3,0(s0)
    1aaa:	00f9a023          	sw	a5,0(s3)
    1aae:	4e9c                	lw	a5,24(a3)
    1ab0:	dff7f793          	andi	a5,a5,-513
    1ab4:	ce9c                	sw	a5,24(a3)
    1ab6:	409c                	lw	a5,0(s1)
    1ab8:	0ae78363          	beq	a5,a4,1b5e <RMP_Thd_Rcv+0x28c>
    1abc:	409c                	lw	a5,0(s1)
    1abe:	04f77163          	bgeu	a4,a5,1b00 <RMP_Thd_Rcv+0x22e>
    1ac2:	409c                	lw	a5,0(s1)
    1ac4:	17fd                	addi	a5,a5,-1
    1ac6:	c09c                	sw	a5,0(s1)
    1ac8:	401c                	lw	a5,0(s0)
    1aca:	5f88                	lw	a0,56(a5)
    1acc:	f7efe06f          	j	24a <__riscv_restore_4>
    1ad0:	a001                	j	1ad0 <RMP_Thd_Rcv+0x1fe>
    1ad2:	401c                	lw	a5,0(s0)
    1ad4:	4f9c                	lw	a5,24(a5)
    1ad6:	4018                	lw	a4,0(s0)
    1ad8:	f007f793          	andi	a5,a5,-256
    1adc:	0047e793          	ori	a5,a5,4
    1ae0:	cf1c                	sw	a5,24(a4)
    1ae2:	4098                	lw	a4,0(s1)
    1ae4:	4785                	li	a5,1
    1ae6:	f8f71de3          	bne	a4,a5,1a80 <RMP_Thd_Rcv+0x1ae>
    1aea:	0004a023          	sw	zero,0(s1)
    1aee:	000a2023          	sw	zero,0(s4)
    1af2:	83418793          	addi	a5,gp,-1996 # 200000a4 <RMP_Sched_Pend>
    1af6:	4398                	lw	a4,0(a5)
    1af8:	e359                	bnez	a4,1b7e <RMP_Thd_Rcv+0x2ac>
    1afa:	3b8020ef          	jal	ra,3eb2 <RMP_Int_Enable>
    1afe:	b779                	j	1a8c <RMP_Thd_Rcv+0x1ba>
    1b00:	a001                	j	1b00 <RMP_Thd_Rcv+0x22e>
    1b02:	401c                	lw	a5,0(s0)
    1b04:	57dc                	lw	a5,44(a5)
    1b06:	4018                	lw	a4,0(s0)
    1b08:	00f9a023          	sw	a5,0(s3)
    1b0c:	4f1c                	lw	a5,24(a4)
    1b0e:	dff7f793          	andi	a5,a5,-513
    1b12:	cf1c                	sw	a5,24(a4)
    1b14:	4098                	lw	a4,0(s1)
    1b16:	4785                	li	a5,1
    1b18:	ecf712e3          	bne	a4,a5,19dc <RMP_Thd_Rcv+0x10a>
    1b1c:	0004a023          	sw	zero,0(s1)
    1b20:	000a2023          	sw	zero,0(s4)
    1b24:	83418793          	addi	a5,gp,-1996 # 200000a4 <RMP_Sched_Pend>
    1b28:	4398                	lw	a4,0(a5)
    1b2a:	e729                	bnez	a4,1b74 <RMP_Thd_Rcv+0x2a2>
    1b2c:	386020ef          	jal	ra,3eb2 <RMP_Int_Enable>
    1b30:	4501                	li	a0,0
    1b32:	f18fe06f          	j	24a <__riscv_restore_4>
    1b36:	4705                	li	a4,1
    1b38:	82e1aa23          	sw	a4,-1996(gp) # 200000a4 <RMP_Sched_Pend>
    1b3c:	bde1                	j	1a14 <RMP_Thd_Rcv+0x142>
    1b3e:	52dc                	lw	a5,36(a3)
    1b40:	52d0                	lw	a2,36(a3)
    1b42:	00f717b3          	sll	a5,a4,a5
    1b46:	8215                	srli	a2,a2,0x5
    1b48:	00261593          	slli	a1,a2,0x2
    1b4c:	81c18613          	addi	a2,gp,-2020 # 2000008c <RMP_Bitmap>
    1b50:	962e                	add	a2,a2,a1
    1b52:	420c                	lw	a1,0(a2)
    1b54:	fff7c793          	not	a5,a5
    1b58:	8fed                	and	a5,a5,a1
    1b5a:	c21c                	sw	a5,0(a2)
    1b5c:	b56d                	j	1a06 <RMP_Thd_Rcv+0x134>
    1b5e:	0004a023          	sw	zero,0(s1)
    1b62:	000a2023          	sw	zero,0(s4)
    1b66:	83418793          	addi	a5,gp,-1996 # 200000a4 <RMP_Sched_Pend>
    1b6a:	4398                	lw	a4,0(a5)
    1b6c:	ef11                	bnez	a4,1b88 <RMP_Thd_Rcv+0x2b6>
    1b6e:	344020ef          	jal	ra,3eb2 <RMP_Int_Enable>
    1b72:	bf99                	j	1ac8 <RMP_Thd_Rcv+0x1f6>
    1b74:	0007a023          	sw	zero,0(a5)
    1b78:	085000ef          	jal	ra,23fc <_RMP_Yield>
    1b7c:	bf45                	j	1b2c <RMP_Thd_Rcv+0x25a>
    1b7e:	0007a023          	sw	zero,0(a5)
    1b82:	07b000ef          	jal	ra,23fc <_RMP_Yield>
    1b86:	bf95                	j	1afa <RMP_Thd_Rcv+0x228>
    1b88:	0007a023          	sw	zero,0(a5)
    1b8c:	071000ef          	jal	ra,23fc <_RMP_Yield>
    1b90:	bff9                	j	1b6e <RMP_Thd_Rcv+0x29c>
    1b92:	556d                	li	a0,-5
    1b94:	8082                	ret
    1b96:	409c                	lw	a5,0(s1)
    1b98:	00e78b63          	beq	a5,a4,1bae <RMP_Thd_Rcv+0x2dc>
    1b9c:	409c                	lw	a5,0(s1)
    1b9e:	00f77763          	bgeu	a4,a5,1bac <RMP_Thd_Rcv+0x2da>
    1ba2:	409c                	lw	a5,0(s1)
    1ba4:	556d                	li	a0,-5
    1ba6:	17fd                	addi	a5,a5,-1
    1ba8:	c09c                	sw	a5,0(s1)
    1baa:	bbe5                	j	19a2 <RMP_Thd_Rcv+0xd0>
    1bac:	a001                	j	1bac <RMP_Thd_Rcv+0x2da>
    1bae:	0004a023          	sw	zero,0(s1)
    1bb2:	000a2023          	sw	zero,0(s4)
    1bb6:	83418793          	addi	a5,gp,-1996 # 200000a4 <RMP_Sched_Pend>
    1bba:	4398                	lw	a4,0(a5)
    1bbc:	e709                	bnez	a4,1bc6 <RMP_Thd_Rcv+0x2f4>
    1bbe:	2f4020ef          	jal	ra,3eb2 <RMP_Int_Enable>
    1bc2:	556d                	li	a0,-5
    1bc4:	bbf9                	j	19a2 <RMP_Thd_Rcv+0xd0>
    1bc6:	0007a023          	sw	zero,0(a5)
    1bca:	033000ef          	jal	ra,23fc <_RMP_Yield>
    1bce:	bfc5                	j	1bbe <RMP_Thd_Rcv+0x2ec>

00001bd0 <RMP_Sem_Crt>:
    1bd0:	c549                	beqz	a0,1c5a <RMP_Sem_Crt+0x8a>
    1bd2:	e5efe2ef          	jal	t0,230 <__riscv_save_0>
    1bd6:	842a                	mv	s0,a0
    1bd8:	84ae                	mv	s1,a1
    1bda:	2d2020ef          	jal	ra,3eac <RMP_Int_Disable>
    1bde:	83018693          	addi	a3,gp,-2000 # 200000a0 <RMP_Sched_Locked>
    1be2:	4705                	li	a4,1
    1be4:	c298                	sw	a4,0(a3)
    1be6:	82c18793          	addi	a5,gp,-2004 # 2000009c <RMP_Sched_Lock_Cnt>
    1bea:	4390                	lw	a2,0(a5)
    1bec:	0605                	addi	a2,a2,1
    1bee:	c390                	sw	a2,0(a5)
    1bf0:	4410                	lw	a2,8(s0)
    1bf2:	e635                	bnez	a2,1c5e <RMP_Sem_Crt+0x8e>
    1bf4:	3e700613          	li	a2,999
    1bf8:	04966563          	bltu	a2,s1,1c42 <RMP_Sem_Crt+0x72>
    1bfc:	c444                	sw	s1,12(s0)
    1bfe:	c418                	sw	a4,8(s0)
    1c00:	c000                	sw	s0,0(s0)
    1c02:	c040                	sw	s0,4(s0)
    1c04:	4390                	lw	a2,0(a5)
    1c06:	00e60c63          	beq	a2,a4,1c1e <RMP_Sem_Crt+0x4e>
    1c0a:	4394                	lw	a3,0(a5)
    1c0c:	00d77863          	bgeu	a4,a3,1c1c <RMP_Sem_Crt+0x4c>
    1c10:	4398                	lw	a4,0(a5)
    1c12:	4501                	li	a0,0
    1c14:	177d                	addi	a4,a4,-1
    1c16:	c398                	sw	a4,0(a5)
    1c18:	e3cfe06f          	j	254 <__riscv_restore_0>
    1c1c:	a001                	j	1c1c <RMP_Sem_Crt+0x4c>
    1c1e:	0007a023          	sw	zero,0(a5)
    1c22:	0006a023          	sw	zero,0(a3)
    1c26:	83418793          	addi	a5,gp,-1996 # 200000a4 <RMP_Sched_Pend>
    1c2a:	4398                	lw	a4,0(a5)
    1c2c:	e711                	bnez	a4,1c38 <RMP_Sem_Crt+0x68>
    1c2e:	284020ef          	jal	ra,3eb2 <RMP_Int_Enable>
    1c32:	4501                	li	a0,0
    1c34:	e20fe06f          	j	254 <__riscv_restore_0>
    1c38:	0007a023          	sw	zero,0(a5)
    1c3c:	7c0000ef          	jal	ra,23fc <_RMP_Yield>
    1c40:	b7fd                	j	1c2e <RMP_Sem_Crt+0x5e>
    1c42:	4390                	lw	a2,0(a5)
    1c44:	02e60963          	beq	a2,a4,1c76 <RMP_Sem_Crt+0xa6>
    1c48:	4394                	lw	a3,0(a5)
    1c4a:	00d77763          	bgeu	a4,a3,1c58 <RMP_Sem_Crt+0x88>
    1c4e:	4398                	lw	a4,0(a5)
    1c50:	556d                	li	a0,-5
    1c52:	177d                	addi	a4,a4,-1
    1c54:	c398                	sw	a4,0(a5)
    1c56:	b7c9                	j	1c18 <RMP_Sem_Crt+0x48>
    1c58:	a001                	j	1c58 <RMP_Sem_Crt+0x88>
    1c5a:	5569                	li	a0,-6
    1c5c:	8082                	ret
    1c5e:	4390                	lw	a2,0(a5)
    1c60:	02e60763          	beq	a2,a4,1c8e <RMP_Sem_Crt+0xbe>
    1c64:	4394                	lw	a3,0(a5)
    1c66:	00d77763          	bgeu	a4,a3,1c74 <RMP_Sem_Crt+0xa4>
    1c6a:	4398                	lw	a4,0(a5)
    1c6c:	5569                	li	a0,-6
    1c6e:	177d                	addi	a4,a4,-1
    1c70:	c398                	sw	a4,0(a5)
    1c72:	b75d                	j	1c18 <RMP_Sem_Crt+0x48>
    1c74:	a001                	j	1c74 <RMP_Sem_Crt+0xa4>
    1c76:	0007a023          	sw	zero,0(a5)
    1c7a:	0006a023          	sw	zero,0(a3)
    1c7e:	83418793          	addi	a5,gp,-1996 # 200000a4 <RMP_Sched_Pend>
    1c82:	4398                	lw	a4,0(a5)
    1c84:	e30d                	bnez	a4,1ca6 <RMP_Sem_Crt+0xd6>
    1c86:	22c020ef          	jal	ra,3eb2 <RMP_Int_Enable>
    1c8a:	556d                	li	a0,-5
    1c8c:	b771                	j	1c18 <RMP_Sem_Crt+0x48>
    1c8e:	0007a023          	sw	zero,0(a5)
    1c92:	0006a023          	sw	zero,0(a3)
    1c96:	83418793          	addi	a5,gp,-1996 # 200000a4 <RMP_Sched_Pend>
    1c9a:	4398                	lw	a4,0(a5)
    1c9c:	eb11                	bnez	a4,1cb0 <RMP_Sem_Crt+0xe0>
    1c9e:	214020ef          	jal	ra,3eb2 <RMP_Int_Enable>
    1ca2:	5569                	li	a0,-6
    1ca4:	bf95                	j	1c18 <RMP_Sem_Crt+0x48>
    1ca6:	0007a023          	sw	zero,0(a5)
    1caa:	752000ef          	jal	ra,23fc <_RMP_Yield>
    1cae:	bfe1                	j	1c86 <RMP_Sem_Crt+0xb6>
    1cb0:	0007a023          	sw	zero,0(a5)
    1cb4:	748000ef          	jal	ra,23fc <_RMP_Yield>
    1cb8:	b7dd                	j	1c9e <RMP_Sem_Crt+0xce>

00001cba <RMP_Sem_Pend>:
    1cba:	1c050f63          	beqz	a0,1e98 <RMP_Sem_Pend+0x1de>
    1cbe:	d72fe2ef          	jal	t0,230 <__riscv_save_0>
    1cc2:	84aa                	mv	s1,a0
    1cc4:	842e                	mv	s0,a1
    1cc6:	1e6020ef          	jal	ra,3eac <RMP_Int_Disable>
    1cca:	83018513          	addi	a0,gp,-2000 # 200000a0 <RMP_Sched_Locked>
    1cce:	4685                	li	a3,1
    1cd0:	c114                	sw	a3,0(a0)
    1cd2:	82c18813          	addi	a6,gp,-2004 # 2000009c <RMP_Sched_Lock_Cnt>
    1cd6:	00082783          	lw	a5,0(a6)
    1cda:	0785                	addi	a5,a5,1
    1cdc:	00f82023          	sw	a5,0(a6)
    1ce0:	4498                	lw	a4,8(s1)
    1ce2:	18d71b63          	bne	a4,a3,1e78 <RMP_Sem_Pend+0x1be>
    1ce6:	44dc                	lw	a5,12(s1)
    1ce8:	12079463          	bnez	a5,1e10 <RMP_Sem_Pend+0x156>
    1cec:	1a040863          	beqz	s0,1e9c <RMP_Sem_Pend+0x1e2>
    1cf0:	83818913          	addi	s2,gp,-1992 # 200000a8 <RMP_Thd_Cur>
    1cf4:	00092783          	lw	a5,0(s2)
    1cf8:	4f94                	lw	a3,24(a5)
    1cfa:	1006f693          	andi	a3,a3,256
    1cfe:	ee89                	bnez	a3,1d18 <RMP_Sem_Pend+0x5e>
    1d00:	4390                	lw	a2,0(a5)
    1d02:	43d4                	lw	a3,4(a5)
    1d04:	12d60a63          	beq	a2,a3,1e38 <RMP_Sem_Pend+0x17e>
    1d08:	4398                	lw	a4,0(a5)
    1d0a:	43d4                	lw	a3,4(a5)
    1d0c:	c298                	sw	a4,0(a3)
    1d0e:	c354                	sw	a3,4(a4)
    1d10:	00092703          	lw	a4,0(s2)
    1d14:	0ee78663          	beq	a5,a4,1e00 <RMP_Sem_Pend+0x146>
    1d18:	00092783          	lw	a5,0(s2)
    1d1c:	4098                	lw	a4,0(s1)
    1d1e:	c09c                	sw	a5,0(s1)
    1d20:	c3c4                	sw	s1,4(a5)
    1d22:	c398                	sw	a4,0(a5)
    1d24:	c35c                	sw	a5,4(a4)
    1d26:	67e1                	lui	a5,0x18
    1d28:	69f78793          	addi	a5,a5,1695 # 1869f <_data_lma+0x146b7>
    1d2c:	0487f463          	bgeu	a5,s0,1d74 <RMP_Sem_Pend+0xba>
    1d30:	00092783          	lw	a5,0(s2)
    1d34:	4f9c                	lw	a5,24(a5)
    1d36:	00092703          	lw	a4,0(s2)
    1d3a:	f007f793          	andi	a5,a5,-256
    1d3e:	0077e793          	ori	a5,a5,7
    1d42:	cf1c                	sw	a5,24(a4)
    1d44:	00092703          	lw	a4,0(s2)
    1d48:	4785                	li	a5,1
    1d4a:	02072c23          	sw	zero,56(a4)
    1d4e:	00082703          	lw	a4,0(a6)
    1d52:	08f70c63          	beq	a4,a5,1dea <RMP_Sem_Pend+0x130>
    1d56:	00082703          	lw	a4,0(a6)
    1d5a:	00e7fc63          	bgeu	a5,a4,1d72 <RMP_Sem_Pend+0xb8>
    1d5e:	00082783          	lw	a5,0(a6)
    1d62:	17fd                	addi	a5,a5,-1
    1d64:	00f82023          	sw	a5,0(a6)
    1d68:	00092783          	lw	a5,0(s2)
    1d6c:	5f88                	lw	a0,56(a5)
    1d6e:	ce6fe06f          	j	254 <__riscv_restore_0>
    1d72:	a001                	j	1d72 <RMP_Sem_Pend+0xb8>
    1d74:	82018613          	addi	a2,gp,-2016 # 20000090 <RMP_Delay>
    1d78:	00092883          	lw	a7,0(s2)
    1d7c:	425c                	lw	a5,4(a2)
    1d7e:	83c18593          	addi	a1,gp,-1988 # 200000ac <RMP_Tick>
    1d82:	02c78463          	beq	a5,a2,1daa <RMP_Sem_Pend+0xf0>
    1d86:	83c18593          	addi	a1,gp,-1988 # 200000ac <RMP_Tick>
    1d8a:	5398                	lw	a4,32(a5)
    1d8c:	4194                	lw	a3,0(a1)
    1d8e:	8f15                	sub	a4,a4,a3
    1d90:	00e47863          	bgeu	s0,a4,1da0 <RMP_Sem_Pend+0xe6>
    1d94:	a819                	j	1daa <RMP_Sem_Pend+0xf0>
    1d96:	5718                	lw	a4,40(a4)
    1d98:	4194                	lw	a3,0(a1)
    1d9a:	8f15                	sub	a4,a4,a3
    1d9c:	00e46763          	bltu	s0,a4,1daa <RMP_Sem_Pend+0xf0>
    1da0:	43dc                	lw	a5,4(a5)
    1da2:	ff878713          	addi	a4,a5,-8
    1da6:	fec798e3          	bne	a5,a2,1d96 <RMP_Sem_Pend+0xdc>
    1daa:	418c                	lw	a1,0(a1)
    1dac:	00888693          	addi	a3,a7,8
    1db0:	942e                	add	s0,s0,a1
    1db2:	0288a423          	sw	s0,40(a7)
    1db6:	4398                	lw	a4,0(a5)
    1db8:	c394                	sw	a3,0(a5)
    1dba:	00f8a623          	sw	a5,12(a7)
    1dbe:	00e8a423          	sw	a4,8(a7)
    1dc2:	c354                	sw	a3,4(a4)
    1dc4:	00092783          	lw	a5,0(s2)
    1dc8:	4f9c                	lw	a5,24(a5)
    1dca:	00092703          	lw	a4,0(s2)
    1dce:	f007f793          	andi	a5,a5,-256
    1dd2:	0087e793          	ori	a5,a5,8
    1dd6:	cf1c                	sw	a5,24(a4)
    1dd8:	00092703          	lw	a4,0(s2)
    1ddc:	4785                	li	a5,1
    1dde:	02072c23          	sw	zero,56(a4)
    1de2:	00082703          	lw	a4,0(a6)
    1de6:	f6f718e3          	bne	a4,a5,1d56 <RMP_Sem_Pend+0x9c>
    1dea:	00082023          	sw	zero,0(a6)
    1dee:	00052023          	sw	zero,0(a0)
    1df2:	83418793          	addi	a5,gp,-1996 # 200000a4 <RMP_Sched_Pend>
    1df6:	4398                	lw	a4,0(a5)
    1df8:	eb01                	bnez	a4,1e08 <RMP_Sem_Pend+0x14e>
    1dfa:	0b8020ef          	jal	ra,3eb2 <RMP_Int_Enable>
    1dfe:	b7ad                	j	1d68 <RMP_Sem_Pend+0xae>
    1e00:	4705                	li	a4,1
    1e02:	82e1aa23          	sw	a4,-1996(gp) # 200000a4 <RMP_Sched_Pend>
    1e06:	bf09                	j	1d18 <RMP_Sem_Pend+0x5e>
    1e08:	0007a023          	sw	zero,0(a5)
    1e0c:	2bc5                	jal	23fc <_RMP_Yield>
    1e0e:	b7f5                	j	1dfa <RMP_Sem_Pend+0x140>
    1e10:	44dc                	lw	a5,12(s1)
    1e12:	17fd                	addi	a5,a5,-1
    1e14:	c4dc                	sw	a5,12(s1)
    1e16:	00082783          	lw	a5,0(a6)
    1e1a:	02e78f63          	beq	a5,a4,1e58 <RMP_Sem_Pend+0x19e>
    1e1e:	00082783          	lw	a5,0(a6)
    1e22:	00f77a63          	bgeu	a4,a5,1e36 <RMP_Sem_Pend+0x17c>
    1e26:	00082783          	lw	a5,0(a6)
    1e2a:	17fd                	addi	a5,a5,-1
    1e2c:	00f82023          	sw	a5,0(a6)
    1e30:	44c8                	lw	a0,12(s1)
    1e32:	c22fe06f          	j	254 <__riscv_restore_0>
    1e36:	a001                	j	1e36 <RMP_Sem_Pend+0x17c>
    1e38:	53cc                	lw	a1,36(a5)
    1e3a:	53d4                	lw	a3,36(a5)
    1e3c:	00b71733          	sll	a4,a4,a1
    1e40:	8295                	srli	a3,a3,0x5
    1e42:	00269613          	slli	a2,a3,0x2
    1e46:	81c18693          	addi	a3,gp,-2020 # 2000008c <RMP_Bitmap>
    1e4a:	96b2                	add	a3,a3,a2
    1e4c:	4290                	lw	a2,0(a3)
    1e4e:	fff74713          	not	a4,a4
    1e52:	8f71                	and	a4,a4,a2
    1e54:	c298                	sw	a4,0(a3)
    1e56:	bd4d                	j	1d08 <RMP_Sem_Pend+0x4e>
    1e58:	00082023          	sw	zero,0(a6)
    1e5c:	00052023          	sw	zero,0(a0)
    1e60:	83418793          	addi	a5,gp,-1996 # 200000a4 <RMP_Sched_Pend>
    1e64:	4398                	lw	a4,0(a5)
    1e66:	e709                	bnez	a4,1e70 <RMP_Sem_Pend+0x1b6>
    1e68:	04a020ef          	jal	ra,3eb2 <RMP_Int_Enable>
    1e6c:	44c8                	lw	a0,12(s1)
    1e6e:	b7d1                	j	1e32 <RMP_Sem_Pend+0x178>
    1e70:	0007a023          	sw	zero,0(a5)
    1e74:	2361                	jal	23fc <_RMP_Yield>
    1e76:	bfcd                	j	1e68 <RMP_Sem_Pend+0x1ae>
    1e78:	00082783          	lw	a5,0(a6)
    1e7c:	04d78063          	beq	a5,a3,1ebc <RMP_Sem_Pend+0x202>
    1e80:	00082783          	lw	a5,0(a6)
    1e84:	00f6f963          	bgeu	a3,a5,1e96 <RMP_Sem_Pend+0x1dc>
    1e88:	00082783          	lw	a5,0(a6)
    1e8c:	5569                	li	a0,-6
    1e8e:	17fd                	addi	a5,a5,-1
    1e90:	00f82023          	sw	a5,0(a6)
    1e94:	bde9                	j	1d6e <RMP_Sem_Pend+0xb4>
    1e96:	a001                	j	1e96 <RMP_Sem_Pend+0x1dc>
    1e98:	5569                	li	a0,-6
    1e9a:	8082                	ret
    1e9c:	00082783          	lw	a5,0(a6)
    1ea0:	02e78a63          	beq	a5,a4,1ed4 <RMP_Sem_Pend+0x21a>
    1ea4:	00082783          	lw	a5,0(a6)
    1ea8:	00f77963          	bgeu	a4,a5,1eba <RMP_Sem_Pend+0x200>
    1eac:	00082783          	lw	a5,0(a6)
    1eb0:	556d                	li	a0,-5
    1eb2:	17fd                	addi	a5,a5,-1
    1eb4:	00f82023          	sw	a5,0(a6)
    1eb8:	bd5d                	j	1d6e <RMP_Sem_Pend+0xb4>
    1eba:	a001                	j	1eba <RMP_Sem_Pend+0x200>
    1ebc:	00082023          	sw	zero,0(a6)
    1ec0:	00052023          	sw	zero,0(a0)
    1ec4:	83418793          	addi	a5,gp,-1996 # 200000a4 <RMP_Sched_Pend>
    1ec8:	4398                	lw	a4,0(a5)
    1eca:	e30d                	bnez	a4,1eec <RMP_Sem_Pend+0x232>
    1ecc:	7e7010ef          	jal	ra,3eb2 <RMP_Int_Enable>
    1ed0:	5569                	li	a0,-6
    1ed2:	bd71                	j	1d6e <RMP_Sem_Pend+0xb4>
    1ed4:	00082023          	sw	zero,0(a6)
    1ed8:	00052023          	sw	zero,0(a0)
    1edc:	83418793          	addi	a5,gp,-1996 # 200000a4 <RMP_Sched_Pend>
    1ee0:	4398                	lw	a4,0(a5)
    1ee2:	eb09                	bnez	a4,1ef4 <RMP_Sem_Pend+0x23a>
    1ee4:	7cf010ef          	jal	ra,3eb2 <RMP_Int_Enable>
    1ee8:	556d                	li	a0,-5
    1eea:	b551                	j	1d6e <RMP_Sem_Pend+0xb4>
    1eec:	0007a023          	sw	zero,0(a5)
    1ef0:	2331                	jal	23fc <_RMP_Yield>
    1ef2:	bfe9                	j	1ecc <RMP_Sem_Pend+0x212>
    1ef4:	0007a023          	sw	zero,0(a5)
    1ef8:	2311                	jal	23fc <_RMP_Yield>
    1efa:	b7ed                	j	1ee4 <RMP_Sem_Pend+0x22a>

00001efc <RMP_Sem_Post>:
    1efc:	14050263          	beqz	a0,2040 <RMP_Sem_Post+0x144>
    1f00:	14058063          	beqz	a1,2040 <RMP_Sem_Post+0x144>
    1f04:	b2cfe2ef          	jal	t0,230 <__riscv_save_0>
    1f08:	842a                	mv	s0,a0
    1f0a:	84ae                	mv	s1,a1
    1f0c:	7a1010ef          	jal	ra,3eac <RMP_Int_Disable>
    1f10:	83018e13          	addi	t3,gp,-2000 # 200000a0 <RMP_Sched_Locked>
    1f14:	4705                	li	a4,1
    1f16:	00ee2023          	sw	a4,0(t3)
    1f1a:	82c18813          	addi	a6,gp,-2004 # 2000009c <RMP_Sched_Lock_Cnt>
    1f1e:	00082783          	lw	a5,0(a6)
    1f22:	0785                	addi	a5,a5,1
    1f24:	00f82023          	sw	a5,0(a6)
    1f28:	4414                	lw	a3,8(s0)
    1f2a:	10e69d63          	bne	a3,a4,2044 <RMP_Sem_Post+0x148>
    1f2e:	445c                	lw	a5,12(s0)
    1f30:	3e700713          	li	a4,999
    1f34:	97a6                	add	a5,a5,s1
    1f36:	12f76763          	bltu	a4,a5,2064 <RMP_Sem_Post+0x168>
    1f3a:	444c                	lw	a1,12(s0)
    1f3c:	95a6                	add	a1,a1,s1
    1f3e:	c44c                	sw	a1,12(s0)
    1f40:	405c                	lw	a5,4(s0)
    1f42:	0a878c63          	beq	a5,s0,1ffa <RMP_Sem_Post+0xfe>
    1f46:	445c                	lw	a5,12(s0)
    1f48:	cbcd                	beqz	a5,1ffa <RMP_Sem_Post+0xfe>
    1f4a:	45a1                	li	a1,8
    1f4c:	9c818693          	addi	a3,gp,-1592 # 20000238 <RMP_Run>
    1f50:	81c18893          	addi	a7,gp,-2020 # 2000008c <RMP_Bitmap>
    1f54:	4505                	li	a0,1
    1f56:	a019                	j	1f5c <RMP_Sem_Post+0x60>
    1f58:	445c                	lw	a5,12(s0)
    1f5a:	c3c5                	beqz	a5,1ffa <RMP_Sem_Post+0xfe>
    1f5c:	405c                	lw	a5,4(s0)
    1f5e:	83818f13          	addi	t5,gp,-1992 # 200000a8 <RMP_Thd_Cur>
    1f62:	4398                	lw	a4,0(a5)
    1f64:	0047ae83          	lw	t4,4(a5)
    1f68:	00eea023          	sw	a4,0(t4)
    1f6c:	01d72223          	sw	t4,4(a4)
    1f70:	4f98                	lw	a4,24(a5)
    1f72:	0ff77713          	andi	a4,a4,255
    1f76:	00b71963          	bne	a4,a1,1f88 <RMP_Sem_Post+0x8c>
    1f7a:	4798                	lw	a4,8(a5)
    1f7c:	00c7ae83          	lw	t4,12(a5)
    1f80:	00eea023          	sw	a4,0(t4)
    1f84:	01d72223          	sw	t4,4(a4)
    1f88:	4f98                	lw	a4,24(a5)
    1f8a:	f0077713          	andi	a4,a4,-256
    1f8e:	00176713          	ori	a4,a4,1
    1f92:	cf98                	sw	a4,24(a5)
    1f94:	4f98                	lw	a4,24(a5)
    1f96:	10077713          	andi	a4,a4,256
    1f9a:	eb21                	bnez	a4,1fea <RMP_Sem_Post+0xee>
    1f9c:	53d8                	lw	a4,36(a5)
    1f9e:	83418f93          	addi	t6,gp,-1996 # 200000a4 <RMP_Sched_Pend>
    1fa2:	070e                	slli	a4,a4,0x3
    1fa4:	9736                	add	a4,a4,a3
    1fa6:	00072e83          	lw	t4,0(a4)
    1faa:	53d8                	lw	a4,36(a5)
    1fac:	070e                	slli	a4,a4,0x3
    1fae:	9736                	add	a4,a4,a3
    1fb0:	c31c                	sw	a5,0(a4)
    1fb2:	c3d8                	sw	a4,4(a5)
    1fb4:	01d7a023          	sw	t4,0(a5)
    1fb8:	00fea223          	sw	a5,4(t4)
    1fbc:	0247ae83          	lw	t4,36(a5)
    1fc0:	53d8                	lw	a4,36(a5)
    1fc2:	01d51eb3          	sll	t4,a0,t4
    1fc6:	8315                	srli	a4,a4,0x5
    1fc8:	070a                	slli	a4,a4,0x2
    1fca:	9746                	add	a4,a4,a7
    1fcc:	00072283          	lw	t0,0(a4)
    1fd0:	005eeeb3          	or	t4,t4,t0
    1fd4:	01d72023          	sw	t4,0(a4)
    1fd8:	0247ae83          	lw	t4,36(a5)
    1fdc:	000f2703          	lw	a4,0(t5)
    1fe0:	5358                	lw	a4,36(a4)
    1fe2:	01d77463          	bgeu	a4,t4,1fea <RMP_Sem_Post+0xee>
    1fe6:	00afa023          	sw	a0,0(t6)
    1fea:	0207ac23          	sw	zero,56(a5)
    1fee:	445c                	lw	a5,12(s0)
    1ff0:	17fd                	addi	a5,a5,-1
    1ff2:	c45c                	sw	a5,12(s0)
    1ff4:	405c                	lw	a5,4(s0)
    1ff6:	f68791e3          	bne	a5,s0,1f58 <RMP_Sem_Post+0x5c>
    1ffa:	00082703          	lw	a4,0(a6)
    1ffe:	4785                	li	a5,1
    2000:	00f70f63          	beq	a4,a5,201e <RMP_Sem_Post+0x122>
    2004:	00082703          	lw	a4,0(a6)
    2008:	00e7fa63          	bgeu	a5,a4,201c <RMP_Sem_Post+0x120>
    200c:	00082783          	lw	a5,0(a6)
    2010:	4501                	li	a0,0
    2012:	17fd                	addi	a5,a5,-1
    2014:	00f82023          	sw	a5,0(a6)
    2018:	a3cfe06f          	j	254 <__riscv_restore_0>
    201c:	a001                	j	201c <RMP_Sem_Post+0x120>
    201e:	00082023          	sw	zero,0(a6)
    2022:	000e2023          	sw	zero,0(t3)
    2026:	83418793          	addi	a5,gp,-1996 # 200000a4 <RMP_Sched_Pend>
    202a:	4398                	lw	a4,0(a5)
    202c:	e711                	bnez	a4,2038 <RMP_Sem_Post+0x13c>
    202e:	685010ef          	jal	ra,3eb2 <RMP_Int_Enable>
    2032:	4501                	li	a0,0
    2034:	a20fe06f          	j	254 <__riscv_restore_0>
    2038:	0007a023          	sw	zero,0(a5)
    203c:	26c1                	jal	23fc <_RMP_Yield>
    203e:	bfc5                	j	202e <RMP_Sem_Post+0x132>
    2040:	5569                	li	a0,-6
    2042:	8082                	ret
    2044:	00082783          	lw	a5,0(a6)
    2048:	02e78e63          	beq	a5,a4,2084 <RMP_Sem_Post+0x188>
    204c:	00082783          	lw	a5,0(a6)
    2050:	00f77963          	bgeu	a4,a5,2062 <RMP_Sem_Post+0x166>
    2054:	00082783          	lw	a5,0(a6)
    2058:	5569                	li	a0,-6
    205a:	17fd                	addi	a5,a5,-1
    205c:	00f82023          	sw	a5,0(a6)
    2060:	bf65                	j	2018 <RMP_Sem_Post+0x11c>
    2062:	a001                	j	2062 <RMP_Sem_Post+0x166>
    2064:	00082783          	lw	a5,0(a6)
    2068:	02d78a63          	beq	a5,a3,209c <RMP_Sem_Post+0x1a0>
    206c:	00082783          	lw	a5,0(a6)
    2070:	00f6f963          	bgeu	a3,a5,2082 <RMP_Sem_Post+0x186>
    2074:	00082783          	lw	a5,0(a6)
    2078:	556d                	li	a0,-5
    207a:	17fd                	addi	a5,a5,-1
    207c:	00f82023          	sw	a5,0(a6)
    2080:	bf61                	j	2018 <RMP_Sem_Post+0x11c>
    2082:	a001                	j	2082 <RMP_Sem_Post+0x186>
    2084:	00082023          	sw	zero,0(a6)
    2088:	000e2023          	sw	zero,0(t3)
    208c:	83418793          	addi	a5,gp,-1996 # 200000a4 <RMP_Sched_Pend>
    2090:	4398                	lw	a4,0(a5)
    2092:	e30d                	bnez	a4,20b4 <RMP_Sem_Post+0x1b8>
    2094:	61f010ef          	jal	ra,3eb2 <RMP_Int_Enable>
    2098:	5569                	li	a0,-6
    209a:	bfbd                	j	2018 <RMP_Sem_Post+0x11c>
    209c:	00082023          	sw	zero,0(a6)
    20a0:	000e2023          	sw	zero,0(t3)
    20a4:	83418793          	addi	a5,gp,-1996 # 200000a4 <RMP_Sched_Pend>
    20a8:	4398                	lw	a4,0(a5)
    20aa:	eb09                	bnez	a4,20bc <RMP_Sem_Post+0x1c0>
    20ac:	607010ef          	jal	ra,3eb2 <RMP_Int_Enable>
    20b0:	556d                	li	a0,-5
    20b2:	b79d                	j	2018 <RMP_Sem_Post+0x11c>
    20b4:	0007a023          	sw	zero,0(a5)
    20b8:	2691                	jal	23fc <_RMP_Yield>
    20ba:	bfe9                	j	2094 <RMP_Sem_Post+0x198>
    20bc:	0007a023          	sw	zero,0(a5)
    20c0:	2e35                	jal	23fc <_RMP_Yield>
    20c2:	b7ed                	j	20ac <RMP_Sem_Post+0x1b0>

000020c4 <RMP_Sem_Post_ISR>:
    20c4:	0e050563          	beqz	a0,21ae <RMP_Sem_Post_ISR+0xea>
    20c8:	0e058363          	beqz	a1,21ae <RMP_Sem_Post_ISR+0xea>
    20cc:	4518                	lw	a4,8(a0)
    20ce:	4785                	li	a5,1
    20d0:	0cf71f63          	bne	a4,a5,21ae <RMP_Sem_Post_ISR+0xea>
    20d4:	455c                	lw	a5,12(a0)
    20d6:	3e700713          	li	a4,999
    20da:	97ae                	add	a5,a5,a1
    20dc:	0cf76b63          	bltu	a4,a5,21b2 <RMP_Sem_Post_ISR+0xee>
    20e0:	455c                	lw	a5,12(a0)
    20e2:	95be                	add	a1,a1,a5
    20e4:	c54c                	sw	a1,12(a0)
    20e6:	415c                	lw	a5,4(a0)
    20e8:	0ca78163          	beq	a5,a0,21aa <RMP_Sem_Post_ISR+0xe6>
    20ec:	455c                	lw	a5,12(a0)
    20ee:	cfd5                	beqz	a5,21aa <RMP_Sem_Post_ISR+0xe6>
    20f0:	918fe2ef          	jal	t0,208 <__riscv_save_10>
    20f4:	84aa                	mv	s1,a0
    20f6:	83418993          	addi	s3,gp,-1996 # 200000a4 <RMP_Sched_Pend>
    20fa:	4b21                	li	s6,8
    20fc:	9c818a13          	addi	s4,gp,-1592 # 20000238 <RMP_Run>
    2100:	81c18913          	addi	s2,gp,-2020 # 2000008c <RMP_Bitmap>
    2104:	4b85                	li	s7,1
    2106:	a819                	j	211c <RMP_Sem_Post_ISR+0x58>
    2108:	02042c23          	sw	zero,56(s0)
    210c:	44dc                	lw	a5,12(s1)
    210e:	17fd                	addi	a5,a5,-1
    2110:	c4dc                	sw	a5,12(s1)
    2112:	40dc                	lw	a5,4(s1)
    2114:	08978863          	beq	a5,s1,21a4 <RMP_Sem_Post_ISR+0xe0>
    2118:	44dc                	lw	a5,12(s1)
    211a:	c7c9                	beqz	a5,21a4 <RMP_Sem_Post_ISR+0xe0>
    211c:	40c0                	lw	s0,4(s1)
    211e:	83818693          	addi	a3,gp,-1992 # 200000a8 <RMP_Thd_Cur>
    2122:	401c                	lw	a5,0(s0)
    2124:	4058                	lw	a4,4(s0)
    2126:	c31c                	sw	a5,0(a4)
    2128:	c3d8                	sw	a4,4(a5)
    212a:	4c1c                	lw	a5,24(s0)
    212c:	0ff7f793          	andi	a5,a5,255
    2130:	01679663          	bne	a5,s6,213c <RMP_Sem_Post_ISR+0x78>
    2134:	441c                	lw	a5,8(s0)
    2136:	4458                	lw	a4,12(s0)
    2138:	c31c                	sw	a5,0(a4)
    213a:	c3d8                	sw	a4,4(a5)
    213c:	4c1c                	lw	a5,24(s0)
    213e:	f007f793          	andi	a5,a5,-256
    2142:	0017e793          	ori	a5,a5,1
    2146:	cc1c                	sw	a5,24(s0)
    2148:	4c1c                	lw	a5,24(s0)
    214a:	1007f793          	andi	a5,a5,256
    214e:	ef8d                	bnez	a5,2188 <RMP_Sem_Post_ISR+0xc4>
    2150:	505c                	lw	a5,36(s0)
    2152:	078e                	slli	a5,a5,0x3
    2154:	97d2                	add	a5,a5,s4
    2156:	4398                	lw	a4,0(a5)
    2158:	505c                	lw	a5,36(s0)
    215a:	078e                	slli	a5,a5,0x3
    215c:	97d2                	add	a5,a5,s4
    215e:	c380                	sw	s0,0(a5)
    2160:	c05c                	sw	a5,4(s0)
    2162:	c018                	sw	a4,0(s0)
    2164:	c340                	sw	s0,4(a4)
    2166:	5058                	lw	a4,36(s0)
    2168:	505c                	lw	a5,36(s0)
    216a:	00eb9733          	sll	a4,s7,a4
    216e:	8395                	srli	a5,a5,0x5
    2170:	078a                	slli	a5,a5,0x2
    2172:	97ca                	add	a5,a5,s2
    2174:	4390                	lw	a2,0(a5)
    2176:	8f51                	or	a4,a4,a2
    2178:	c398                	sw	a4,0(a5)
    217a:	5058                	lw	a4,36(s0)
    217c:	429c                	lw	a5,0(a3)
    217e:	53dc                	lw	a5,36(a5)
    2180:	00e7f463          	bgeu	a5,a4,2188 <RMP_Sem_Post_ISR+0xc4>
    2184:	0179a023          	sw	s7,0(s3)
    2188:	0009a783          	lw	a5,0(s3)
    218c:	dfb5                	beqz	a5,2108 <RMP_Sem_Post_ISR+0x44>
    218e:	0009a023          	sw	zero,0(s3)
    2192:	24ad                	jal	23fc <_RMP_Yield>
    2194:	02042c23          	sw	zero,56(s0)
    2198:	44dc                	lw	a5,12(s1)
    219a:	17fd                	addi	a5,a5,-1
    219c:	c4dc                	sw	a5,12(s1)
    219e:	40dc                	lw	a5,4(s1)
    21a0:	f6979ce3          	bne	a5,s1,2118 <RMP_Sem_Post_ISR+0x54>
    21a4:	4501                	li	a0,0
    21a6:	89afe06f          	j	240 <__riscv_restore_10>
    21aa:	4501                	li	a0,0
    21ac:	8082                	ret
    21ae:	5569                	li	a0,-6
    21b0:	8082                	ret
    21b2:	556d                	li	a0,-5
    21b4:	8082                	ret

000021b6 <RMP_Ctx_Save>:
    21b6:	8082                	ret

000021b8 <RMP_Ctx_Load>:
    21b8:	8082                	ret

000021ba <main>:
    21ba:	876fe2ef          	jal	t0,230 <__riscv_save_0>
    21be:	2ad1                	jal	2392 <_RMP_Low_Level_Init>
    21c0:	8201ae23          	sw	zero,-1988(gp) # 200000ac <RMP_Tick>
    21c4:	8201a623          	sw	zero,-2004(gp) # 2000009c <RMP_Sched_Lock_Cnt>
    21c8:	8201a823          	sw	zero,-2000(gp) # 200000a0 <RMP_Sched_Locked>
    21cc:	8201aa23          	sw	zero,-1996(gp) # 200000a4 <RMP_Sched_Pend>
    21d0:	8401a023          	sw	zero,-1984(gp) # 200000b0 <RMP_Timer_Pend>
    21d4:	82018793          	addi	a5,gp,-2016 # 20000090 <RMP_Delay>
    21d8:	c39c                	sw	a5,0(a5)
    21da:	9c818613          	addi	a2,gp,-1592 # 20000238 <RMP_Run>
    21de:	c3dc                	sw	a5,4(a5)
    21e0:	9c818713          	addi	a4,gp,-1592 # 20000238 <RMP_Run>
    21e4:	4681                	li	a3,0
    21e6:	02000593          	li	a1,32
    21ea:	00369793          	slli	a5,a3,0x3
    21ee:	97b2                	add	a5,a5,a2
    21f0:	c398                	sw	a4,0(a5)
    21f2:	c3d8                	sw	a4,4(a5)
    21f4:	0685                	addi	a3,a3,1
    21f6:	0721                	addi	a4,a4,8
    21f8:	feb699e3          	bne	a3,a1,21ea <main+0x30>
    21fc:	98c18713          	addi	a4,gp,-1652 # 200001fc <RMP_Init_Thd>
    2200:	81c18593          	addi	a1,gp,-2020 # 2000008c <RMP_Bitmap>
    2204:	0005a023          	sw	zero,0(a1)
    2208:	98c18793          	addi	a5,gp,-1652 # 200001fc <RMP_Init_Thd>
    220c:	03c70693          	addi	a3,a4,60
    2210:	00078023          	sb	zero,0(a5)
    2214:	0785                	addi	a5,a5,1
    2216:	fed79de3          	bne	a5,a3,2210 <main+0x56>
    221a:	02072223          	sw	zero,36(a4)
    221e:	47a9                	li	a5,10
    2220:	cf5c                	sw	a5,28(a4)
    2222:	d31c                	sw	a5,32(a4)
    2224:	4785                	li	a5,1
    2226:	cf1c                	sw	a5,24(a4)
    2228:	94818793          	addi	a5,gp,-1720 # 200001b8 <RMP_Init_Stack+0xbc>
    222c:	db5c                	sw	a5,52(a4)
    222e:	01070793          	addi	a5,a4,16
    2232:	cb1c                	sw	a5,16(a4)
    2234:	cb5c                	sw	a5,20(a4)
    2236:	421c                	lw	a5,0(a2)
    2238:	c218                	sw	a4,0(a2)
    223a:	c350                	sw	a2,4(a4)
    223c:	c31c                	sw	a5,0(a4)
    223e:	c3d8                	sw	a4,4(a5)
    2240:	419c                	lw	a5,0(a1)
    2242:	00001537          	lui	a0,0x1
    2246:	0017e793          	ori	a5,a5,1
    224a:	c19c                	sw	a5,0(a1)
    224c:	82e1ac23          	sw	a4,-1992(gp) # 200000a8 <RMP_Thd_Cur>
    2250:	5b54                	lw	a3,52(a4)
    2252:	f2e50513          	addi	a0,a0,-210 # f2e <RMP_Init>
    2256:	82d1a423          	sw	a3,-2008(gp) # 20000098 <RMP_SP_Cur>
    225a:	5b4c                	lw	a1,52(a4)
    225c:	4a7010ef          	jal	ra,3f02 <_RMP_Start>
    2260:	4501                	li	a0,0
    2262:	ff3fd06f          	j	254 <__riscv_restore_0>

00002266 <_RMP_Stack_Init>:
    2266:	010107b7          	lui	a5,0x1010
    226a:	10178793          	addi	a5,a5,257 # 1010101 <_data_lma+0x100c119>
    226e:	c1dc                	sw	a5,4(a1)
    2270:	6789                	lui	a5,0x2
    2272:	88078793          	addi	a5,a5,-1920 # 1880 <RMP_Thd_Snd_ISR+0xae>
    2276:	c59c                	sw	a5,8(a1)
    2278:	00018793          	mv	a5,gp
    227c:	c5dc                	sw	a5,12(a1)
    227e:	040407b7          	lui	a5,0x4040
    2282:	40478793          	addi	a5,a5,1028 # 4040404 <_data_lma+0x403c41c>
    2286:	c99c                	sw	a5,16(a1)
    2288:	050507b7          	lui	a5,0x5050
    228c:	50578793          	addi	a5,a5,1285 # 5050505 <_data_lma+0x504c51d>
    2290:	c9dc                	sw	a5,20(a1)
    2292:	060607b7          	lui	a5,0x6060
    2296:	60678793          	addi	a5,a5,1542 # 6060606 <_data_lma+0x605c61e>
    229a:	cd9c                	sw	a5,24(a1)
    229c:	070707b7          	lui	a5,0x7070
    22a0:	70778793          	addi	a5,a5,1799 # 7070707 <_data_lma+0x706c71f>
    22a4:	cddc                	sw	a5,28(a1)
    22a6:	080817b7          	lui	a5,0x8081
    22aa:	80878793          	addi	a5,a5,-2040 # 8080808 <_data_lma+0x807c820>
    22ae:	d19c                	sw	a5,32(a1)
    22b0:	090917b7          	lui	a5,0x9091
    22b4:	90978793          	addi	a5,a5,-1783 # 9090909 <_data_lma+0x908c921>
    22b8:	d1dc                	sw	a5,36(a1)
    22ba:	111117b7          	lui	a5,0x11111
    22be:	11178793          	addi	a5,a5,273 # 11111111 <_data_lma+0x1110d129>
    22c2:	d5dc                	sw	a5,44(a1)
    22c4:	121217b7          	lui	a5,0x12121
    22c8:	21278793          	addi	a5,a5,530 # 12121212 <_data_lma+0x1211d22a>
    22cc:	d99c                	sw	a5,48(a1)
    22ce:	131317b7          	lui	a5,0x13131
    22d2:	31378793          	addi	a5,a5,787 # 13131313 <_data_lma+0x1312d32b>
    22d6:	d9dc                	sw	a5,52(a1)
    22d8:	141417b7          	lui	a5,0x14141
    22dc:	41478793          	addi	a5,a5,1044 # 14141414 <_data_lma+0x1413d42c>
    22e0:	dd9c                	sw	a5,56(a1)
    22e2:	151517b7          	lui	a5,0x15151
    22e6:	51578793          	addi	a5,a5,1301 # 15151515 <_data_lma+0x1514d52d>
    22ea:	dddc                	sw	a5,60(a1)
    22ec:	161617b7          	lui	a5,0x16161
    22f0:	61678793          	addi	a5,a5,1558 # 16161616 <_data_lma+0x1615d62e>
    22f4:	c1bc                	sw	a5,64(a1)
    22f6:	171717b7          	lui	a5,0x17171
    22fa:	71778793          	addi	a5,a5,1815 # 17171717 <_data_lma+0x1716d72f>
    22fe:	c1fc                	sw	a5,68(a1)
    2300:	181827b7          	lui	a5,0x18182
    2304:	81878793          	addi	a5,a5,-2024 # 18181818 <_data_lma+0x1817d830>
    2308:	c5bc                	sw	a5,72(a1)
    230a:	191927b7          	lui	a5,0x19192
    230e:	91978793          	addi	a5,a5,-1767 # 19191919 <_data_lma+0x1918d931>
    2312:	c5fc                	sw	a5,76(a1)
    2314:	202027b7          	lui	a5,0x20202
    2318:	02078793          	addi	a5,a5,32 # 20202020 <_eusrstack+0x1fa020>
    231c:	c9bc                	sw	a5,80(a1)
    231e:	212127b7          	lui	a5,0x21212
    2322:	12178793          	addi	a5,a5,289 # 21212121 <_eusrstack+0x120a121>
    2326:	c9fc                	sw	a5,84(a1)
    2328:	222227b7          	lui	a5,0x22222
    232c:	22278793          	addi	a5,a5,546 # 22222222 <_eusrstack+0x221a222>
    2330:	cdbc                	sw	a5,88(a1)
    2332:	232327b7          	lui	a5,0x23232
    2336:	32378793          	addi	a5,a5,803 # 23232323 <_eusrstack+0x322a323>
    233a:	cdfc                	sw	a5,92(a1)
    233c:	242427b7          	lui	a5,0x24242
    2340:	42478793          	addi	a5,a5,1060 # 24242424 <_eusrstack+0x423a424>
    2344:	d1bc                	sw	a5,96(a1)
    2346:	252527b7          	lui	a5,0x25252
    234a:	52578793          	addi	a5,a5,1317 # 25252525 <_eusrstack+0x524a525>
    234e:	d1fc                	sw	a5,100(a1)
    2350:	262627b7          	lui	a5,0x26262
    2354:	62678793          	addi	a5,a5,1574 # 26262626 <_eusrstack+0x625a626>
    2358:	d5bc                	sw	a5,104(a1)
    235a:	272727b7          	lui	a5,0x27272
    235e:	72778793          	addi	a5,a5,1831 # 27272727 <_eusrstack+0x726a727>
    2362:	d5fc                	sw	a5,108(a1)
    2364:	282837b7          	lui	a5,0x28283
    2368:	82878793          	addi	a5,a5,-2008 # 28282828 <_eusrstack+0x827a828>
    236c:	d9bc                	sw	a5,112(a1)
    236e:	292937b7          	lui	a5,0x29293
    2372:	92978793          	addi	a5,a5,-1751 # 29292929 <_eusrstack+0x928a929>
    2376:	d9fc                	sw	a5,116(a1)
    2378:	303037b7          	lui	a5,0x30303
    237c:	03078793          	addi	a5,a5,48 # 30303030 <_eusrstack+0x102fb030>
    2380:	ddbc                	sw	a5,120(a1)
    2382:	313137b7          	lui	a5,0x31313
    2386:	13178793          	addi	a5,a5,305 # 31313131 <_eusrstack+0x1130b131>
    238a:	c188                	sw	a0,0(a1)
    238c:	d590                	sw	a2,40(a1)
    238e:	ddfc                	sw	a5,124(a1)
    2390:	8082                	ret

00002392 <_RMP_Low_Level_Init>:
    2392:	e9ffd2ef          	jal	t0,230 <__riscv_save_0>
    2396:	4509                	li	a0,2
    2398:	d8afe0ef          	jal	ra,922 <NVIC_PriorityGroupConfig>
    239c:	654000ef          	jal	ra,29f0 <Delay_Init>
    23a0:	6571                	lui	a0,0x1c
    23a2:	20050513          	addi	a0,a0,512 # 1c200 <_data_lma+0x18218>
    23a6:	674000ef          	jal	ra,2a1a <USART_Printf_Init>
    23aa:	200007b7          	lui	a5,0x20000
    23ae:	0707a583          	lw	a1,112(a5) # 20000070 <SystemCoreClock>
    23b2:	00004537          	lui	a0,0x4
    23b6:	d4c50513          	addi	a0,a0,-692 # 3d4c <_read+0x9c>
    23ba:	724000ef          	jal	ra,2ade <iprintf>
    23be:	2ef010ef          	jal	ra,3eac <RMP_Int_Disable>
    23c2:	665d                	lui	a2,0x17
    23c4:	e000f7b7          	lui	a5,0xe000f
    23c8:	70060613          	addi	a2,a2,1792 # 17700 <_data_lma+0x13718>
    23cc:	cb90                	sw	a2,16(a5)
    23ce:	4681                	li	a3,0
    23d0:	cbd4                	sw	a3,20(a5)
    23d2:	03f00713          	li	a4,63
    23d6:	c398                	sw	a4,0(a5)
    23d8:	e000e7b7          	lui	a5,0xe000e
    23dc:	6711                	lui	a4,0x4
    23de:	10e7a023          	sw	a4,256(a5) # e000e100 <_eusrstack+0xc0006100>
    23e2:	e73fd06f          	j	254 <__riscv_restore_0>

000023e6 <_RMP_Plat_Hook>:
    23e6:	e4bfd2ef          	jal	t0,230 <__riscv_save_0>
    23ea:	2885                	jal	245a <Test_Handler>
    23ec:	e69fd06f          	j	254 <__riscv_restore_0>

000023f0 <RMP_Putchar>:
    23f0:	e41fd2ef          	jal	t0,230 <__riscv_save_0>
    23f4:	728000ef          	jal	ra,2b1c <putchar>
    23f8:	e5dfd06f          	j	254 <__riscv_restore_0>

000023fc <_RMP_Yield>:
    23fc:	e35fd2ef          	jal	t0,230 <__riscv_save_0>
    2400:	e000e7b7          	lui	a5,0xe000e
    2404:	6711                	lui	a4,0x4
    2406:	20e7a023          	sw	a4,512(a5) # e000e200 <_eusrstack+0xc0006200>
    240a:	313010ef          	jal	ra,3f1c <_RMP_Mem_FENCE>
    240e:	e47fd06f          	j	254 <__riscv_restore_0>

00002412 <_RMP_Int_Handler>:
    2412:	e1ffd2ef          	jal	t0,230 <__riscv_save_0>
    2416:	2f5010ef          	jal	ra,3f0a <_RMP_MCAUSE_Get>
    241a:	00054363          	bltz	a0,2420 <_RMP_Int_Handler+0xe>
    241e:	a001                	j	241e <_RMP_Int_Handler+0xc>
    2420:	00151793          	slli	a5,a0,0x1
    2424:	8385                	srli	a5,a5,0x1
    2426:	4731                	li	a4,12
    2428:	02e78063          	beq	a5,a4,2448 <_RMP_Int_Handler+0x36>
    242c:	4739                	li	a4,14
    242e:	00e79b63          	bne	a5,a4,2444 <_RMP_Int_Handler+0x32>
    2432:	e000e7b7          	lui	a5,0xe000e
    2436:	6711                	lui	a4,0x4
    2438:	28e7a023          	sw	a4,640(a5) # e000e280 <_eusrstack+0xc0006280>
    243c:	3bad                	jal	21b6 <RMP_Ctx_Save>
    243e:	b33fe0ef          	jal	ra,f70 <_RMP_Run_High>
    2442:	3b9d                	jal	21b8 <RMP_Ctx_Load>
    2444:	e11fd06f          	j	254 <__riscv_restore_0>
    2448:	e000f7b7          	lui	a5,0xe000f
    244c:	0007a223          	sw	zero,4(a5) # e000f004 <_eusrstack+0xc0007004>
    2450:	4505                	li	a0,1
    2452:	ba5fe0ef          	jal	ra,ff6 <_RMP_Tick_Handler>
    2456:	dfffd06f          	j	254 <__riscv_restore_0>

0000245a <Test_Handler>:
    245a:	8082                	ret

0000245c <Int_Init>:
    245c:	dd5fd2ef          	jal	t0,230 <__riscv_save_0>
    2460:	4585                	li	a1,1
    2462:	4511                	li	a0,4
    2464:	f42fe0ef          	jal	ra,ba6 <RCC_APB1PeriphClockCmd>
    2468:	200045b7          	lui	a1,0x20004
    246c:	34858793          	addi	a5,a1,840 # 20004348 <TIM4_Handle>
    2470:	00100737          	lui	a4,0x100
    2474:	c398                	sw	a4,0(a5)
    2476:	6715                	lui	a4,0x5
    2478:	40001437          	lui	s0,0x40001
    247c:	46070713          	addi	a4,a4,1120 # 5460 <_data_lma+0x1478>
    2480:	c3d8                	sw	a4,4(a5)
    2482:	80040513          	addi	a0,s0,-2048 # 40000800 <_eusrstack+0x1fff8800>
    2486:	34858593          	addi	a1,a1,840
    248a:	00078423          	sb	zero,8(a5)
    248e:	f36fe0ef          	jal	ra,bc4 <TIM_TimeBaseInit>
    2492:	4585                	li	a1,1
    2494:	80040513          	addi	a0,s0,-2048
    2498:	843fe0ef          	jal	ra,cda <TIM_ClearITPendingBit>
    249c:	86018793          	addi	a5,gp,-1952 # 200000d0 <NVIC_InitStruture>
    24a0:	02e00713          	li	a4,46
    24a4:	a39a                	sh	a4,0(a5)
    24a6:	86018513          	addi	a0,gp,-1952 # 200000d0 <NVIC_InitStruture>
    24aa:	4705                	li	a4,1
    24ac:	00078123          	sb	zero,2(a5)
    24b0:	c3d8                	sw	a4,4(a5)
    24b2:	c76fe0ef          	jal	ra,928 <NVIC_Init>
    24b6:	80040513          	addi	a0,s0,-2048
    24ba:	4605                	li	a2,1
    24bc:	4585                	li	a1,1
    24be:	fd8fe0ef          	jal	ra,c96 <TIM_ITConfig>
    24c2:	4585                	li	a1,1
    24c4:	80040513          	addi	a0,s0,-2048
    24c8:	fb4fe0ef          	jal	ra,c7c <TIM_Cmd>
    24cc:	d89fd06f          	j	254 <__riscv_restore_0>

000024d0 <TIM4_IRQHandler>:
    24d0:	1141                	addi	sp,sp,-16
    24d2:	c622                	sw	s0,12(sp)
    24d4:	40001437          	lui	s0,0x40001
    24d8:	80040513          	addi	a0,s0,-2048 # 40000800 <_eusrstack+0x1fff8800>
    24dc:	4585                	li	a1,1
    24de:	ffcfe0ef          	jal	ra,cda <TIM_ClearITPendingBit>
    24e2:	80040513          	addi	a0,s0,-2048
    24e6:	4585                	li	a1,1
    24e8:	fe6fe0ef          	jal	ra,cce <TIM_ClearFlag>
    24ec:	85018413          	addi	s0,gp,-1968 # 200000c0 <Count.5499>
    24f0:	401c                	lw	a5,0(s0)
    24f2:	6709                	lui	a4,0x2
    24f4:	70f70713          	addi	a4,a4,1807 # 270f <Test_Mail_2+0x55>
    24f8:	06f75263          	bge	a4,a5,255c <TIM4_IRQHandler+0x8c>
    24fc:	6715                	lui	a4,0x5
    24fe:	e1f70713          	addi	a4,a4,-481 # 4e1f <_data_lma+0xe37>
    2502:	00f75b63          	bge	a4,a5,2518 <TIM4_IRQHandler+0x48>
    2506:	e000e7b7          	lui	a5,0xe000e
    250a:	6711                	lui	a4,0x4
    250c:	18e7a223          	sw	a4,388(a5) # e000e184 <_eusrstack+0xc0006184>
    2510:	4432                	lw	s0,12(sp)
    2512:	0141                	addi	sp,sp,16
    2514:	30200073          	mret
    2518:	40013537          	lui	a0,0x40013
    251c:	0785                	addi	a5,a5,1
    251e:	c0050513          	addi	a0,a0,-1024 # 40012c00 <_eusrstack+0x2000ac00>
    2522:	c01c                	sw	a5,0(s0)
    2524:	fa6fe0ef          	jal	ra,cca <TIM_GetCounter>
    2528:	872a                	mv	a4,a0
    252a:	4585                	li	a1,1
    252c:	ac818513          	addi	a0,gp,-1336 # 20000338 <Sem_1>
    2530:	86e19823          	sh	a4,-1936(gp) # 200000e0 <Start>
    2534:	b91ff0ef          	jal	ra,20c4 <RMP_Sem_Post_ISR>
    2538:	fc055ce3          	bgez	a0,2510 <TIM4_IRQHandler+0x40>
    253c:	00004537          	lui	a0,0x4
    2540:	dd050513          	addi	a0,a0,-560 # 3dd0 <_read+0x120>
    2544:	971fe0ef          	jal	ra,eb4 <RMP_Str_Print>
    2548:	4008                	lw	a0,0(s0)
    254a:	8b7fe0ef          	jal	ra,e00 <RMP_Int_Print>
    254e:	00004537          	lui	a0,0x4
    2552:	df050513          	addi	a0,a0,-528 # 3df0 <_read+0x140>
    2556:	95ffe0ef          	jal	ra,eb4 <RMP_Str_Print>
    255a:	a001                	j	255a <TIM4_IRQHandler+0x8a>
    255c:	40013537          	lui	a0,0x40013
    2560:	0785                	addi	a5,a5,1
    2562:	c0050513          	addi	a0,a0,-1024 # 40012c00 <_eusrstack+0x2000ac00>
    2566:	c01c                	sw	a5,0(s0)
    2568:	f62fe0ef          	jal	ra,cca <TIM_GetCounter>
    256c:	872a                	mv	a4,a0
    256e:	20004537          	lui	a0,0x20004
    2572:	4585                	li	a1,1
    2574:	39050513          	addi	a0,a0,912 # 20004390 <Thd_2>
    2578:	86e19823          	sh	a4,-1936(gp) # 200000e0 <Start>
    257c:	a56ff0ef          	jal	ra,17d2 <RMP_Thd_Snd_ISR>
    2580:	f80558e3          	bgez	a0,2510 <TIM4_IRQHandler+0x40>
    2584:	00004537          	lui	a0,0x4
    2588:	da850513          	addi	a0,a0,-600 # 3da8 <_read+0xf8>
    258c:	929fe0ef          	jal	ra,eb4 <RMP_Str_Print>
    2590:	4008                	lw	a0,0(s0)
    2592:	86ffe0ef          	jal	ra,e00 <RMP_Int_Print>
    2596:	00004537          	lui	a0,0x4
    259a:	dc450513          	addi	a0,a0,-572 # 3dc4 <_read+0x114>
    259e:	917fe0ef          	jal	ra,eb4 <RMP_Str_Print>
    25a2:	a001                	j	25a2 <TIM4_IRQHandler+0xd2>

000025a4 <Test_Yield_1>:
    25a4:	c8dfd2ef          	jal	t0,230 <__riscv_save_0>
    25a8:	6409                	lui	s0,0x2
    25aa:	400134b7          	lui	s1,0x40013
    25ae:	71040413          	addi	s0,s0,1808 # 2710 <Test_Sem_2>
    25b2:	87018913          	addi	s2,gp,-1936 # 200000e0 <Start>
    25b6:	c0048493          	addi	s1,s1,-1024 # 40012c00 <_eusrstack+0x2000ac00>
    25ba:	8526                	mv	a0,s1
    25bc:	f0efe0ef          	jal	ra,cca <TIM_GetCounter>
    25c0:	147d                	addi	s0,s0,-1
    25c2:	00a91023          	sh	a0,0(s2)
    25c6:	991fe0ef          	jal	ra,f56 <RMP_Yield>
    25ca:	f865                	bnez	s0,25ba <Test_Yield_1+0x16>
    25cc:	c89fd06f          	j	254 <__riscv_restore_0>

000025d0 <Test_Mail_1>:
    25d0:	c47fd2ef          	jal	t0,216 <__riscv_save_4>
    25d4:	84418413          	addi	s0,gp,-1980 # 200000b4 <Count.5440>
    25d8:	400139b7          	lui	s3,0x40013
    25dc:	6961                	lui	s2,0x18
    25de:	6489                	lui	s1,0x2
    25e0:	00042023          	sw	zero,0(s0)
    25e4:	87018a13          	addi	s4,gp,-1936 # 200000e0 <Start>
    25e8:	20004ab7          	lui	s5,0x20004
    25ec:	c0098993          	addi	s3,s3,-1024 # 40012c00 <_eusrstack+0x2000ac00>
    25f0:	6a090913          	addi	s2,s2,1696 # 186a0 <_data_lma+0x146b8>
    25f4:	70f48493          	addi	s1,s1,1807 # 270f <Test_Mail_2+0x55>
    25f8:	854e                	mv	a0,s3
    25fa:	ed0fe0ef          	jal	ra,cca <TIM_GetCounter>
    25fe:	87aa                	mv	a5,a0
    2600:	864a                	mv	a2,s2
    2602:	4585                	li	a1,1
    2604:	390a8513          	addi	a0,s5,912 # 20004390 <Thd_2>
    2608:	00fa1023          	sh	a5,0(s4)
    260c:	f09fe0ef          	jal	ra,1514 <RMP_Thd_Snd>
    2610:	401c                	lw	a5,0(s0)
    2612:	0785                	addi	a5,a5,1
    2614:	c01c                	sw	a5,0(s0)
    2616:	fef4d1e3          	bge	s1,a5,25f8 <Test_Mail_1+0x28>
    261a:	c31fd06f          	j	24a <__riscv_restore_4>

0000261e <Test_Sem_1>:
    261e:	bf9fd2ef          	jal	t0,216 <__riscv_save_4>
    2622:	6409                	lui	s0,0x2
    2624:	400134b7          	lui	s1,0x40013
    2628:	71040413          	addi	s0,s0,1808 # 2710 <Test_Sem_2>
    262c:	87018913          	addi	s2,gp,-1936 # 200000e0 <Start>
    2630:	c0048493          	addi	s1,s1,-1024 # 40012c00 <_eusrstack+0x2000ac00>
    2634:	8526                	mv	a0,s1
    2636:	e94fe0ef          	jal	ra,cca <TIM_GetCounter>
    263a:	87aa                	mv	a5,a0
    263c:	147d                	addi	s0,s0,-1
    263e:	4585                	li	a1,1
    2640:	ac818513          	addi	a0,gp,-1336 # 20000338 <Sem_1>
    2644:	00f91023          	sh	a5,0(s2)
    2648:	8b5ff0ef          	jal	ra,1efc <RMP_Sem_Post>
    264c:	f465                	bnez	s0,2634 <Test_Sem_1+0x16>
    264e:	bfdfd06f          	j	24a <__riscv_restore_4>

00002652 <Func_1>:
    2652:	bdffd2ef          	jal	t0,230 <__riscv_save_0>
    2656:	37b9                	jal	25a4 <Test_Yield_1>
    2658:	6661                	lui	a2,0x18
    265a:	20004537          	lui	a0,0x20004
    265e:	6a060613          	addi	a2,a2,1696 # 186a0 <_data_lma+0x146b8>
    2662:	4589                	li	a1,2
    2664:	39050513          	addi	a0,a0,912 # 20004390 <Thd_2>
    2668:	d27fe0ef          	jal	ra,138e <RMP_Thd_Set>
    266c:	3795                	jal	25d0 <Test_Mail_1>
    266e:	3f45                	jal	261e <Test_Sem_1>
    2670:	a001                	j	2670 <Func_1+0x1e>

00002672 <Test_Yield_2>:
    2672:	ba5fd2ef          	jal	t0,216 <__riscv_save_4>
    2676:	6409                	lui	s0,0x2
    2678:	40013a37          	lui	s4,0x40013
    267c:	71040413          	addi	s0,s0,1808 # 2710 <Test_Sem_2>
    2680:	85418913          	addi	s2,gp,-1964 # 200000c4 <End>
    2684:	87018993          	addi	s3,gp,-1936 # 200000e0 <Start>
    2688:	87818493          	addi	s1,gp,-1928 # 200000e8 <Total>
    268c:	c00a0a13          	addi	s4,s4,-1024 # 40012c00 <_eusrstack+0x2000ac00>
    2690:	8c7fe0ef          	jal	ra,f56 <RMP_Yield>
    2694:	8552                	mv	a0,s4
    2696:	e34fe0ef          	jal	ra,cca <TIM_GetCounter>
    269a:	00a91023          	sh	a0,0(s2)
    269e:	00095783          	lhu	a5,0(s2)
    26a2:	0009d683          	lhu	a3,0(s3)
    26a6:	4098                	lw	a4,0(s1)
    26a8:	147d                	addi	s0,s0,-1
    26aa:	8f95                	sub	a5,a5,a3
    26ac:	07c2                	slli	a5,a5,0x10
    26ae:	83c1                	srli	a5,a5,0x10
    26b0:	97ba                	add	a5,a5,a4
    26b2:	c09c                	sw	a5,0(s1)
    26b4:	fc71                	bnez	s0,2690 <Test_Yield_2+0x1e>
    26b6:	b95fd06f          	j	24a <__riscv_restore_4>

000026ba <Test_Mail_2>:
    26ba:	b5dfd2ef          	jal	t0,216 <__riscv_save_4>
    26be:	6409                	lui	s0,0x2
    26c0:	6ae1                	lui	s5,0x18
    26c2:	400139b7          	lui	s3,0x40013
    26c6:	1141                	addi	sp,sp,-16
    26c8:	71040413          	addi	s0,s0,1808 # 2710 <Test_Sem_2>
    26cc:	85418913          	addi	s2,gp,-1964 # 200000c4 <End>
    26d0:	87018a13          	addi	s4,gp,-1936 # 200000e0 <Start>
    26d4:	87818493          	addi	s1,gp,-1928 # 200000e8 <Total>
    26d8:	6a0a8a93          	addi	s5,s5,1696 # 186a0 <_data_lma+0x146b8>
    26dc:	c0098993          	addi	s3,s3,-1024 # 40012c00 <_eusrstack+0x2000ac00>
    26e0:	85d6                	mv	a1,s5
    26e2:	0068                	addi	a0,sp,12
    26e4:	9eeff0ef          	jal	ra,18d2 <RMP_Thd_Rcv>
    26e8:	854e                	mv	a0,s3
    26ea:	de0fe0ef          	jal	ra,cca <TIM_GetCounter>
    26ee:	00a91023          	sh	a0,0(s2)
    26f2:	00095783          	lhu	a5,0(s2)
    26f6:	000a5683          	lhu	a3,0(s4)
    26fa:	4098                	lw	a4,0(s1)
    26fc:	147d                	addi	s0,s0,-1
    26fe:	8f95                	sub	a5,a5,a3
    2700:	07c2                	slli	a5,a5,0x10
    2702:	83c1                	srli	a5,a5,0x10
    2704:	97ba                	add	a5,a5,a4
    2706:	c09c                	sw	a5,0(s1)
    2708:	fc61                	bnez	s0,26e0 <Test_Mail_2+0x26>
    270a:	0141                	addi	sp,sp,16
    270c:	b3ffd06f          	j	24a <__riscv_restore_4>

00002710 <Test_Sem_2>:
    2710:	b07fd2ef          	jal	t0,216 <__riscv_save_4>
    2714:	6409                	lui	s0,0x2
    2716:	6b61                	lui	s6,0x18
    2718:	400139b7          	lui	s3,0x40013
    271c:	71040413          	addi	s0,s0,1808 # 2710 <Test_Sem_2>
    2720:	85418913          	addi	s2,gp,-1964 # 200000c4 <End>
    2724:	87018a93          	addi	s5,gp,-1936 # 200000e0 <Start>
    2728:	87818493          	addi	s1,gp,-1928 # 200000e8 <Total>
    272c:	6a0b0b13          	addi	s6,s6,1696 # 186a0 <_data_lma+0x146b8>
    2730:	c0098993          	addi	s3,s3,-1024 # 40012c00 <_eusrstack+0x2000ac00>
    2734:	85da                	mv	a1,s6
    2736:	ac818513          	addi	a0,gp,-1336 # 20000338 <Sem_1>
    273a:	d80ff0ef          	jal	ra,1cba <RMP_Sem_Pend>
    273e:	854e                	mv	a0,s3
    2740:	d8afe0ef          	jal	ra,cca <TIM_GetCounter>
    2744:	00a91023          	sh	a0,0(s2)
    2748:	00095783          	lhu	a5,0(s2)
    274c:	000ad683          	lhu	a3,0(s5)
    2750:	4098                	lw	a4,0(s1)
    2752:	147d                	addi	s0,s0,-1
    2754:	8f95                	sub	a5,a5,a3
    2756:	07c2                	slli	a5,a5,0x10
    2758:	83c1                	srli	a5,a5,0x10
    275a:	97ba                	add	a5,a5,a4
    275c:	c09c                	sw	a5,0(s1)
    275e:	f879                	bnez	s0,2734 <Test_Sem_2+0x24>
    2760:	aebfd06f          	j	24a <__riscv_restore_4>

00002764 <Test_Mail_ISR>:
    2764:	ab3fd2ef          	jal	t0,216 <__riscv_save_4>
    2768:	84818413          	addi	s0,gp,-1976 # 200000b8 <Count.5481>
    276c:	6ae1                	lui	s5,0x18
    276e:	400139b7          	lui	s3,0x40013
    2772:	6909                	lui	s2,0x2
    2774:	1141                	addi	sp,sp,-16
    2776:	00042023          	sw	zero,0(s0)
    277a:	85418b13          	addi	s6,gp,-1964 # 200000c4 <End>
    277e:	87018a13          	addi	s4,gp,-1936 # 200000e0 <Start>
    2782:	87818493          	addi	s1,gp,-1928 # 200000e8 <Total>
    2786:	6a0a8a93          	addi	s5,s5,1696 # 186a0 <_data_lma+0x146b8>
    278a:	c0098993          	addi	s3,s3,-1024 # 40012c00 <_eusrstack+0x2000ac00>
    278e:	70f90913          	addi	s2,s2,1807 # 270f <Test_Mail_2+0x55>
    2792:	85d6                	mv	a1,s5
    2794:	0068                	addi	a0,sp,12
    2796:	93cff0ef          	jal	ra,18d2 <RMP_Thd_Rcv>
    279a:	854e                	mv	a0,s3
    279c:	d2efe0ef          	jal	ra,cca <TIM_GetCounter>
    27a0:	00ab1023          	sh	a0,0(s6)
    27a4:	000b5783          	lhu	a5,0(s6)
    27a8:	000a5603          	lhu	a2,0(s4)
    27ac:	4018                	lw	a4,0(s0)
    27ae:	4094                	lw	a3,0(s1)
    27b0:	8f91                	sub	a5,a5,a2
    27b2:	07c2                	slli	a5,a5,0x10
    27b4:	83c1                	srli	a5,a5,0x10
    27b6:	97b6                	add	a5,a5,a3
    27b8:	0705                	addi	a4,a4,1
    27ba:	c09c                	sw	a5,0(s1)
    27bc:	c018                	sw	a4,0(s0)
    27be:	fce95ae3          	bge	s2,a4,2792 <Test_Mail_ISR+0x2e>
    27c2:	0141                	addi	sp,sp,16
    27c4:	a87fd06f          	j	24a <__riscv_restore_4>

000027c8 <Test_Sem_ISR>:
    27c8:	a41fd2ef          	jal	t0,208 <__riscv_save_10>
    27cc:	84c18413          	addi	s0,gp,-1972 # 200000bc <Count.5488>
    27d0:	69e1                	lui	s3,0x18
    27d2:	40013937          	lui	s2,0x40013
    27d6:	6489                	lui	s1,0x2
    27d8:	00042023          	sw	zero,0(s0)
    27dc:	85418b93          	addi	s7,gp,-1964 # 200000c4 <End>
    27e0:	87018a13          	addi	s4,gp,-1936 # 200000e0 <Start>
    27e4:	87818b13          	addi	s6,gp,-1928 # 200000e8 <Total>
    27e8:	6a098993          	addi	s3,s3,1696 # 186a0 <_data_lma+0x146b8>
    27ec:	c0090913          	addi	s2,s2,-1024 # 40012c00 <_eusrstack+0x2000ac00>
    27f0:	70f48493          	addi	s1,s1,1807 # 270f <Test_Mail_2+0x55>
    27f4:	85ce                	mv	a1,s3
    27f6:	ac818513          	addi	a0,gp,-1336 # 20000338 <Sem_1>
    27fa:	cc0ff0ef          	jal	ra,1cba <RMP_Sem_Pend>
    27fe:	854a                	mv	a0,s2
    2800:	ccafe0ef          	jal	ra,cca <TIM_GetCounter>
    2804:	00ab9023          	sh	a0,0(s7)
    2808:	000bd783          	lhu	a5,0(s7)
    280c:	000a5603          	lhu	a2,0(s4)
    2810:	4018                	lw	a4,0(s0)
    2812:	000b2683          	lw	a3,0(s6)
    2816:	8f91                	sub	a5,a5,a2
    2818:	07c2                	slli	a5,a5,0x10
    281a:	83c1                	srli	a5,a5,0x10
    281c:	97b6                	add	a5,a5,a3
    281e:	0705                	addi	a4,a4,1
    2820:	00fb2023          	sw	a5,0(s6)
    2824:	c018                	sw	a4,0(s0)
    2826:	fce4d7e3          	bge	s1,a4,27f4 <Test_Sem_ISR+0x2c>
    282a:	a17fd06f          	j	240 <__riscv_restore_10>

0000282e <Func_2>:
    282e:	9e9fd2ef          	jal	t0,216 <__riscv_save_4>
    2832:	87818413          	addi	s0,gp,-1928 # 200000e8 <Total>
    2836:	00042023          	sw	zero,0(s0)
    283a:	3d25                	jal	2672 <Test_Yield_2>
    283c:	00004537          	lui	a0,0x4
    2840:	d5c50513          	addi	a0,a0,-676 # 3d5c <_read+0xac>
    2844:	e70fe0ef          	jal	ra,eb4 <RMP_Str_Print>
    2848:	4018                	lw	a4,0(s0)
    284a:	6489                	lui	s1,0x2
    284c:	71048493          	addi	s1,s1,1808 # 2710 <Test_Sem_2>
    2850:	02975733          	divu	a4,a4,s1
    2854:	87c18793          	addi	a5,gp,-1924 # 200000ec <Yield_Time>
    2858:	00004937          	lui	s2,0x4
    285c:	87418993          	addi	s3,gp,-1932 # 200000e4 <Temp>
    2860:	c398                	sw	a4,0(a5)
    2862:	4388                	lw	a0,0(a5)
    2864:	d9cfe0ef          	jal	ra,e00 <RMP_Int_Print>
    2868:	d6490513          	addi	a0,s2,-668 # 3d64 <_read+0xb4>
    286c:	e48fe0ef          	jal	ra,eb4 <RMP_Str_Print>
    2870:	6661                	lui	a2,0x18
    2872:	20004537          	lui	a0,0x20004
    2876:	6a060613          	addi	a2,a2,1696 # 186a0 <_data_lma+0x146b8>
    287a:	4589                	li	a1,2
    287c:	39050513          	addi	a0,a0,912 # 20004390 <Thd_2>
    2880:	b0ffe0ef          	jal	ra,138e <RMP_Thd_Set>
    2884:	00042023          	sw	zero,0(s0)
    2888:	3d0d                	jal	26ba <Test_Mail_2>
    288a:	00004537          	lui	a0,0x4
    288e:	d7050513          	addi	a0,a0,-656 # 3d70 <_read+0xc0>
    2892:	e22fe0ef          	jal	ra,eb4 <RMP_Str_Print>
    2896:	4018                	lw	a4,0(s0)
    2898:	85c18793          	addi	a5,gp,-1956 # 200000cc <Mailbox_Time>
    289c:	02975733          	divu	a4,a4,s1
    28a0:	c398                	sw	a4,0(a5)
    28a2:	4388                	lw	a0,0(a5)
    28a4:	d5cfe0ef          	jal	ra,e00 <RMP_Int_Print>
    28a8:	d6490513          	addi	a0,s2,-668
    28ac:	e08fe0ef          	jal	ra,eb4 <RMP_Str_Print>
    28b0:	00042023          	sw	zero,0(s0)
    28b4:	3db1                	jal	2710 <Test_Sem_2>
    28b6:	00004537          	lui	a0,0x4
    28ba:	d7c50513          	addi	a0,a0,-644 # 3d7c <_read+0xcc>
    28be:	df6fe0ef          	jal	ra,eb4 <RMP_Str_Print>
    28c2:	4018                	lw	a4,0(s0)
    28c4:	86c18793          	addi	a5,gp,-1940 # 200000dc <Semaphore_Time>
    28c8:	02975733          	divu	a4,a4,s1
    28cc:	c398                	sw	a4,0(a5)
    28ce:	4388                	lw	a0,0(a5)
    28d0:	d30fe0ef          	jal	ra,e00 <RMP_Int_Print>
    28d4:	d6490513          	addi	a0,s2,-668
    28d8:	ddcfe0ef          	jal	ra,eb4 <RMP_Str_Print>
    28dc:	00042023          	sw	zero,0(s0)
    28e0:	b7dff0ef          	jal	ra,245c <Int_Init>
    28e4:	3541                	jal	2764 <Test_Mail_ISR>
    28e6:	401c                	lw	a5,0(s0)
    28e8:	00f9a023          	sw	a5,0(s3)
    28ec:	00042023          	sw	zero,0(s0)
    28f0:	3de1                	jal	27c8 <Test_Sem_ISR>
    28f2:	00004537          	lui	a0,0x4
    28f6:	d8850513          	addi	a0,a0,-632 # 3d88 <_read+0xd8>
    28fa:	dbafe0ef          	jal	ra,eb4 <RMP_Str_Print>
    28fe:	0009a703          	lw	a4,0(s3)
    2902:	85818793          	addi	a5,gp,-1960 # 200000c8 <Mailbox_ISR_Time>
    2906:	02975733          	divu	a4,a4,s1
    290a:	c398                	sw	a4,0(a5)
    290c:	4388                	lw	a0,0(a5)
    290e:	cf2fe0ef          	jal	ra,e00 <RMP_Int_Print>
    2912:	d6490513          	addi	a0,s2,-668
    2916:	d9efe0ef          	jal	ra,eb4 <RMP_Str_Print>
    291a:	00004537          	lui	a0,0x4
    291e:	d9850513          	addi	a0,a0,-616 # 3d98 <_read+0xe8>
    2922:	d92fe0ef          	jal	ra,eb4 <RMP_Str_Print>
    2926:	4018                	lw	a4,0(s0)
    2928:	86818793          	addi	a5,gp,-1944 # 200000d8 <Semaphore_ISR_Time>
    292c:	029754b3          	divu	s1,a4,s1
    2930:	c384                	sw	s1,0(a5)
    2932:	4388                	lw	a0,0(a5)
    2934:	cccfe0ef          	jal	ra,e00 <RMP_Int_Print>
    2938:	d6490513          	addi	a0,s2,-668
    293c:	d78fe0ef          	jal	ra,eb4 <RMP_Str_Print>
    2940:	a001                	j	2940 <Func_2+0x112>

00002942 <RMP_Init_Hook>:
    2942:	8d5fd2ef          	jal	t0,216 <__riscv_save_4>
    2946:	6905                	lui	s2,0x1
    2948:	80090513          	addi	a0,s2,-2048 # 800 <__stack_size>
    294c:	4585                	li	a1,1
    294e:	a3afe0ef          	jal	ra,b88 <RCC_APB2PeriphClockCmd>
    2952:	40013437          	lui	s0,0x40013
    2956:	4581                	li	a1,0
    2958:	c0040513          	addi	a0,s0,-1024 # 40012c00 <_eusrstack+0x2000ac00>
    295c:	b5efe0ef          	jal	ra,cba <TIM_CounterModeConfig>
    2960:	c0040513          	addi	a0,s0,-1024
    2964:	b46fe0ef          	jal	ra,caa <TIM_InternalClockConfig>
    2968:	c0040513          	addi	a0,s0,-1024
    296c:	4585                	li	a1,1
    296e:	b0efe0ef          	jal	ra,c7c <TIM_Cmd>
    2972:	200044b7          	lui	s1,0x20004
    2976:	35448513          	addi	a0,s1,852 # 20004354 <Thd_1>
    297a:	03c00593          	li	a1,60
    297e:	c72fe0ef          	jal	ra,df0 <RMP_Clear>
    2982:	20004437          	lui	s0,0x20004
    2986:	39040513          	addi	a0,s0,912 # 20004390 <Thd_2>
    298a:	03c00593          	li	a1,60
    298e:	c62fe0ef          	jal	ra,df0 <RMP_Clear>
    2992:	ac818513          	addi	a0,gp,-1336 # 20000338 <Sem_1>
    2996:	45c1                	li	a1,16
    2998:	c58fe0ef          	jal	ra,df0 <RMP_Clear>
    299c:	4581                	li	a1,0
    299e:	ac818513          	addi	a0,gp,-1336 # 20000338 <Sem_1>
    29a2:	a2eff0ef          	jal	ra,1bd0 <RMP_Sem_Crt>
    29a6:	20001637          	lui	a2,0x20001
    29aa:	000025b7          	lui	a1,0x2
    29ae:	23490693          	addi	a3,s2,564
    29b2:	4795                	li	a5,5
    29b4:	4705                	li	a4,1
    29b6:	34860613          	addi	a2,a2,840 # 20001348 <__global_pointer$+0xad8>
    29ba:	65258593          	addi	a1,a1,1618 # 2652 <Func_1>
    29be:	35448513          	addi	a0,s1,852
    29c2:	88dfe0ef          	jal	ra,124e <RMP_Thd_Crt>
    29c6:	6691                	lui	a3,0x4
    29c8:	20003637          	lui	a2,0x20003
    29cc:	000035b7          	lui	a1,0x3
    29d0:	3e800793          	li	a5,1000
    29d4:	4705                	li	a4,1
    29d6:	32168693          	addi	a3,a3,801 # 4321 <_data_lma+0x339>
    29da:	34860613          	addi	a2,a2,840 # 20003348 <Stack_2+0x1000>
    29de:	82e58593          	addi	a1,a1,-2002 # 282e <Func_2>
    29e2:	39040513          	addi	a0,s0,912
    29e6:	869fe0ef          	jal	ra,124e <RMP_Thd_Crt>
    29ea:	861fd06f          	j	24a <__riscv_restore_4>

000029ee <RMP_Init_Idle>:
    29ee:	8082                	ret

000029f0 <Delay_Init>:
    29f0:	200007b7          	lui	a5,0x20000
    29f4:	0707a783          	lw	a5,112(a5) # 20000070 <SystemCoreClock>
    29f8:	007a1737          	lui	a4,0x7a1
    29fc:	20070713          	addi	a4,a4,512 # 7a1200 <_data_lma+0x79d218>
    2a00:	02e7d7b3          	divu	a5,a5,a4
    2a04:	3e800713          	li	a4,1000
    2a08:	0ff7f793          	andi	a5,a5,255
    2a0c:	02e78733          	mul	a4,a5,a4
    2a10:	88f18123          	sb	a5,-1918(gp) # 200000f2 <p_us>
    2a14:	88e19023          	sh	a4,-1920(gp) # 200000f0 <p_ms>
    2a18:	8082                	ret

00002a1a <USART_Printf_Init>:
    2a1a:	817fd2ef          	jal	t0,230 <__riscv_save_0>
    2a1e:	84aa                	mv	s1,a0
    2a20:	6511                	lui	a0,0x4
    2a22:	1101                	addi	sp,sp,-32
    2a24:	4585                	li	a1,1
    2a26:	0511                	addi	a0,a0,4
    2a28:	960fe0ef          	jal	ra,b88 <RCC_APB2PeriphClockCmd>
    2a2c:	20000793          	li	a5,512
    2a30:	827c                	sh	a5,4(sp)
    2a32:	40011537          	lui	a0,0x40011
    2a36:	478d                	li	a5,3
    2a38:	004c                	addi	a1,sp,4
    2a3a:	c43e                	sw	a5,8(sp)
    2a3c:	80050513          	addi	a0,a0,-2048 # 40010800 <_eusrstack+0x20008800>
    2a40:	47e1                	li	a5,24
    2a42:	40014437          	lui	s0,0x40014
    2a46:	c63e                	sw	a5,12(sp)
    2a48:	a5bfd0ef          	jal	ra,4a2 <GPIO_Init>
    2a4c:	000807b7          	lui	a5,0x80
    2a50:	080c                	addi	a1,sp,16
    2a52:	80040513          	addi	a0,s0,-2048 # 40013800 <_eusrstack+0x2000b800>
    2a56:	cc3e                	sw	a5,24(sp)
    2a58:	c826                	sw	s1,16(sp)
    2a5a:	00011e23          	sh	zero,28(sp)
    2a5e:	ca02                	sw	zero,20(sp)
    2a60:	a86fe0ef          	jal	ra,ce6 <USART_Init>
    2a64:	4585                	li	a1,1
    2a66:	80040513          	addi	a0,s0,-2048
    2a6a:	b5cfe0ef          	jal	ra,dc6 <USART_Cmd>
    2a6e:	6105                	addi	sp,sp,32
    2a70:	fe4fd06f          	j	254 <__riscv_restore_0>

00002a74 <_write>:
    2a74:	fa2fd2ef          	jal	t0,216 <__riscv_save_4>
    2a78:	89b2                	mv	s3,a2
    2a7a:	02c05963          	blez	a2,2aac <_write+0x38>
    2a7e:	40014437          	lui	s0,0x40014
    2a82:	84ae                	mv	s1,a1
    2a84:	00c58933          	add	s2,a1,a2
    2a88:	80040413          	addi	s0,s0,-2048 # 40013800 <_eusrstack+0x2000b800>
    2a8c:	04000593          	li	a1,64
    2a90:	8522                	mv	a0,s0
    2a92:	b54fe0ef          	jal	ra,de6 <USART_GetFlagStatus>
    2a96:	d97d                	beqz	a0,2a8c <_write+0x18>
    2a98:	0485                	addi	s1,s1,1
    2a9a:	fff48583          	lb	a1,-1(s1)
    2a9e:	8522                	mv	a0,s0
    2aa0:	05c2                	slli	a1,a1,0x10
    2aa2:	81c1                	srli	a1,a1,0x10
    2aa4:	b3afe0ef          	jal	ra,dde <USART_SendData>
    2aa8:	fe9912e3          	bne	s2,s1,2a8c <_write+0x18>
    2aac:	854e                	mv	a0,s3
    2aae:	f9cfd06f          	j	24a <__riscv_restore_4>

00002ab2 <_sbrk>:
    2ab2:	80818793          	addi	a5,gp,-2040 # 20000078 <curbrk.5216>
    2ab6:	4394                	lw	a3,0(a5)
    2ab8:	20004737          	lui	a4,0x20004
    2abc:	3d070713          	addi	a4,a4,976 # 200043d0 <_ebss>
    2ac0:	9536                	add	a0,a0,a3
    2ac2:	00e56b63          	bltu	a0,a4,2ad8 <_sbrk+0x26>
    2ac6:	20008737          	lui	a4,0x20008
    2aca:	80070713          	addi	a4,a4,-2048 # 20007800 <__stack>
    2ace:	00a76563          	bltu	a4,a0,2ad8 <_sbrk+0x26>
    2ad2:	c388                	sw	a0,0(a5)
    2ad4:	8536                	mv	a0,a3
    2ad6:	8082                	ret
    2ad8:	56fd                	li	a3,-1
    2ada:	8536                	mv	a0,a3
    2adc:	8082                	ret

00002ade <iprintf>:
    2ade:	7139                	addi	sp,sp,-64
    2ae0:	da3e                	sw	a5,52(sp)
    2ae2:	d22e                	sw	a1,36(sp)
    2ae4:	d432                	sw	a2,40(sp)
    2ae6:	d636                	sw	a3,44(sp)
    2ae8:	d83a                	sw	a4,48(sp)
    2aea:	dc42                	sw	a6,56(sp)
    2aec:	de46                	sw	a7,60(sp)
    2aee:	80c18793          	addi	a5,gp,-2036 # 2000007c <_impure_ptr>
    2af2:	cc22                	sw	s0,24(sp)
    2af4:	4380                	lw	s0,0(a5)
    2af6:	ca26                	sw	s1,20(sp)
    2af8:	ce06                	sw	ra,28(sp)
    2afa:	84aa                	mv	s1,a0
    2afc:	c409                	beqz	s0,2b06 <iprintf+0x28>
    2afe:	4c1c                	lw	a5,24(s0)
    2b00:	e399                	bnez	a5,2b06 <iprintf+0x28>
    2b02:	8522                	mv	a0,s0
    2b04:	28e5                	jal	2bfc <__sinit>
    2b06:	440c                	lw	a1,8(s0)
    2b08:	1054                	addi	a3,sp,36
    2b0a:	8626                	mv	a2,s1
    2b0c:	8522                	mv	a0,s0
    2b0e:	c636                	sw	a3,12(sp)
    2b10:	2e69                	jal	2eaa <_vfiprintf_r>
    2b12:	40f2                	lw	ra,28(sp)
    2b14:	4462                	lw	s0,24(sp)
    2b16:	44d2                	lw	s1,20(sp)
    2b18:	6121                	addi	sp,sp,64
    2b1a:	8082                	ret

00002b1c <putchar>:
    2b1c:	1101                	addi	sp,sp,-32
    2b1e:	80c18793          	addi	a5,gp,-2036 # 2000007c <_impure_ptr>
    2b22:	cc22                	sw	s0,24(sp)
    2b24:	4380                	lw	s0,0(a5)
    2b26:	ce06                	sw	ra,28(sp)
    2b28:	85aa                	mv	a1,a0
    2b2a:	c419                	beqz	s0,2b38 <putchar+0x1c>
    2b2c:	4c1c                	lw	a5,24(s0)
    2b2e:	e789                	bnez	a5,2b38 <putchar+0x1c>
    2b30:	c62a                	sw	a0,12(sp)
    2b32:	8522                	mv	a0,s0
    2b34:	20e1                	jal	2bfc <__sinit>
    2b36:	45b2                	lw	a1,12(sp)
    2b38:	4410                	lw	a2,8(s0)
    2b3a:	8522                	mv	a0,s0
    2b3c:	4462                	lw	s0,24(sp)
    2b3e:	40f2                	lw	ra,28(sp)
    2b40:	6105                	addi	sp,sp,32
    2b42:	1a30006f          	j	34e4 <_putc_r>

00002b46 <std>:
    2b46:	1141                	addi	sp,sp,-16
    2b48:	c422                	sw	s0,8(sp)
    2b4a:	c606                	sw	ra,12(sp)
    2b4c:	842a                	mv	s0,a0
    2b4e:	a54e                	sh	a1,12(a0)
    2b50:	a572                	sh	a2,14(a0)
    2b52:	00052023          	sw	zero,0(a0)
    2b56:	00052223          	sw	zero,4(a0)
    2b5a:	00052423          	sw	zero,8(a0)
    2b5e:	06052223          	sw	zero,100(a0)
    2b62:	00052823          	sw	zero,16(a0)
    2b66:	00052a23          	sw	zero,20(a0)
    2b6a:	00052c23          	sw	zero,24(a0)
    2b6e:	4621                	li	a2,8
    2b70:	4581                	li	a1,0
    2b72:	05c50513          	addi	a0,a0,92
    2b76:	eeafd0ef          	jal	ra,260 <memset>
    2b7a:	00001797          	auipc	a5,0x1
    2b7e:	a1e78793          	addi	a5,a5,-1506 # 3598 <__sread>
    2b82:	d05c                	sw	a5,36(s0)
    2b84:	00001797          	auipc	a5,0x1
    2b88:	a4078793          	addi	a5,a5,-1472 # 35c4 <__swrite>
    2b8c:	d41c                	sw	a5,40(s0)
    2b8e:	00001797          	auipc	a5,0x1
    2b92:	a7e78793          	addi	a5,a5,-1410 # 360c <__sseek>
    2b96:	d45c                	sw	a5,44(s0)
    2b98:	00001797          	auipc	a5,0x1
    2b9c:	aa478793          	addi	a5,a5,-1372 # 363c <__sclose>
    2ba0:	d000                	sw	s0,32(s0)
    2ba2:	d81c                	sw	a5,48(s0)
    2ba4:	40b2                	lw	ra,12(sp)
    2ba6:	4422                	lw	s0,8(sp)
    2ba8:	0141                	addi	sp,sp,16
    2baa:	8082                	ret

00002bac <_cleanup_r>:
    2bac:	00001597          	auipc	a1,0x1
    2bb0:	de858593          	addi	a1,a1,-536 # 3994 <_fflush_r>
    2bb4:	a2b1                	j	2d00 <_fwalk_reent>

00002bb6 <__sfmoreglue>:
    2bb6:	1141                	addi	sp,sp,-16
    2bb8:	c226                	sw	s1,4(sp)
    2bba:	06800613          	li	a2,104
    2bbe:	fff58493          	addi	s1,a1,-1
    2bc2:	02c484b3          	mul	s1,s1,a2
    2bc6:	c04a                	sw	s2,0(sp)
    2bc8:	892e                	mv	s2,a1
    2bca:	c422                	sw	s0,8(sp)
    2bcc:	c606                	sw	ra,12(sp)
    2bce:	07448593          	addi	a1,s1,116
    2bd2:	2a61                	jal	2d6a <_malloc_r>
    2bd4:	842a                	mv	s0,a0
    2bd6:	cd01                	beqz	a0,2bee <__sfmoreglue+0x38>
    2bd8:	00052023          	sw	zero,0(a0)
    2bdc:	01252223          	sw	s2,4(a0)
    2be0:	0531                	addi	a0,a0,12
    2be2:	c408                	sw	a0,8(s0)
    2be4:	06848613          	addi	a2,s1,104
    2be8:	4581                	li	a1,0
    2bea:	e76fd0ef          	jal	ra,260 <memset>
    2bee:	8522                	mv	a0,s0
    2bf0:	40b2                	lw	ra,12(sp)
    2bf2:	4422                	lw	s0,8(sp)
    2bf4:	4492                	lw	s1,4(sp)
    2bf6:	4902                	lw	s2,0(sp)
    2bf8:	0141                	addi	sp,sp,16
    2bfa:	8082                	ret

00002bfc <__sinit>:
    2bfc:	4d1c                	lw	a5,24(a0)
    2bfe:	e3ad                	bnez	a5,2c60 <__sinit+0x64>
    2c00:	1141                	addi	sp,sp,-16
    2c02:	c606                	sw	ra,12(sp)
    2c04:	c422                	sw	s0,8(sp)
    2c06:	00000797          	auipc	a5,0x0
    2c0a:	fa678793          	addi	a5,a5,-90 # 2bac <_cleanup_r>
    2c0e:	d51c                	sw	a5,40(a0)
    2c10:	81018793          	addi	a5,gp,-2032 # 20000080 <_global_impure_ptr>
    2c14:	439c                	lw	a5,0(a5)
    2c16:	04052423          	sw	zero,72(a0)
    2c1a:	04052623          	sw	zero,76(a0)
    2c1e:	04052823          	sw	zero,80(a0)
    2c22:	00f51463          	bne	a0,a5,2c2a <__sinit+0x2e>
    2c26:	4785                	li	a5,1
    2c28:	cd1c                	sw	a5,24(a0)
    2c2a:	842a                	mv	s0,a0
    2c2c:	281d                	jal	2c62 <__sfp>
    2c2e:	c048                	sw	a0,4(s0)
    2c30:	8522                	mv	a0,s0
    2c32:	2805                	jal	2c62 <__sfp>
    2c34:	c408                	sw	a0,8(s0)
    2c36:	8522                	mv	a0,s0
    2c38:	202d                	jal	2c62 <__sfp>
    2c3a:	c448                	sw	a0,12(s0)
    2c3c:	4048                	lw	a0,4(s0)
    2c3e:	4601                	li	a2,0
    2c40:	4591                	li	a1,4
    2c42:	3711                	jal	2b46 <std>
    2c44:	4408                	lw	a0,8(s0)
    2c46:	4605                	li	a2,1
    2c48:	45a5                	li	a1,9
    2c4a:	3df5                	jal	2b46 <std>
    2c4c:	4448                	lw	a0,12(s0)
    2c4e:	4609                	li	a2,2
    2c50:	45c9                	li	a1,18
    2c52:	3dd5                	jal	2b46 <std>
    2c54:	4785                	li	a5,1
    2c56:	cc1c                	sw	a5,24(s0)
    2c58:	40b2                	lw	ra,12(sp)
    2c5a:	4422                	lw	s0,8(sp)
    2c5c:	0141                	addi	sp,sp,16
    2c5e:	8082                	ret
    2c60:	8082                	ret

00002c62 <__sfp>:
    2c62:	1141                	addi	sp,sp,-16
    2c64:	81018793          	addi	a5,gp,-2032 # 20000080 <_global_impure_ptr>
    2c68:	c226                	sw	s1,4(sp)
    2c6a:	4384                	lw	s1,0(a5)
    2c6c:	c04a                	sw	s2,0(sp)
    2c6e:	c606                	sw	ra,12(sp)
    2c70:	4c9c                	lw	a5,24(s1)
    2c72:	c422                	sw	s0,8(sp)
    2c74:	892a                	mv	s2,a0
    2c76:	e399                	bnez	a5,2c7c <__sfp+0x1a>
    2c78:	8526                	mv	a0,s1
    2c7a:	3749                	jal	2bfc <__sinit>
    2c7c:	04848493          	addi	s1,s1,72
    2c80:	4480                	lw	s0,8(s1)
    2c82:	40dc                	lw	a5,4(s1)
    2c84:	17fd                	addi	a5,a5,-1
    2c86:	0007d663          	bgez	a5,2c92 <__sfp+0x30>
    2c8a:	409c                	lw	a5,0(s1)
    2c8c:	cfb9                	beqz	a5,2cea <__sfp+0x88>
    2c8e:	4084                	lw	s1,0(s1)
    2c90:	bfc5                	j	2c80 <__sfp+0x1e>
    2c92:	00c41703          	lh	a4,12(s0)
    2c96:	e739                	bnez	a4,2ce4 <__sfp+0x82>
    2c98:	77c1                	lui	a5,0xffff0
    2c9a:	0785                	addi	a5,a5,1
    2c9c:	06042223          	sw	zero,100(s0)
    2ca0:	00042023          	sw	zero,0(s0)
    2ca4:	00042223          	sw	zero,4(s0)
    2ca8:	00042423          	sw	zero,8(s0)
    2cac:	c45c                	sw	a5,12(s0)
    2cae:	00042823          	sw	zero,16(s0)
    2cb2:	00042a23          	sw	zero,20(s0)
    2cb6:	00042c23          	sw	zero,24(s0)
    2cba:	4621                	li	a2,8
    2cbc:	4581                	li	a1,0
    2cbe:	05c40513          	addi	a0,s0,92
    2cc2:	d9efd0ef          	jal	ra,260 <memset>
    2cc6:	02042a23          	sw	zero,52(s0)
    2cca:	02042c23          	sw	zero,56(s0)
    2cce:	04042423          	sw	zero,72(s0)
    2cd2:	04042623          	sw	zero,76(s0)
    2cd6:	8522                	mv	a0,s0
    2cd8:	40b2                	lw	ra,12(sp)
    2cda:	4422                	lw	s0,8(sp)
    2cdc:	4492                	lw	s1,4(sp)
    2cde:	4902                	lw	s2,0(sp)
    2ce0:	0141                	addi	sp,sp,16
    2ce2:	8082                	ret
    2ce4:	06840413          	addi	s0,s0,104
    2ce8:	bf71                	j	2c84 <__sfp+0x22>
    2cea:	4591                	li	a1,4
    2cec:	854a                	mv	a0,s2
    2cee:	ec9ff0ef          	jal	ra,2bb6 <__sfmoreglue>
    2cf2:	c088                	sw	a0,0(s1)
    2cf4:	fd49                	bnez	a0,2c8e <__sfp+0x2c>
    2cf6:	47b1                	li	a5,12
    2cf8:	00f92023          	sw	a5,0(s2)
    2cfc:	4401                	li	s0,0
    2cfe:	bfe1                	j	2cd6 <__sfp+0x74>

00002d00 <_fwalk_reent>:
    2d00:	7179                	addi	sp,sp,-48
    2d02:	d422                	sw	s0,40(sp)
    2d04:	d04a                	sw	s2,32(sp)
    2d06:	cc52                	sw	s4,24(sp)
    2d08:	ca56                	sw	s5,20(sp)
    2d0a:	c85a                	sw	s6,16(sp)
    2d0c:	c65e                	sw	s7,12(sp)
    2d0e:	d606                	sw	ra,44(sp)
    2d10:	d226                	sw	s1,36(sp)
    2d12:	ce4e                	sw	s3,28(sp)
    2d14:	8a2a                	mv	s4,a0
    2d16:	8aae                	mv	s5,a1
    2d18:	04850413          	addi	s0,a0,72
    2d1c:	4901                	li	s2,0
    2d1e:	4b05                	li	s6,1
    2d20:	5bfd                	li	s7,-1
    2d22:	ec09                	bnez	s0,2d3c <_fwalk_reent+0x3c>
    2d24:	50b2                	lw	ra,44(sp)
    2d26:	5422                	lw	s0,40(sp)
    2d28:	854a                	mv	a0,s2
    2d2a:	5492                	lw	s1,36(sp)
    2d2c:	5902                	lw	s2,32(sp)
    2d2e:	49f2                	lw	s3,28(sp)
    2d30:	4a62                	lw	s4,24(sp)
    2d32:	4ad2                	lw	s5,20(sp)
    2d34:	4b42                	lw	s6,16(sp)
    2d36:	4bb2                	lw	s7,12(sp)
    2d38:	6145                	addi	sp,sp,48
    2d3a:	8082                	ret
    2d3c:	4404                	lw	s1,8(s0)
    2d3e:	00442983          	lw	s3,4(s0)
    2d42:	19fd                	addi	s3,s3,-1
    2d44:	0009d463          	bgez	s3,2d4c <_fwalk_reent+0x4c>
    2d48:	4000                	lw	s0,0(s0)
    2d4a:	bfe1                	j	2d22 <_fwalk_reent+0x22>
    2d4c:	24de                	lhu	a5,12(s1)
    2d4e:	00fb7b63          	bgeu	s6,a5,2d64 <_fwalk_reent+0x64>
    2d52:	00e49783          	lh	a5,14(s1)
    2d56:	01778763          	beq	a5,s7,2d64 <_fwalk_reent+0x64>
    2d5a:	85a6                	mv	a1,s1
    2d5c:	8552                	mv	a0,s4
    2d5e:	9a82                	jalr	s5
    2d60:	00a96933          	or	s2,s2,a0
    2d64:	06848493          	addi	s1,s1,104
    2d68:	bfe9                	j	2d42 <_fwalk_reent+0x42>

00002d6a <_malloc_r>:
    2d6a:	1101                	addi	sp,sp,-32
    2d6c:	ca26                	sw	s1,20(sp)
    2d6e:	00358493          	addi	s1,a1,3
    2d72:	98f1                	andi	s1,s1,-4
    2d74:	ce06                	sw	ra,28(sp)
    2d76:	cc22                	sw	s0,24(sp)
    2d78:	c84a                	sw	s2,16(sp)
    2d7a:	c64e                	sw	s3,12(sp)
    2d7c:	04a1                	addi	s1,s1,8
    2d7e:	47b1                	li	a5,12
    2d80:	04f4f563          	bgeu	s1,a5,2dca <_malloc_r+0x60>
    2d84:	44b1                	li	s1,12
    2d86:	04b4e463          	bltu	s1,a1,2dce <_malloc_r+0x64>
    2d8a:	892a                	mv	s2,a0
    2d8c:	5a5000ef          	jal	ra,3b30 <__malloc_lock>
    2d90:	88418793          	addi	a5,gp,-1916 # 200000f4 <__malloc_free_list>
    2d94:	4398                	lw	a4,0(a5)
    2d96:	843a                	mv	s0,a4
    2d98:	e429                	bnez	s0,2de2 <_malloc_r+0x78>
    2d9a:	88818793          	addi	a5,gp,-1912 # 200000f8 <__malloc_sbrk_start>
    2d9e:	439c                	lw	a5,0(a5)
    2da0:	e799                	bnez	a5,2dae <_malloc_r+0x44>
    2da2:	4581                	li	a1,0
    2da4:	854a                	mv	a0,s2
    2da6:	7c0000ef          	jal	ra,3566 <_sbrk_r>
    2daa:	88a1a423          	sw	a0,-1912(gp) # 200000f8 <__malloc_sbrk_start>
    2dae:	85a6                	mv	a1,s1
    2db0:	854a                	mv	a0,s2
    2db2:	7b4000ef          	jal	ra,3566 <_sbrk_r>
    2db6:	59fd                	li	s3,-1
    2db8:	07351963          	bne	a0,s3,2e2a <_malloc_r+0xc0>
    2dbc:	47b1                	li	a5,12
    2dbe:	00f92023          	sw	a5,0(s2)
    2dc2:	854a                	mv	a0,s2
    2dc4:	56f000ef          	jal	ra,3b32 <__malloc_unlock>
    2dc8:	a029                	j	2dd2 <_malloc_r+0x68>
    2dca:	fa04dee3          	bgez	s1,2d86 <_malloc_r+0x1c>
    2dce:	47b1                	li	a5,12
    2dd0:	c11c                	sw	a5,0(a0)
    2dd2:	4501                	li	a0,0
    2dd4:	40f2                	lw	ra,28(sp)
    2dd6:	4462                	lw	s0,24(sp)
    2dd8:	44d2                	lw	s1,20(sp)
    2dda:	4942                	lw	s2,16(sp)
    2ddc:	49b2                	lw	s3,12(sp)
    2dde:	6105                	addi	sp,sp,32
    2de0:	8082                	ret
    2de2:	401c                	lw	a5,0(s0)
    2de4:	8f85                	sub	a5,a5,s1
    2de6:	0207cf63          	bltz	a5,2e24 <_malloc_r+0xba>
    2dea:	46ad                	li	a3,11
    2dec:	00f6f663          	bgeu	a3,a5,2df8 <_malloc_r+0x8e>
    2df0:	c01c                	sw	a5,0(s0)
    2df2:	943e                	add	s0,s0,a5
    2df4:	c004                	sw	s1,0(s0)
    2df6:	a031                	j	2e02 <_malloc_r+0x98>
    2df8:	405c                	lw	a5,4(s0)
    2dfa:	02871363          	bne	a4,s0,2e20 <_malloc_r+0xb6>
    2dfe:	88f1a223          	sw	a5,-1916(gp) # 200000f4 <__malloc_free_list>
    2e02:	854a                	mv	a0,s2
    2e04:	52f000ef          	jal	ra,3b32 <__malloc_unlock>
    2e08:	00b40513          	addi	a0,s0,11
    2e0c:	00440793          	addi	a5,s0,4
    2e10:	9961                	andi	a0,a0,-8
    2e12:	40f50733          	sub	a4,a0,a5
    2e16:	df5d                	beqz	a4,2dd4 <_malloc_r+0x6a>
    2e18:	943a                	add	s0,s0,a4
    2e1a:	8f89                	sub	a5,a5,a0
    2e1c:	c01c                	sw	a5,0(s0)
    2e1e:	bf5d                	j	2dd4 <_malloc_r+0x6a>
    2e20:	c35c                	sw	a5,4(a4)
    2e22:	b7c5                	j	2e02 <_malloc_r+0x98>
    2e24:	8722                	mv	a4,s0
    2e26:	4040                	lw	s0,4(s0)
    2e28:	bf85                	j	2d98 <_malloc_r+0x2e>
    2e2a:	00350413          	addi	s0,a0,3
    2e2e:	9871                	andi	s0,s0,-4
    2e30:	fc8502e3          	beq	a0,s0,2df4 <_malloc_r+0x8a>
    2e34:	40a405b3          	sub	a1,s0,a0
    2e38:	854a                	mv	a0,s2
    2e3a:	2735                	jal	3566 <_sbrk_r>
    2e3c:	fb351ce3          	bne	a0,s3,2df4 <_malloc_r+0x8a>
    2e40:	bfb5                	j	2dbc <_malloc_r+0x52>

00002e42 <__sfputc_r>:
    2e42:	461c                	lw	a5,8(a2)
    2e44:	17fd                	addi	a5,a5,-1
    2e46:	c61c                	sw	a5,8(a2)
    2e48:	0007da63          	bgez	a5,2e5c <__sfputc_r+0x1a>
    2e4c:	4e18                	lw	a4,24(a2)
    2e4e:	00e7c563          	blt	a5,a4,2e58 <__sfputc_r+0x16>
    2e52:	47a9                	li	a5,10
    2e54:	00f59463          	bne	a1,a5,2e5c <__sfputc_r+0x1a>
    2e58:	7ea0006f          	j	3642 <__swbuf_r>
    2e5c:	421c                	lw	a5,0(a2)
    2e5e:	852e                	mv	a0,a1
    2e60:	00178713          	addi	a4,a5,1 # ffff0001 <_eusrstack+0xdffe8001>
    2e64:	c218                	sw	a4,0(a2)
    2e66:	a38c                	sb	a1,0(a5)
    2e68:	8082                	ret

00002e6a <__sfputs_r>:
    2e6a:	1101                	addi	sp,sp,-32
    2e6c:	cc22                	sw	s0,24(sp)
    2e6e:	ca26                	sw	s1,20(sp)
    2e70:	c84a                	sw	s2,16(sp)
    2e72:	c64e                	sw	s3,12(sp)
    2e74:	c452                	sw	s4,8(sp)
    2e76:	ce06                	sw	ra,28(sp)
    2e78:	892a                	mv	s2,a0
    2e7a:	89ae                	mv	s3,a1
    2e7c:	8432                	mv	s0,a2
    2e7e:	00d604b3          	add	s1,a2,a3
    2e82:	5a7d                	li	s4,-1
    2e84:	00941463          	bne	s0,s1,2e8c <__sfputs_r+0x22>
    2e88:	4501                	li	a0,0
    2e8a:	a801                	j	2e9a <__sfputs_r+0x30>
    2e8c:	200c                	lbu	a1,0(s0)
    2e8e:	864e                	mv	a2,s3
    2e90:	854a                	mv	a0,s2
    2e92:	3f45                	jal	2e42 <__sfputc_r>
    2e94:	0405                	addi	s0,s0,1
    2e96:	ff4517e3          	bne	a0,s4,2e84 <__sfputs_r+0x1a>
    2e9a:	40f2                	lw	ra,28(sp)
    2e9c:	4462                	lw	s0,24(sp)
    2e9e:	44d2                	lw	s1,20(sp)
    2ea0:	4942                	lw	s2,16(sp)
    2ea2:	49b2                	lw	s3,12(sp)
    2ea4:	4a22                	lw	s4,8(sp)
    2ea6:	6105                	addi	sp,sp,32
    2ea8:	8082                	ret

00002eaa <_vfiprintf_r>:
    2eaa:	7135                	addi	sp,sp,-160
    2eac:	cd22                	sw	s0,152(sp)
    2eae:	cb26                	sw	s1,148(sp)
    2eb0:	c94a                	sw	s2,144(sp)
    2eb2:	c74e                	sw	s3,140(sp)
    2eb4:	cf06                	sw	ra,156(sp)
    2eb6:	c552                	sw	s4,136(sp)
    2eb8:	c356                	sw	s5,132(sp)
    2eba:	c15a                	sw	s6,128(sp)
    2ebc:	dede                	sw	s7,124(sp)
    2ebe:	dce2                	sw	s8,120(sp)
    2ec0:	dae6                	sw	s9,116(sp)
    2ec2:	89aa                	mv	s3,a0
    2ec4:	84ae                	mv	s1,a1
    2ec6:	8932                	mv	s2,a2
    2ec8:	8436                	mv	s0,a3
    2eca:	c509                	beqz	a0,2ed4 <_vfiprintf_r+0x2a>
    2ecc:	4d1c                	lw	a5,24(a0)
    2ece:	e399                	bnez	a5,2ed4 <_vfiprintf_r+0x2a>
    2ed0:	d2dff0ef          	jal	ra,2bfc <__sinit>
    2ed4:	00001797          	auipc	a5,0x1
    2ed8:	f4878793          	addi	a5,a5,-184 # 3e1c <__sf_fake_stdin>
    2edc:	0cf49863          	bne	s1,a5,2fac <_vfiprintf_r+0x102>
    2ee0:	0049a483          	lw	s1,4(s3)
    2ee4:	24de                	lhu	a5,12(s1)
    2ee6:	8ba1                	andi	a5,a5,8
    2ee8:	c7e5                	beqz	a5,2fd0 <_vfiprintf_r+0x126>
    2eea:	489c                	lw	a5,16(s1)
    2eec:	c3f5                	beqz	a5,2fd0 <_vfiprintf_r+0x126>
    2eee:	02000793          	li	a5,32
    2ef2:	02f104a3          	sb	a5,41(sp)
    2ef6:	03000793          	li	a5,48
    2efa:	d202                	sw	zero,36(sp)
    2efc:	02f10523          	sb	a5,42(sp)
    2f00:	c622                	sw	s0,12(sp)
    2f02:	02500b93          	li	s7,37
    2f06:	00001a97          	auipc	s5,0x1
    2f0a:	f56a8a93          	addi	s5,s5,-170 # 3e5c <__sf_fake_stdout+0x20>
    2f0e:	4c05                	li	s8,1
    2f10:	4b29                	li	s6,10
    2f12:	844a                	mv	s0,s2
    2f14:	201c                	lbu	a5,0(s0)
    2f16:	c399                	beqz	a5,2f1c <_vfiprintf_r+0x72>
    2f18:	0d779e63          	bne	a5,s7,2ff4 <_vfiprintf_r+0x14a>
    2f1c:	41240cb3          	sub	s9,s0,s2
    2f20:	000c8d63          	beqz	s9,2f3a <_vfiprintf_r+0x90>
    2f24:	86e6                	mv	a3,s9
    2f26:	864a                	mv	a2,s2
    2f28:	85a6                	mv	a1,s1
    2f2a:	854e                	mv	a0,s3
    2f2c:	3f3d                	jal	2e6a <__sfputs_r>
    2f2e:	57fd                	li	a5,-1
    2f30:	1ef50163          	beq	a0,a5,3112 <_vfiprintf_r+0x268>
    2f34:	5692                	lw	a3,36(sp)
    2f36:	96e6                	add	a3,a3,s9
    2f38:	d236                	sw	a3,36(sp)
    2f3a:	201c                	lbu	a5,0(s0)
    2f3c:	1c078b63          	beqz	a5,3112 <_vfiprintf_r+0x268>
    2f40:	57fd                	li	a5,-1
    2f42:	00140913          	addi	s2,s0,1
    2f46:	c802                	sw	zero,16(sp)
    2f48:	ce02                	sw	zero,28(sp)
    2f4a:	ca3e                	sw	a5,20(sp)
    2f4c:	cc02                	sw	zero,24(sp)
    2f4e:	040109a3          	sb	zero,83(sp)
    2f52:	d482                	sw	zero,104(sp)
    2f54:	00094583          	lbu	a1,0(s2)
    2f58:	4615                	li	a2,5
    2f5a:	8556                	mv	a0,s5
    2f5c:	3bd000ef          	jal	ra,3b18 <memchr>
    2f60:	00190413          	addi	s0,s2,1
    2f64:	47c2                	lw	a5,16(sp)
    2f66:	e949                	bnez	a0,2ff8 <_vfiprintf_r+0x14e>
    2f68:	0107f713          	andi	a4,a5,16
    2f6c:	c709                	beqz	a4,2f76 <_vfiprintf_r+0xcc>
    2f6e:	02000713          	li	a4,32
    2f72:	04e109a3          	sb	a4,83(sp)
    2f76:	0087f713          	andi	a4,a5,8
    2f7a:	c709                	beqz	a4,2f84 <_vfiprintf_r+0xda>
    2f7c:	02b00713          	li	a4,43
    2f80:	04e109a3          	sb	a4,83(sp)
    2f84:	00094683          	lbu	a3,0(s2)
    2f88:	02a00713          	li	a4,42
    2f8c:	06e68e63          	beq	a3,a4,3008 <_vfiprintf_r+0x15e>
    2f90:	47f2                	lw	a5,28(sp)
    2f92:	844a                	mv	s0,s2
    2f94:	4681                	li	a3,0
    2f96:	4625                	li	a2,9
    2f98:	2018                	lbu	a4,0(s0)
    2f9a:	00140593          	addi	a1,s0,1
    2f9e:	fd070713          	addi	a4,a4,-48
    2fa2:	0ae67663          	bgeu	a2,a4,304e <_vfiprintf_r+0x1a4>
    2fa6:	caad                	beqz	a3,3018 <_vfiprintf_r+0x16e>
    2fa8:	ce3e                	sw	a5,28(sp)
    2faa:	a0bd                	j	3018 <_vfiprintf_r+0x16e>
    2fac:	00001797          	auipc	a5,0x1
    2fb0:	e9078793          	addi	a5,a5,-368 # 3e3c <__sf_fake_stdout>
    2fb4:	00f49563          	bne	s1,a5,2fbe <_vfiprintf_r+0x114>
    2fb8:	0089a483          	lw	s1,8(s3)
    2fbc:	b725                	j	2ee4 <_vfiprintf_r+0x3a>
    2fbe:	00001797          	auipc	a5,0x1
    2fc2:	e3e78793          	addi	a5,a5,-450 # 3dfc <__sf_fake_stderr>
    2fc6:	f0f49fe3          	bne	s1,a5,2ee4 <_vfiprintf_r+0x3a>
    2fca:	00c9a483          	lw	s1,12(s3)
    2fce:	bf19                	j	2ee4 <_vfiprintf_r+0x3a>
    2fd0:	85a6                	mv	a1,s1
    2fd2:	854e                	mv	a0,s3
    2fd4:	278d                	jal	3736 <__swsetup_r>
    2fd6:	dd01                	beqz	a0,2eee <_vfiprintf_r+0x44>
    2fd8:	557d                	li	a0,-1
    2fda:	40fa                	lw	ra,156(sp)
    2fdc:	446a                	lw	s0,152(sp)
    2fde:	44da                	lw	s1,148(sp)
    2fe0:	494a                	lw	s2,144(sp)
    2fe2:	49ba                	lw	s3,140(sp)
    2fe4:	4a2a                	lw	s4,136(sp)
    2fe6:	4a9a                	lw	s5,132(sp)
    2fe8:	4b0a                	lw	s6,128(sp)
    2fea:	5bf6                	lw	s7,124(sp)
    2fec:	5c66                	lw	s8,120(sp)
    2fee:	5cd6                	lw	s9,116(sp)
    2ff0:	610d                	addi	sp,sp,160
    2ff2:	8082                	ret
    2ff4:	0405                	addi	s0,s0,1
    2ff6:	bf39                	j	2f14 <_vfiprintf_r+0x6a>
    2ff8:	41550533          	sub	a0,a0,s5
    2ffc:	00ac1533          	sll	a0,s8,a0
    3000:	8fc9                	or	a5,a5,a0
    3002:	c83e                	sw	a5,16(sp)
    3004:	8922                	mv	s2,s0
    3006:	b7b9                	j	2f54 <_vfiprintf_r+0xaa>
    3008:	4732                	lw	a4,12(sp)
    300a:	00470693          	addi	a3,a4,4
    300e:	4318                	lw	a4,0(a4)
    3010:	c636                	sw	a3,12(sp)
    3012:	02074763          	bltz	a4,3040 <_vfiprintf_r+0x196>
    3016:	ce3a                	sw	a4,28(sp)
    3018:	2018                	lbu	a4,0(s0)
    301a:	02e00793          	li	a5,46
    301e:	04f71d63          	bne	a4,a5,3078 <_vfiprintf_r+0x1ce>
    3022:	3018                	lbu	a4,1(s0)
    3024:	02a00793          	li	a5,42
    3028:	02f71b63          	bne	a4,a5,305e <_vfiprintf_r+0x1b4>
    302c:	47b2                	lw	a5,12(sp)
    302e:	0409                	addi	s0,s0,2
    3030:	00478713          	addi	a4,a5,4
    3034:	439c                	lw	a5,0(a5)
    3036:	c63a                	sw	a4,12(sp)
    3038:	0207c163          	bltz	a5,305a <_vfiprintf_r+0x1b0>
    303c:	ca3e                	sw	a5,20(sp)
    303e:	a82d                	j	3078 <_vfiprintf_r+0x1ce>
    3040:	40e00733          	neg	a4,a4
    3044:	0027e793          	ori	a5,a5,2
    3048:	ce3a                	sw	a4,28(sp)
    304a:	c83e                	sw	a5,16(sp)
    304c:	b7f1                	j	3018 <_vfiprintf_r+0x16e>
    304e:	036787b3          	mul	a5,a5,s6
    3052:	4685                	li	a3,1
    3054:	842e                	mv	s0,a1
    3056:	97ba                	add	a5,a5,a4
    3058:	b781                	j	2f98 <_vfiprintf_r+0xee>
    305a:	57fd                	li	a5,-1
    305c:	b7c5                	j	303c <_vfiprintf_r+0x192>
    305e:	0405                	addi	s0,s0,1
    3060:	ca02                	sw	zero,20(sp)
    3062:	4681                	li	a3,0
    3064:	4781                	li	a5,0
    3066:	4625                	li	a2,9
    3068:	2018                	lbu	a4,0(s0)
    306a:	00140593          	addi	a1,s0,1
    306e:	fd070713          	addi	a4,a4,-48
    3072:	06e67663          	bgeu	a2,a4,30de <_vfiprintf_r+0x234>
    3076:	f2f9                	bnez	a3,303c <_vfiprintf_r+0x192>
    3078:	200c                	lbu	a1,0(s0)
    307a:	460d                	li	a2,3
    307c:	00001517          	auipc	a0,0x1
    3080:	de850513          	addi	a0,a0,-536 # 3e64 <__sf_fake_stdout+0x28>
    3084:	295000ef          	jal	ra,3b18 <memchr>
    3088:	cd11                	beqz	a0,30a4 <_vfiprintf_r+0x1fa>
    308a:	00001797          	auipc	a5,0x1
    308e:	dda78793          	addi	a5,a5,-550 # 3e64 <__sf_fake_stdout+0x28>
    3092:	8d1d                	sub	a0,a0,a5
    3094:	04000793          	li	a5,64
    3098:	00a797b3          	sll	a5,a5,a0
    309c:	4542                	lw	a0,16(sp)
    309e:	0405                	addi	s0,s0,1
    30a0:	8d5d                	or	a0,a0,a5
    30a2:	c82a                	sw	a0,16(sp)
    30a4:	200c                	lbu	a1,0(s0)
    30a6:	4619                	li	a2,6
    30a8:	00001517          	auipc	a0,0x1
    30ac:	dc050513          	addi	a0,a0,-576 # 3e68 <__sf_fake_stdout+0x2c>
    30b0:	00140913          	addi	s2,s0,1
    30b4:	02b10423          	sb	a1,40(sp)
    30b8:	261000ef          	jal	ra,3b18 <memchr>
    30bc:	c135                	beqz	a0,3120 <_vfiprintf_r+0x276>
    30be:	ffffd797          	auipc	a5,0xffffd
    30c2:	f4278793          	addi	a5,a5,-190 # 0 <_sinit>
    30c6:	e795                	bnez	a5,30f2 <_vfiprintf_r+0x248>
    30c8:	4742                	lw	a4,16(sp)
    30ca:	47b2                	lw	a5,12(sp)
    30cc:	10077713          	andi	a4,a4,256
    30d0:	cf09                	beqz	a4,30ea <_vfiprintf_r+0x240>
    30d2:	0791                	addi	a5,a5,4
    30d4:	c63e                	sw	a5,12(sp)
    30d6:	5792                	lw	a5,36(sp)
    30d8:	97d2                	add	a5,a5,s4
    30da:	d23e                	sw	a5,36(sp)
    30dc:	bd1d                	j	2f12 <_vfiprintf_r+0x68>
    30de:	036787b3          	mul	a5,a5,s6
    30e2:	4685                	li	a3,1
    30e4:	842e                	mv	s0,a1
    30e6:	97ba                	add	a5,a5,a4
    30e8:	b741                	j	3068 <_vfiprintf_r+0x1be>
    30ea:	079d                	addi	a5,a5,7
    30ec:	9be1                	andi	a5,a5,-8
    30ee:	07a1                	addi	a5,a5,8
    30f0:	b7d5                	j	30d4 <_vfiprintf_r+0x22a>
    30f2:	0078                	addi	a4,sp,12
    30f4:	00000697          	auipc	a3,0x0
    30f8:	d7668693          	addi	a3,a3,-650 # 2e6a <__sfputs_r>
    30fc:	8626                	mv	a2,s1
    30fe:	080c                	addi	a1,sp,16
    3100:	854e                	mv	a0,s3
    3102:	00000097          	auipc	ra,0x0
    3106:	000000e7          	jalr	zero # 0 <_sinit>
    310a:	57fd                	li	a5,-1
    310c:	8a2a                	mv	s4,a0
    310e:	fcf514e3          	bne	a0,a5,30d6 <_vfiprintf_r+0x22c>
    3112:	24de                	lhu	a5,12(s1)
    3114:	0407f793          	andi	a5,a5,64
    3118:	ec0790e3          	bnez	a5,2fd8 <_vfiprintf_r+0x12e>
    311c:	5512                	lw	a0,36(sp)
    311e:	bd75                	j	2fda <_vfiprintf_r+0x130>
    3120:	0078                	addi	a4,sp,12
    3122:	00000697          	auipc	a3,0x0
    3126:	d4868693          	addi	a3,a3,-696 # 2e6a <__sfputs_r>
    312a:	8626                	mv	a2,s1
    312c:	080c                	addi	a1,sp,16
    312e:	854e                	mv	a0,s3
    3130:	2a01                	jal	3240 <_printf_i>
    3132:	bfe1                	j	310a <_vfiprintf_r+0x260>

00003134 <_printf_common>:
    3134:	7179                	addi	sp,sp,-48
    3136:	ca56                	sw	s5,20(sp)
    3138:	499c                	lw	a5,16(a1)
    313a:	8aba                	mv	s5,a4
    313c:	4598                	lw	a4,8(a1)
    313e:	d422                	sw	s0,40(sp)
    3140:	d226                	sw	s1,36(sp)
    3142:	ce4e                	sw	s3,28(sp)
    3144:	cc52                	sw	s4,24(sp)
    3146:	d606                	sw	ra,44(sp)
    3148:	d04a                	sw	s2,32(sp)
    314a:	c85a                	sw	s6,16(sp)
    314c:	c65e                	sw	s7,12(sp)
    314e:	89aa                	mv	s3,a0
    3150:	842e                	mv	s0,a1
    3152:	84b2                	mv	s1,a2
    3154:	8a36                	mv	s4,a3
    3156:	00e7d363          	bge	a5,a4,315c <_printf_common+0x28>
    315a:	87ba                	mv	a5,a4
    315c:	c09c                	sw	a5,0(s1)
    315e:	04344703          	lbu	a4,67(s0)
    3162:	c319                	beqz	a4,3168 <_printf_common+0x34>
    3164:	0785                	addi	a5,a5,1
    3166:	c09c                	sw	a5,0(s1)
    3168:	401c                	lw	a5,0(s0)
    316a:	0207f793          	andi	a5,a5,32
    316e:	c781                	beqz	a5,3176 <_printf_common+0x42>
    3170:	409c                	lw	a5,0(s1)
    3172:	0789                	addi	a5,a5,2
    3174:	c09c                	sw	a5,0(s1)
    3176:	00042903          	lw	s2,0(s0)
    317a:	00697913          	andi	s2,s2,6
    317e:	00091a63          	bnez	s2,3192 <_printf_common+0x5e>
    3182:	01940b13          	addi	s6,s0,25
    3186:	5bfd                	li	s7,-1
    3188:	445c                	lw	a5,12(s0)
    318a:	4098                	lw	a4,0(s1)
    318c:	8f99                	sub	a5,a5,a4
    318e:	04f94c63          	blt	s2,a5,31e6 <_printf_common+0xb2>
    3192:	401c                	lw	a5,0(s0)
    3194:	04344683          	lbu	a3,67(s0)
    3198:	0207f793          	andi	a5,a5,32
    319c:	00d036b3          	snez	a3,a3
    31a0:	eba5                	bnez	a5,3210 <_printf_common+0xdc>
    31a2:	04340613          	addi	a2,s0,67
    31a6:	85d2                	mv	a1,s4
    31a8:	854e                	mv	a0,s3
    31aa:	9a82                	jalr	s5
    31ac:	57fd                	li	a5,-1
    31ae:	04f50363          	beq	a0,a5,31f4 <_printf_common+0xc0>
    31b2:	401c                	lw	a5,0(s0)
    31b4:	4611                	li	a2,4
    31b6:	4098                	lw	a4,0(s1)
    31b8:	8b99                	andi	a5,a5,6
    31ba:	4454                	lw	a3,12(s0)
    31bc:	4481                	li	s1,0
    31be:	00c79763          	bne	a5,a2,31cc <_printf_common+0x98>
    31c2:	40e684b3          	sub	s1,a3,a4
    31c6:	0004d363          	bgez	s1,31cc <_printf_common+0x98>
    31ca:	4481                	li	s1,0
    31cc:	441c                	lw	a5,8(s0)
    31ce:	4818                	lw	a4,16(s0)
    31d0:	00f75463          	bge	a4,a5,31d8 <_printf_common+0xa4>
    31d4:	8f99                	sub	a5,a5,a4
    31d6:	94be                	add	s1,s1,a5
    31d8:	4901                	li	s2,0
    31da:	0469                	addi	s0,s0,26
    31dc:	5b7d                	li	s6,-1
    31de:	05249863          	bne	s1,s2,322e <_printf_common+0xfa>
    31e2:	4501                	li	a0,0
    31e4:	a809                	j	31f6 <_printf_common+0xc2>
    31e6:	4685                	li	a3,1
    31e8:	865a                	mv	a2,s6
    31ea:	85d2                	mv	a1,s4
    31ec:	854e                	mv	a0,s3
    31ee:	9a82                	jalr	s5
    31f0:	01751e63          	bne	a0,s7,320c <_printf_common+0xd8>
    31f4:	557d                	li	a0,-1
    31f6:	50b2                	lw	ra,44(sp)
    31f8:	5422                	lw	s0,40(sp)
    31fa:	5492                	lw	s1,36(sp)
    31fc:	5902                	lw	s2,32(sp)
    31fe:	49f2                	lw	s3,28(sp)
    3200:	4a62                	lw	s4,24(sp)
    3202:	4ad2                	lw	s5,20(sp)
    3204:	4b42                	lw	s6,16(sp)
    3206:	4bb2                	lw	s7,12(sp)
    3208:	6145                	addi	sp,sp,48
    320a:	8082                	ret
    320c:	0905                	addi	s2,s2,1
    320e:	bfad                	j	3188 <_printf_common+0x54>
    3210:	00d40733          	add	a4,s0,a3
    3214:	03000613          	li	a2,48
    3218:	04c701a3          	sb	a2,67(a4)
    321c:	04544703          	lbu	a4,69(s0)
    3220:	00168793          	addi	a5,a3,1
    3224:	97a2                	add	a5,a5,s0
    3226:	0689                	addi	a3,a3,2
    3228:	04e781a3          	sb	a4,67(a5)
    322c:	bf9d                	j	31a2 <_printf_common+0x6e>
    322e:	4685                	li	a3,1
    3230:	8622                	mv	a2,s0
    3232:	85d2                	mv	a1,s4
    3234:	854e                	mv	a0,s3
    3236:	9a82                	jalr	s5
    3238:	fb650ee3          	beq	a0,s6,31f4 <_printf_common+0xc0>
    323c:	0905                	addi	s2,s2,1
    323e:	b745                	j	31de <_printf_common+0xaa>

00003240 <_printf_i>:
    3240:	7179                	addi	sp,sp,-48
    3242:	d422                	sw	s0,40(sp)
    3244:	d226                	sw	s1,36(sp)
    3246:	d04a                	sw	s2,32(sp)
    3248:	ce4e                	sw	s3,28(sp)
    324a:	d606                	sw	ra,44(sp)
    324c:	cc52                	sw	s4,24(sp)
    324e:	ca56                	sw	s5,20(sp)
    3250:	c85a                	sw	s6,16(sp)
    3252:	89b6                	mv	s3,a3
    3254:	2d94                	lbu	a3,24(a1)
    3256:	06900793          	li	a5,105
    325a:	8932                	mv	s2,a2
    325c:	84aa                	mv	s1,a0
    325e:	842e                	mv	s0,a1
    3260:	04358613          	addi	a2,a1,67
    3264:	02f68d63          	beq	a3,a5,329e <_printf_i+0x5e>
    3268:	06d7e263          	bltu	a5,a3,32cc <_printf_i+0x8c>
    326c:	05800793          	li	a5,88
    3270:	18f68763          	beq	a3,a5,33fe <_printf_i+0x1be>
    3274:	00d7ed63          	bltu	a5,a3,328e <_printf_i+0x4e>
    3278:	20068f63          	beqz	a3,3496 <_printf_i+0x256>
    327c:	04300793          	li	a5,67
    3280:	0af68f63          	beq	a3,a5,333e <_printf_i+0xfe>
    3284:	04240a93          	addi	s5,s0,66
    3288:	04d40123          	sb	a3,66(s0)
    328c:	a0d1                	j	3350 <_printf_i+0x110>
    328e:	06300793          	li	a5,99
    3292:	0af68663          	beq	a3,a5,333e <_printf_i+0xfe>
    3296:	06400793          	li	a5,100
    329a:	fef695e3          	bne	a3,a5,3284 <_printf_i+0x44>
    329e:	401c                	lw	a5,0(s0)
    32a0:	4308                	lw	a0,0(a4)
    32a2:	0807f693          	andi	a3,a5,128
    32a6:	00450593          	addi	a1,a0,4
    32aa:	c6cd                	beqz	a3,3354 <_printf_i+0x114>
    32ac:	411c                	lw	a5,0(a0)
    32ae:	c30c                	sw	a1,0(a4)
    32b0:	0007d863          	bgez	a5,32c0 <_printf_i+0x80>
    32b4:	02d00713          	li	a4,45
    32b8:	40f007b3          	neg	a5,a5
    32bc:	04e401a3          	sb	a4,67(s0)
    32c0:	00001697          	auipc	a3,0x1
    32c4:	bb068693          	addi	a3,a3,-1104 # 3e70 <__sf_fake_stdout+0x34>
    32c8:	4729                	li	a4,10
    32ca:	a86d                	j	3384 <_printf_i+0x144>
    32cc:	07000793          	li	a5,112
    32d0:	16f68363          	beq	a3,a5,3436 <_printf_i+0x1f6>
    32d4:	02d7e563          	bltu	a5,a3,32fe <_printf_i+0xbe>
    32d8:	06e00793          	li	a5,110
    32dc:	18f68a63          	beq	a3,a5,3470 <_printf_i+0x230>
    32e0:	06f00793          	li	a5,111
    32e4:	faf690e3          	bne	a3,a5,3284 <_printf_i+0x44>
    32e8:	400c                	lw	a1,0(s0)
    32ea:	431c                	lw	a5,0(a4)
    32ec:	0805f813          	andi	a6,a1,128
    32f0:	00478513          	addi	a0,a5,4
    32f4:	06080863          	beqz	a6,3364 <_printf_i+0x124>
    32f8:	c308                	sw	a0,0(a4)
    32fa:	439c                	lw	a5,0(a5)
    32fc:	a88d                	j	336e <_printf_i+0x12e>
    32fe:	07500793          	li	a5,117
    3302:	fef683e3          	beq	a3,a5,32e8 <_printf_i+0xa8>
    3306:	07800793          	li	a5,120
    330a:	12f68a63          	beq	a3,a5,343e <_printf_i+0x1fe>
    330e:	07300793          	li	a5,115
    3312:	f6f699e3          	bne	a3,a5,3284 <_printf_i+0x44>
    3316:	431c                	lw	a5,0(a4)
    3318:	41d0                	lw	a2,4(a1)
    331a:	4581                	li	a1,0
    331c:	00478693          	addi	a3,a5,4
    3320:	c314                	sw	a3,0(a4)
    3322:	0007aa83          	lw	s5,0(a5)
    3326:	8556                	mv	a0,s5
    3328:	7f0000ef          	jal	ra,3b18 <memchr>
    332c:	c501                	beqz	a0,3334 <_printf_i+0xf4>
    332e:	41550533          	sub	a0,a0,s5
    3332:	c048                	sw	a0,4(s0)
    3334:	405c                	lw	a5,4(s0)
    3336:	c81c                	sw	a5,16(s0)
    3338:	040401a3          	sb	zero,67(s0)
    333c:	a861                	j	33d4 <_printf_i+0x194>
    333e:	431c                	lw	a5,0(a4)
    3340:	04240a93          	addi	s5,s0,66
    3344:	00478693          	addi	a3,a5,4
    3348:	439c                	lw	a5,0(a5)
    334a:	c314                	sw	a3,0(a4)
    334c:	04f40123          	sb	a5,66(s0)
    3350:	4785                	li	a5,1
    3352:	b7d5                	j	3336 <_printf_i+0xf6>
    3354:	0407f693          	andi	a3,a5,64
    3358:	411c                	lw	a5,0(a0)
    335a:	c30c                	sw	a1,0(a4)
    335c:	dab1                	beqz	a3,32b0 <_printf_i+0x70>
    335e:	07c2                	slli	a5,a5,0x10
    3360:	87c1                	srai	a5,a5,0x10
    3362:	b7b9                	j	32b0 <_printf_i+0x70>
    3364:	0405f593          	andi	a1,a1,64
    3368:	c308                	sw	a0,0(a4)
    336a:	d9c1                	beqz	a1,32fa <_printf_i+0xba>
    336c:	239e                	lhu	a5,0(a5)
    336e:	06f00713          	li	a4,111
    3372:	0ee68763          	beq	a3,a4,3460 <_printf_i+0x220>
    3376:	00001697          	auipc	a3,0x1
    337a:	afa68693          	addi	a3,a3,-1286 # 3e70 <__sf_fake_stdout+0x34>
    337e:	4729                	li	a4,10
    3380:	040401a3          	sb	zero,67(s0)
    3384:	404c                	lw	a1,4(s0)
    3386:	c40c                	sw	a1,8(s0)
    3388:	0005c563          	bltz	a1,3392 <_printf_i+0x152>
    338c:	4008                	lw	a0,0(s0)
    338e:	996d                	andi	a0,a0,-5
    3390:	c008                	sw	a0,0(s0)
    3392:	e399                	bnez	a5,3398 <_printf_i+0x158>
    3394:	8ab2                	mv	s5,a2
    3396:	cd89                	beqz	a1,33b0 <_printf_i+0x170>
    3398:	8ab2                	mv	s5,a2
    339a:	02e7f5b3          	remu	a1,a5,a4
    339e:	1afd                	addi	s5,s5,-1
    33a0:	95b6                	add	a1,a1,a3
    33a2:	218c                	lbu	a1,0(a1)
    33a4:	00ba8023          	sb	a1,0(s5)
    33a8:	02e7d5b3          	divu	a1,a5,a4
    33ac:	0ce7f063          	bgeu	a5,a4,346c <_printf_i+0x22c>
    33b0:	47a1                	li	a5,8
    33b2:	00f71e63          	bne	a4,a5,33ce <_printf_i+0x18e>
    33b6:	401c                	lw	a5,0(s0)
    33b8:	8b85                	andi	a5,a5,1
    33ba:	cb91                	beqz	a5,33ce <_printf_i+0x18e>
    33bc:	4058                	lw	a4,4(s0)
    33be:	481c                	lw	a5,16(s0)
    33c0:	00e7c763          	blt	a5,a4,33ce <_printf_i+0x18e>
    33c4:	03000793          	li	a5,48
    33c8:	fefa8fa3          	sb	a5,-1(s5)
    33cc:	1afd                	addi	s5,s5,-1
    33ce:	41560633          	sub	a2,a2,s5
    33d2:	c810                	sw	a2,16(s0)
    33d4:	874e                	mv	a4,s3
    33d6:	86ca                	mv	a3,s2
    33d8:	0070                	addi	a2,sp,12
    33da:	85a2                	mv	a1,s0
    33dc:	8526                	mv	a0,s1
    33de:	d57ff0ef          	jal	ra,3134 <_printf_common>
    33e2:	5a7d                	li	s4,-1
    33e4:	0b451d63          	bne	a0,s4,349e <_printf_i+0x25e>
    33e8:	557d                	li	a0,-1
    33ea:	50b2                	lw	ra,44(sp)
    33ec:	5422                	lw	s0,40(sp)
    33ee:	5492                	lw	s1,36(sp)
    33f0:	5902                	lw	s2,32(sp)
    33f2:	49f2                	lw	s3,28(sp)
    33f4:	4a62                	lw	s4,24(sp)
    33f6:	4ad2                	lw	s5,20(sp)
    33f8:	4b42                	lw	s6,16(sp)
    33fa:	6145                	addi	sp,sp,48
    33fc:	8082                	ret
    33fe:	04d582a3          	sb	a3,69(a1)
    3402:	00001697          	auipc	a3,0x1
    3406:	a6e68693          	addi	a3,a3,-1426 # 3e70 <__sf_fake_stdout+0x34>
    340a:	400c                	lw	a1,0(s0)
    340c:	4308                	lw	a0,0(a4)
    340e:	0805f813          	andi	a6,a1,128
    3412:	411c                	lw	a5,0(a0)
    3414:	0511                	addi	a0,a0,4
    3416:	02080d63          	beqz	a6,3450 <_printf_i+0x210>
    341a:	c308                	sw	a0,0(a4)
    341c:	0015f713          	andi	a4,a1,1
    3420:	c701                	beqz	a4,3428 <_printf_i+0x1e8>
    3422:	0205e593          	ori	a1,a1,32
    3426:	c00c                	sw	a1,0(s0)
    3428:	4741                	li	a4,16
    342a:	fbb9                	bnez	a5,3380 <_printf_i+0x140>
    342c:	400c                	lw	a1,0(s0)
    342e:	fdf5f593          	andi	a1,a1,-33
    3432:	c00c                	sw	a1,0(s0)
    3434:	b7b1                	j	3380 <_printf_i+0x140>
    3436:	419c                	lw	a5,0(a1)
    3438:	0207e793          	ori	a5,a5,32
    343c:	c19c                	sw	a5,0(a1)
    343e:	07800793          	li	a5,120
    3442:	04f402a3          	sb	a5,69(s0)
    3446:	00001697          	auipc	a3,0x1
    344a:	a3e68693          	addi	a3,a3,-1474 # 3e84 <__sf_fake_stdout+0x48>
    344e:	bf75                	j	340a <_printf_i+0x1ca>
    3450:	0405f813          	andi	a6,a1,64
    3454:	c308                	sw	a0,0(a4)
    3456:	fc0803e3          	beqz	a6,341c <_printf_i+0x1dc>
    345a:	07c2                	slli	a5,a5,0x10
    345c:	83c1                	srli	a5,a5,0x10
    345e:	bf7d                	j	341c <_printf_i+0x1dc>
    3460:	00001697          	auipc	a3,0x1
    3464:	a1068693          	addi	a3,a3,-1520 # 3e70 <__sf_fake_stdout+0x34>
    3468:	4721                	li	a4,8
    346a:	bf19                	j	3380 <_printf_i+0x140>
    346c:	87ae                	mv	a5,a1
    346e:	b735                	j	339a <_printf_i+0x15a>
    3470:	4194                	lw	a3,0(a1)
    3472:	431c                	lw	a5,0(a4)
    3474:	49cc                	lw	a1,20(a1)
    3476:	0806f813          	andi	a6,a3,128
    347a:	00478513          	addi	a0,a5,4
    347e:	00080663          	beqz	a6,348a <_printf_i+0x24a>
    3482:	c308                	sw	a0,0(a4)
    3484:	439c                	lw	a5,0(a5)
    3486:	c38c                	sw	a1,0(a5)
    3488:	a039                	j	3496 <_printf_i+0x256>
    348a:	c308                	sw	a0,0(a4)
    348c:	0406f693          	andi	a3,a3,64
    3490:	439c                	lw	a5,0(a5)
    3492:	daf5                	beqz	a3,3486 <_printf_i+0x246>
    3494:	a38e                	sh	a1,0(a5)
    3496:	00042823          	sw	zero,16(s0)
    349a:	8ab2                	mv	s5,a2
    349c:	bf25                	j	33d4 <_printf_i+0x194>
    349e:	4814                	lw	a3,16(s0)
    34a0:	8656                	mv	a2,s5
    34a2:	85ca                	mv	a1,s2
    34a4:	8526                	mv	a0,s1
    34a6:	9982                	jalr	s3
    34a8:	f54500e3          	beq	a0,s4,33e8 <_printf_i+0x1a8>
    34ac:	401c                	lw	a5,0(s0)
    34ae:	8b89                	andi	a5,a5,2
    34b0:	e78d                	bnez	a5,34da <_printf_i+0x29a>
    34b2:	47b2                	lw	a5,12(sp)
    34b4:	4448                	lw	a0,12(s0)
    34b6:	f2f55ae3          	bge	a0,a5,33ea <_printf_i+0x1aa>
    34ba:	853e                	mv	a0,a5
    34bc:	b73d                	j	33ea <_printf_i+0x1aa>
    34be:	4685                	li	a3,1
    34c0:	8656                	mv	a2,s5
    34c2:	85ca                	mv	a1,s2
    34c4:	8526                	mv	a0,s1
    34c6:	9982                	jalr	s3
    34c8:	f36500e3          	beq	a0,s6,33e8 <_printf_i+0x1a8>
    34cc:	0a05                	addi	s4,s4,1
    34ce:	445c                	lw	a5,12(s0)
    34d0:	4732                	lw	a4,12(sp)
    34d2:	8f99                	sub	a5,a5,a4
    34d4:	fefa45e3          	blt	s4,a5,34be <_printf_i+0x27e>
    34d8:	bfe9                	j	34b2 <_printf_i+0x272>
    34da:	4a01                	li	s4,0
    34dc:	01940a93          	addi	s5,s0,25
    34e0:	5b7d                	li	s6,-1
    34e2:	b7f5                	j	34ce <_printf_i+0x28e>

000034e4 <_putc_r>:
    34e4:	1101                	addi	sp,sp,-32
    34e6:	cc22                	sw	s0,24(sp)
    34e8:	ce06                	sw	ra,28(sp)
    34ea:	842a                	mv	s0,a0
    34ec:	c909                	beqz	a0,34fe <_putc_r+0x1a>
    34ee:	4d1c                	lw	a5,24(a0)
    34f0:	e799                	bnez	a5,34fe <_putc_r+0x1a>
    34f2:	c632                	sw	a2,12(sp)
    34f4:	c42e                	sw	a1,8(sp)
    34f6:	f06ff0ef          	jal	ra,2bfc <__sinit>
    34fa:	4632                	lw	a2,12(sp)
    34fc:	45a2                	lw	a1,8(sp)
    34fe:	00001797          	auipc	a5,0x1
    3502:	91e78793          	addi	a5,a5,-1762 # 3e1c <__sf_fake_stdin>
    3506:	02f61563          	bne	a2,a5,3530 <_putc_r+0x4c>
    350a:	4050                	lw	a2,4(s0)
    350c:	461c                	lw	a5,8(a2)
    350e:	17fd                	addi	a5,a5,-1
    3510:	c61c                	sw	a5,8(a2)
    3512:	0207df63          	bgez	a5,3550 <_putc_r+0x6c>
    3516:	4e18                	lw	a4,24(a2)
    3518:	00e7c763          	blt	a5,a4,3526 <_putc_r+0x42>
    351c:	0ff5f793          	andi	a5,a1,255
    3520:	4729                	li	a4,10
    3522:	02e79763          	bne	a5,a4,3550 <_putc_r+0x6c>
    3526:	8522                	mv	a0,s0
    3528:	4462                	lw	s0,24(sp)
    352a:	40f2                	lw	ra,28(sp)
    352c:	6105                	addi	sp,sp,32
    352e:	aa11                	j	3642 <__swbuf_r>
    3530:	00001797          	auipc	a5,0x1
    3534:	90c78793          	addi	a5,a5,-1780 # 3e3c <__sf_fake_stdout>
    3538:	00f61463          	bne	a2,a5,3540 <_putc_r+0x5c>
    353c:	4410                	lw	a2,8(s0)
    353e:	b7f9                	j	350c <_putc_r+0x28>
    3540:	00001797          	auipc	a5,0x1
    3544:	8bc78793          	addi	a5,a5,-1860 # 3dfc <__sf_fake_stderr>
    3548:	fcf612e3          	bne	a2,a5,350c <_putc_r+0x28>
    354c:	4450                	lw	a2,12(s0)
    354e:	bf7d                	j	350c <_putc_r+0x28>
    3550:	421c                	lw	a5,0(a2)
    3552:	0ff5f513          	andi	a0,a1,255
    3556:	00178713          	addi	a4,a5,1
    355a:	c218                	sw	a4,0(a2)
    355c:	a38c                	sb	a1,0(a5)
    355e:	40f2                	lw	ra,28(sp)
    3560:	4462                	lw	s0,24(sp)
    3562:	6105                	addi	sp,sp,32
    3564:	8082                	ret

00003566 <_sbrk_r>:
    3566:	1141                	addi	sp,sp,-16
    3568:	c422                	sw	s0,8(sp)
    356a:	842a                	mv	s0,a0
    356c:	852e                	mv	a0,a1
    356e:	20001797          	auipc	a5,0x20001
    3572:	e407af23          	sw	zero,-418(a5) # 200043cc <errno>
    3576:	c606                	sw	ra,12(sp)
    3578:	d3aff0ef          	jal	ra,2ab2 <_sbrk>
    357c:	57fd                	li	a5,-1
    357e:	00f51963          	bne	a0,a5,3590 <_sbrk_r+0x2a>
    3582:	20001797          	auipc	a5,0x20001
    3586:	e4a78793          	addi	a5,a5,-438 # 200043cc <errno>
    358a:	439c                	lw	a5,0(a5)
    358c:	c391                	beqz	a5,3590 <_sbrk_r+0x2a>
    358e:	c01c                	sw	a5,0(s0)
    3590:	40b2                	lw	ra,12(sp)
    3592:	4422                	lw	s0,8(sp)
    3594:	0141                	addi	sp,sp,16
    3596:	8082                	ret

00003598 <__sread>:
    3598:	1141                	addi	sp,sp,-16
    359a:	c422                	sw	s0,8(sp)
    359c:	842e                	mv	s0,a1
    359e:	00e59583          	lh	a1,14(a1)
    35a2:	c606                	sw	ra,12(sp)
    35a4:	2d1d                	jal	3bda <_read_r>
    35a6:	00054963          	bltz	a0,35b8 <__sread+0x20>
    35aa:	487c                	lw	a5,84(s0)
    35ac:	97aa                	add	a5,a5,a0
    35ae:	c87c                	sw	a5,84(s0)
    35b0:	40b2                	lw	ra,12(sp)
    35b2:	4422                	lw	s0,8(sp)
    35b4:	0141                	addi	sp,sp,16
    35b6:	8082                	ret
    35b8:	245e                	lhu	a5,12(s0)
    35ba:	777d                	lui	a4,0xfffff
    35bc:	177d                	addi	a4,a4,-1
    35be:	8ff9                	and	a5,a5,a4
    35c0:	a45e                	sh	a5,12(s0)
    35c2:	b7fd                	j	35b0 <__sread+0x18>

000035c4 <__swrite>:
    35c4:	25de                	lhu	a5,12(a1)
    35c6:	1101                	addi	sp,sp,-32
    35c8:	cc22                	sw	s0,24(sp)
    35ca:	ca26                	sw	s1,20(sp)
    35cc:	c84a                	sw	s2,16(sp)
    35ce:	c64e                	sw	s3,12(sp)
    35d0:	ce06                	sw	ra,28(sp)
    35d2:	1007f793          	andi	a5,a5,256
    35d6:	84aa                	mv	s1,a0
    35d8:	842e                	mv	s0,a1
    35da:	8932                	mv	s2,a2
    35dc:	89b6                	mv	s3,a3
    35de:	c791                	beqz	a5,35ea <__swrite+0x26>
    35e0:	00e59583          	lh	a1,14(a1)
    35e4:	4689                	li	a3,2
    35e6:	4601                	li	a2,0
    35e8:	2911                	jal	39fc <_lseek_r>
    35ea:	245e                	lhu	a5,12(s0)
    35ec:	777d                	lui	a4,0xfffff
    35ee:	177d                	addi	a4,a4,-1
    35f0:	8ff9                	and	a5,a5,a4
    35f2:	a45e                	sh	a5,12(s0)
    35f4:	00e41583          	lh	a1,14(s0)
    35f8:	4462                	lw	s0,24(sp)
    35fa:	40f2                	lw	ra,28(sp)
    35fc:	86ce                	mv	a3,s3
    35fe:	864a                	mv	a2,s2
    3600:	49b2                	lw	s3,12(sp)
    3602:	4942                	lw	s2,16(sp)
    3604:	8526                	mv	a0,s1
    3606:	44d2                	lw	s1,20(sp)
    3608:	6105                	addi	sp,sp,32
    360a:	a8dd                	j	3700 <_write_r>

0000360c <__sseek>:
    360c:	1141                	addi	sp,sp,-16
    360e:	c422                	sw	s0,8(sp)
    3610:	842e                	mv	s0,a1
    3612:	00e59583          	lh	a1,14(a1)
    3616:	c606                	sw	ra,12(sp)
    3618:	26d5                	jal	39fc <_lseek_r>
    361a:	57fd                	li	a5,-1
    361c:	245a                	lhu	a4,12(s0)
    361e:	00f51a63          	bne	a0,a5,3632 <__sseek+0x26>
    3622:	77fd                	lui	a5,0xfffff
    3624:	17fd                	addi	a5,a5,-1
    3626:	8ff9                	and	a5,a5,a4
    3628:	a45e                	sh	a5,12(s0)
    362a:	40b2                	lw	ra,12(sp)
    362c:	4422                	lw	s0,8(sp)
    362e:	0141                	addi	sp,sp,16
    3630:	8082                	ret
    3632:	6785                	lui	a5,0x1
    3634:	8fd9                	or	a5,a5,a4
    3636:	a45e                	sh	a5,12(s0)
    3638:	c868                	sw	a0,84(s0)
    363a:	bfc5                	j	362a <__sseek+0x1e>

0000363c <__sclose>:
    363c:	00e59583          	lh	a1,14(a1)
    3640:	aad5                	j	3834 <_close_r>

00003642 <__swbuf_r>:
    3642:	1101                	addi	sp,sp,-32
    3644:	cc22                	sw	s0,24(sp)
    3646:	ca26                	sw	s1,20(sp)
    3648:	c84a                	sw	s2,16(sp)
    364a:	ce06                	sw	ra,28(sp)
    364c:	c64e                	sw	s3,12(sp)
    364e:	84aa                	mv	s1,a0
    3650:	892e                	mv	s2,a1
    3652:	8432                	mv	s0,a2
    3654:	c509                	beqz	a0,365e <__swbuf_r+0x1c>
    3656:	4d1c                	lw	a5,24(a0)
    3658:	e399                	bnez	a5,365e <__swbuf_r+0x1c>
    365a:	da2ff0ef          	jal	ra,2bfc <__sinit>
    365e:	00000797          	auipc	a5,0x0
    3662:	7be78793          	addi	a5,a5,1982 # 3e1c <__sf_fake_stdin>
    3666:	06f41763          	bne	s0,a5,36d4 <__swbuf_r+0x92>
    366a:	40c0                	lw	s0,4(s1)
    366c:	4c1c                	lw	a5,24(s0)
    366e:	c41c                	sw	a5,8(s0)
    3670:	245e                	lhu	a5,12(s0)
    3672:	8ba1                	andi	a5,a5,8
    3674:	c3c1                	beqz	a5,36f4 <__swbuf_r+0xb2>
    3676:	481c                	lw	a5,16(s0)
    3678:	cfb5                	beqz	a5,36f4 <__swbuf_r+0xb2>
    367a:	481c                	lw	a5,16(s0)
    367c:	4008                	lw	a0,0(s0)
    367e:	0ff97993          	andi	s3,s2,255
    3682:	0ff97913          	andi	s2,s2,255
    3686:	8d1d                	sub	a0,a0,a5
    3688:	485c                	lw	a5,20(s0)
    368a:	00f54663          	blt	a0,a5,3696 <__swbuf_r+0x54>
    368e:	85a2                	mv	a1,s0
    3690:	8526                	mv	a0,s1
    3692:	2609                	jal	3994 <_fflush_r>
    3694:	e525                	bnez	a0,36fc <__swbuf_r+0xba>
    3696:	441c                	lw	a5,8(s0)
    3698:	0505                	addi	a0,a0,1
    369a:	17fd                	addi	a5,a5,-1
    369c:	c41c                	sw	a5,8(s0)
    369e:	401c                	lw	a5,0(s0)
    36a0:	00178713          	addi	a4,a5,1
    36a4:	c018                	sw	a4,0(s0)
    36a6:	01378023          	sb	s3,0(a5)
    36aa:	485c                	lw	a5,20(s0)
    36ac:	00a78863          	beq	a5,a0,36bc <__swbuf_r+0x7a>
    36b0:	245e                	lhu	a5,12(s0)
    36b2:	8b85                	andi	a5,a5,1
    36b4:	cb81                	beqz	a5,36c4 <__swbuf_r+0x82>
    36b6:	47a9                	li	a5,10
    36b8:	00f91663          	bne	s2,a5,36c4 <__swbuf_r+0x82>
    36bc:	85a2                	mv	a1,s0
    36be:	8526                	mv	a0,s1
    36c0:	2cd1                	jal	3994 <_fflush_r>
    36c2:	ed0d                	bnez	a0,36fc <__swbuf_r+0xba>
    36c4:	40f2                	lw	ra,28(sp)
    36c6:	4462                	lw	s0,24(sp)
    36c8:	854a                	mv	a0,s2
    36ca:	44d2                	lw	s1,20(sp)
    36cc:	4942                	lw	s2,16(sp)
    36ce:	49b2                	lw	s3,12(sp)
    36d0:	6105                	addi	sp,sp,32
    36d2:	8082                	ret
    36d4:	00000797          	auipc	a5,0x0
    36d8:	76878793          	addi	a5,a5,1896 # 3e3c <__sf_fake_stdout>
    36dc:	00f41463          	bne	s0,a5,36e4 <__swbuf_r+0xa2>
    36e0:	4480                	lw	s0,8(s1)
    36e2:	b769                	j	366c <__swbuf_r+0x2a>
    36e4:	00000797          	auipc	a5,0x0
    36e8:	71878793          	addi	a5,a5,1816 # 3dfc <__sf_fake_stderr>
    36ec:	f8f410e3          	bne	s0,a5,366c <__swbuf_r+0x2a>
    36f0:	44c0                	lw	s0,12(s1)
    36f2:	bfad                	j	366c <__swbuf_r+0x2a>
    36f4:	85a2                	mv	a1,s0
    36f6:	8526                	mv	a0,s1
    36f8:	283d                	jal	3736 <__swsetup_r>
    36fa:	d141                	beqz	a0,367a <__swbuf_r+0x38>
    36fc:	597d                	li	s2,-1
    36fe:	b7d9                	j	36c4 <__swbuf_r+0x82>

00003700 <_write_r>:
    3700:	1141                	addi	sp,sp,-16
    3702:	c422                	sw	s0,8(sp)
    3704:	842a                	mv	s0,a0
    3706:	852e                	mv	a0,a1
    3708:	85b2                	mv	a1,a2
    370a:	8636                	mv	a2,a3
    370c:	20001797          	auipc	a5,0x20001
    3710:	cc07a023          	sw	zero,-832(a5) # 200043cc <errno>
    3714:	c606                	sw	ra,12(sp)
    3716:	b5eff0ef          	jal	ra,2a74 <_write>
    371a:	57fd                	li	a5,-1
    371c:	00f51963          	bne	a0,a5,372e <_write_r+0x2e>
    3720:	20001797          	auipc	a5,0x20001
    3724:	cac78793          	addi	a5,a5,-852 # 200043cc <errno>
    3728:	439c                	lw	a5,0(a5)
    372a:	c391                	beqz	a5,372e <_write_r+0x2e>
    372c:	c01c                	sw	a5,0(s0)
    372e:	40b2                	lw	ra,12(sp)
    3730:	4422                	lw	s0,8(sp)
    3732:	0141                	addi	sp,sp,16
    3734:	8082                	ret

00003736 <__swsetup_r>:
    3736:	1141                	addi	sp,sp,-16
    3738:	80c18793          	addi	a5,gp,-2036 # 2000007c <_impure_ptr>
    373c:	c226                	sw	s1,4(sp)
    373e:	4384                	lw	s1,0(a5)
    3740:	c422                	sw	s0,8(sp)
    3742:	c04a                	sw	s2,0(sp)
    3744:	c606                	sw	ra,12(sp)
    3746:	892a                	mv	s2,a0
    3748:	842e                	mv	s0,a1
    374a:	c491                	beqz	s1,3756 <__swsetup_r+0x20>
    374c:	4c9c                	lw	a5,24(s1)
    374e:	e781                	bnez	a5,3756 <__swsetup_r+0x20>
    3750:	8526                	mv	a0,s1
    3752:	caaff0ef          	jal	ra,2bfc <__sinit>
    3756:	00000797          	auipc	a5,0x0
    375a:	6c678793          	addi	a5,a5,1734 # 3e1c <__sf_fake_stdin>
    375e:	02f41b63          	bne	s0,a5,3794 <__swsetup_r+0x5e>
    3762:	40c0                	lw	s0,4(s1)
    3764:	00c41703          	lh	a4,12(s0)
    3768:	01071793          	slli	a5,a4,0x10
    376c:	83c1                	srli	a5,a5,0x10
    376e:	0087f693          	andi	a3,a5,8
    3772:	eaad                	bnez	a3,37e4 <__swsetup_r+0xae>
    3774:	0107f693          	andi	a3,a5,16
    3778:	ee95                	bnez	a3,37b4 <__swsetup_r+0x7e>
    377a:	47a5                	li	a5,9
    377c:	00f92023          	sw	a5,0(s2)
    3780:	04076713          	ori	a4,a4,64
    3784:	a45a                	sh	a4,12(s0)
    3786:	557d                	li	a0,-1
    3788:	40b2                	lw	ra,12(sp)
    378a:	4422                	lw	s0,8(sp)
    378c:	4492                	lw	s1,4(sp)
    378e:	4902                	lw	s2,0(sp)
    3790:	0141                	addi	sp,sp,16
    3792:	8082                	ret
    3794:	00000797          	auipc	a5,0x0
    3798:	6a878793          	addi	a5,a5,1704 # 3e3c <__sf_fake_stdout>
    379c:	00f41463          	bne	s0,a5,37a4 <__swsetup_r+0x6e>
    37a0:	4480                	lw	s0,8(s1)
    37a2:	b7c9                	j	3764 <__swsetup_r+0x2e>
    37a4:	00000797          	auipc	a5,0x0
    37a8:	65878793          	addi	a5,a5,1624 # 3dfc <__sf_fake_stderr>
    37ac:	faf41ce3          	bne	s0,a5,3764 <__swsetup_r+0x2e>
    37b0:	44c0                	lw	s0,12(s1)
    37b2:	bf4d                	j	3764 <__swsetup_r+0x2e>
    37b4:	8b91                	andi	a5,a5,4
    37b6:	c39d                	beqz	a5,37dc <__swsetup_r+0xa6>
    37b8:	584c                	lw	a1,52(s0)
    37ba:	c989                	beqz	a1,37cc <__swsetup_r+0x96>
    37bc:	04440793          	addi	a5,s0,68
    37c0:	00f58463          	beq	a1,a5,37c8 <__swsetup_r+0x92>
    37c4:	854a                	mv	a0,s2
    37c6:	26bd                	jal	3b34 <_free_r>
    37c8:	02042a23          	sw	zero,52(s0)
    37cc:	245e                	lhu	a5,12(s0)
    37ce:	00042223          	sw	zero,4(s0)
    37d2:	fdb7f793          	andi	a5,a5,-37
    37d6:	a45e                	sh	a5,12(s0)
    37d8:	481c                	lw	a5,16(s0)
    37da:	c01c                	sw	a5,0(s0)
    37dc:	245e                	lhu	a5,12(s0)
    37de:	0087e793          	ori	a5,a5,8
    37e2:	a45e                	sh	a5,12(s0)
    37e4:	481c                	lw	a5,16(s0)
    37e6:	eb99                	bnez	a5,37fc <__swsetup_r+0xc6>
    37e8:	245e                	lhu	a5,12(s0)
    37ea:	20000713          	li	a4,512
    37ee:	2807f793          	andi	a5,a5,640
    37f2:	00e78563          	beq	a5,a4,37fc <__swsetup_r+0xc6>
    37f6:	85a2                	mv	a1,s0
    37f8:	854a                	mv	a0,s2
    37fa:	2471                	jal	3a86 <__smakebuf_r>
    37fc:	245e                	lhu	a5,12(s0)
    37fe:	0017f713          	andi	a4,a5,1
    3802:	c31d                	beqz	a4,3828 <__swsetup_r+0xf2>
    3804:	485c                	lw	a5,20(s0)
    3806:	00042423          	sw	zero,8(s0)
    380a:	40f007b3          	neg	a5,a5
    380e:	cc1c                	sw	a5,24(s0)
    3810:	481c                	lw	a5,16(s0)
    3812:	4501                	li	a0,0
    3814:	fbb5                	bnez	a5,3788 <__swsetup_r+0x52>
    3816:	00c41783          	lh	a5,12(s0)
    381a:	0807f713          	andi	a4,a5,128
    381e:	d72d                	beqz	a4,3788 <__swsetup_r+0x52>
    3820:	0407e793          	ori	a5,a5,64
    3824:	a45e                	sh	a5,12(s0)
    3826:	b785                	j	3786 <__swsetup_r+0x50>
    3828:	8b89                	andi	a5,a5,2
    382a:	4701                	li	a4,0
    382c:	e391                	bnez	a5,3830 <__swsetup_r+0xfa>
    382e:	4858                	lw	a4,20(s0)
    3830:	c418                	sw	a4,8(s0)
    3832:	bff9                	j	3810 <__swsetup_r+0xda>

00003834 <_close_r>:
    3834:	1141                	addi	sp,sp,-16
    3836:	c422                	sw	s0,8(sp)
    3838:	842a                	mv	s0,a0
    383a:	852e                	mv	a0,a1
    383c:	20001797          	auipc	a5,0x20001
    3840:	b807a823          	sw	zero,-1136(a5) # 200043cc <errno>
    3844:	c606                	sw	ra,12(sp)
    3846:	212d                	jal	3c70 <_close>
    3848:	57fd                	li	a5,-1
    384a:	00f51963          	bne	a0,a5,385c <_close_r+0x28>
    384e:	20001797          	auipc	a5,0x20001
    3852:	b7e78793          	addi	a5,a5,-1154 # 200043cc <errno>
    3856:	439c                	lw	a5,0(a5)
    3858:	c391                	beqz	a5,385c <_close_r+0x28>
    385a:	c01c                	sw	a5,0(s0)
    385c:	40b2                	lw	ra,12(sp)
    385e:	4422                	lw	s0,8(sp)
    3860:	0141                	addi	sp,sp,16
    3862:	8082                	ret

00003864 <__sflush_r>:
    3864:	25de                	lhu	a5,12(a1)
    3866:	1101                	addi	sp,sp,-32
    3868:	cc22                	sw	s0,24(sp)
    386a:	ca26                	sw	s1,20(sp)
    386c:	ce06                	sw	ra,28(sp)
    386e:	c84a                	sw	s2,16(sp)
    3870:	c64e                	sw	s3,12(sp)
    3872:	0087f713          	andi	a4,a5,8
    3876:	84aa                	mv	s1,a0
    3878:	842e                	mv	s0,a1
    387a:	eb79                	bnez	a4,3950 <__sflush_r+0xec>
    387c:	41d8                	lw	a4,4(a1)
    387e:	00e04d63          	bgtz	a4,3898 <__sflush_r+0x34>
    3882:	41b8                	lw	a4,64(a1)
    3884:	00e04a63          	bgtz	a4,3898 <__sflush_r+0x34>
    3888:	4501                	li	a0,0
    388a:	40f2                	lw	ra,28(sp)
    388c:	4462                	lw	s0,24(sp)
    388e:	44d2                	lw	s1,20(sp)
    3890:	4942                	lw	s2,16(sp)
    3892:	49b2                	lw	s3,12(sp)
    3894:	6105                	addi	sp,sp,32
    3896:	8082                	ret
    3898:	5458                	lw	a4,44(s0)
    389a:	d77d                	beqz	a4,3888 <__sflush_r+0x24>
    389c:	0004a903          	lw	s2,0(s1)
    38a0:	01379693          	slli	a3,a5,0x13
    38a4:	0004a023          	sw	zero,0(s1)
    38a8:	0606db63          	bgez	a3,391e <__sflush_r+0xba>
    38ac:	4870                	lw	a2,84(s0)
    38ae:	245e                	lhu	a5,12(s0)
    38b0:	8b91                	andi	a5,a5,4
    38b2:	c799                	beqz	a5,38c0 <__sflush_r+0x5c>
    38b4:	405c                	lw	a5,4(s0)
    38b6:	8e1d                	sub	a2,a2,a5
    38b8:	585c                	lw	a5,52(s0)
    38ba:	c399                	beqz	a5,38c0 <__sflush_r+0x5c>
    38bc:	403c                	lw	a5,64(s0)
    38be:	8e1d                	sub	a2,a2,a5
    38c0:	545c                	lw	a5,44(s0)
    38c2:	500c                	lw	a1,32(s0)
    38c4:	4681                	li	a3,0
    38c6:	8526                	mv	a0,s1
    38c8:	9782                	jalr	a5
    38ca:	57fd                	li	a5,-1
    38cc:	245a                	lhu	a4,12(s0)
    38ce:	00f51d63          	bne	a0,a5,38e8 <__sflush_r+0x84>
    38d2:	4094                	lw	a3,0(s1)
    38d4:	47f5                	li	a5,29
    38d6:	06d7e863          	bltu	a5,a3,3946 <__sflush_r+0xe2>
    38da:	204007b7          	lui	a5,0x20400
    38de:	0785                	addi	a5,a5,1
    38e0:	00d7d7b3          	srl	a5,a5,a3
    38e4:	8b85                	andi	a5,a5,1
    38e6:	c3a5                	beqz	a5,3946 <__sflush_r+0xe2>
    38e8:	481c                	lw	a5,16(s0)
    38ea:	00042223          	sw	zero,4(s0)
    38ee:	c01c                	sw	a5,0(s0)
    38f0:	01371793          	slli	a5,a4,0x13
    38f4:	0007d863          	bgez	a5,3904 <__sflush_r+0xa0>
    38f8:	57fd                	li	a5,-1
    38fa:	00f51463          	bne	a0,a5,3902 <__sflush_r+0x9e>
    38fe:	409c                	lw	a5,0(s1)
    3900:	e391                	bnez	a5,3904 <__sflush_r+0xa0>
    3902:	c868                	sw	a0,84(s0)
    3904:	584c                	lw	a1,52(s0)
    3906:	0124a023          	sw	s2,0(s1)
    390a:	ddbd                	beqz	a1,3888 <__sflush_r+0x24>
    390c:	04440793          	addi	a5,s0,68
    3910:	00f58463          	beq	a1,a5,3918 <__sflush_r+0xb4>
    3914:	8526                	mv	a0,s1
    3916:	2c39                	jal	3b34 <_free_r>
    3918:	02042a23          	sw	zero,52(s0)
    391c:	b7b5                	j	3888 <__sflush_r+0x24>
    391e:	500c                	lw	a1,32(s0)
    3920:	4601                	li	a2,0
    3922:	4685                	li	a3,1
    3924:	8526                	mv	a0,s1
    3926:	9702                	jalr	a4
    3928:	57fd                	li	a5,-1
    392a:	862a                	mv	a2,a0
    392c:	f8f511e3          	bne	a0,a5,38ae <__sflush_r+0x4a>
    3930:	409c                	lw	a5,0(s1)
    3932:	dfb5                	beqz	a5,38ae <__sflush_r+0x4a>
    3934:	4775                	li	a4,29
    3936:	00e78563          	beq	a5,a4,3940 <__sflush_r+0xdc>
    393a:	4759                	li	a4,22
    393c:	04e79363          	bne	a5,a4,3982 <__sflush_r+0x11e>
    3940:	0124a023          	sw	s2,0(s1)
    3944:	b791                	j	3888 <__sflush_r+0x24>
    3946:	04076713          	ori	a4,a4,64
    394a:	a45a                	sh	a4,12(s0)
    394c:	557d                	li	a0,-1
    394e:	bf35                	j	388a <__sflush_r+0x26>
    3950:	0105a983          	lw	s3,16(a1)
    3954:	f2098ae3          	beqz	s3,3888 <__sflush_r+0x24>
    3958:	0005a903          	lw	s2,0(a1)
    395c:	8b8d                	andi	a5,a5,3
    395e:	0135a023          	sw	s3,0(a1)
    3962:	41390933          	sub	s2,s2,s3
    3966:	4701                	li	a4,0
    3968:	e391                	bnez	a5,396c <__sflush_r+0x108>
    396a:	49d8                	lw	a4,20(a1)
    396c:	c418                	sw	a4,8(s0)
    396e:	f1205de3          	blez	s2,3888 <__sflush_r+0x24>
    3972:	541c                	lw	a5,40(s0)
    3974:	500c                	lw	a1,32(s0)
    3976:	86ca                	mv	a3,s2
    3978:	864e                	mv	a2,s3
    397a:	8526                	mv	a0,s1
    397c:	9782                	jalr	a5
    397e:	00a04763          	bgtz	a0,398c <__sflush_r+0x128>
    3982:	245e                	lhu	a5,12(s0)
    3984:	0407e793          	ori	a5,a5,64
    3988:	a45e                	sh	a5,12(s0)
    398a:	b7c9                	j	394c <__sflush_r+0xe8>
    398c:	99aa                	add	s3,s3,a0
    398e:	40a90933          	sub	s2,s2,a0
    3992:	bff1                	j	396e <__sflush_r+0x10a>

00003994 <_fflush_r>:
    3994:	499c                	lw	a5,16(a1)
    3996:	c3ad                	beqz	a5,39f8 <_fflush_r+0x64>
    3998:	1101                	addi	sp,sp,-32
    399a:	cc22                	sw	s0,24(sp)
    399c:	ce06                	sw	ra,28(sp)
    399e:	842a                	mv	s0,a0
    39a0:	c519                	beqz	a0,39ae <_fflush_r+0x1a>
    39a2:	4d1c                	lw	a5,24(a0)
    39a4:	e789                	bnez	a5,39ae <_fflush_r+0x1a>
    39a6:	c62e                	sw	a1,12(sp)
    39a8:	a54ff0ef          	jal	ra,2bfc <__sinit>
    39ac:	45b2                	lw	a1,12(sp)
    39ae:	00000797          	auipc	a5,0x0
    39b2:	46e78793          	addi	a5,a5,1134 # 3e1c <__sf_fake_stdin>
    39b6:	00f59c63          	bne	a1,a5,39ce <_fflush_r+0x3a>
    39ba:	404c                	lw	a1,4(s0)
    39bc:	00c59783          	lh	a5,12(a1)
    39c0:	c79d                	beqz	a5,39ee <_fflush_r+0x5a>
    39c2:	8522                	mv	a0,s0
    39c4:	4462                	lw	s0,24(sp)
    39c6:	40f2                	lw	ra,28(sp)
    39c8:	6105                	addi	sp,sp,32
    39ca:	e9bff06f          	j	3864 <__sflush_r>
    39ce:	00000797          	auipc	a5,0x0
    39d2:	46e78793          	addi	a5,a5,1134 # 3e3c <__sf_fake_stdout>
    39d6:	00f59463          	bne	a1,a5,39de <_fflush_r+0x4a>
    39da:	440c                	lw	a1,8(s0)
    39dc:	b7c5                	j	39bc <_fflush_r+0x28>
    39de:	00000797          	auipc	a5,0x0
    39e2:	41e78793          	addi	a5,a5,1054 # 3dfc <__sf_fake_stderr>
    39e6:	fcf59be3          	bne	a1,a5,39bc <_fflush_r+0x28>
    39ea:	444c                	lw	a1,12(s0)
    39ec:	bfc1                	j	39bc <_fflush_r+0x28>
    39ee:	40f2                	lw	ra,28(sp)
    39f0:	4462                	lw	s0,24(sp)
    39f2:	4501                	li	a0,0
    39f4:	6105                	addi	sp,sp,32
    39f6:	8082                	ret
    39f8:	4501                	li	a0,0
    39fa:	8082                	ret

000039fc <_lseek_r>:
    39fc:	1141                	addi	sp,sp,-16
    39fe:	c422                	sw	s0,8(sp)
    3a00:	842a                	mv	s0,a0
    3a02:	852e                	mv	a0,a1
    3a04:	85b2                	mv	a1,a2
    3a06:	8636                	mv	a2,a3
    3a08:	20001797          	auipc	a5,0x20001
    3a0c:	9c07a223          	sw	zero,-1596(a5) # 200043cc <errno>
    3a10:	c606                	sw	ra,12(sp)
    3a12:	2479                	jal	3ca0 <_lseek>
    3a14:	57fd                	li	a5,-1
    3a16:	00f51963          	bne	a0,a5,3a28 <_lseek_r+0x2c>
    3a1a:	20001797          	auipc	a5,0x20001
    3a1e:	9b278793          	addi	a5,a5,-1614 # 200043cc <errno>
    3a22:	439c                	lw	a5,0(a5)
    3a24:	c391                	beqz	a5,3a28 <_lseek_r+0x2c>
    3a26:	c01c                	sw	a5,0(s0)
    3a28:	40b2                	lw	ra,12(sp)
    3a2a:	4422                	lw	s0,8(sp)
    3a2c:	0141                	addi	sp,sp,16
    3a2e:	8082                	ret

00003a30 <__swhatbuf_r>:
    3a30:	7119                	addi	sp,sp,-128
    3a32:	daa6                	sw	s1,116(sp)
    3a34:	84ae                	mv	s1,a1
    3a36:	00e59583          	lh	a1,14(a1)
    3a3a:	dca2                	sw	s0,120(sp)
    3a3c:	de86                	sw	ra,124(sp)
    3a3e:	8432                	mv	s0,a2
    3a40:	0005db63          	bgez	a1,3a56 <__swhatbuf_r+0x26>
    3a44:	24de                	lhu	a5,12(s1)
    3a46:	0006a023          	sw	zero,0(a3)
    3a4a:	0807f793          	andi	a5,a5,128
    3a4e:	e39d                	bnez	a5,3a74 <__swhatbuf_r+0x44>
    3a50:	40000793          	li	a5,1024
    3a54:	a015                	j	3a78 <__swhatbuf_r+0x48>
    3a56:	0830                	addi	a2,sp,24
    3a58:	c636                	sw	a3,12(sp)
    3a5a:	2a55                	jal	3c0e <_fstat_r>
    3a5c:	46b2                	lw	a3,12(sp)
    3a5e:	fe0543e3          	bltz	a0,3a44 <__swhatbuf_r+0x14>
    3a62:	4772                	lw	a4,28(sp)
    3a64:	67bd                	lui	a5,0xf
    3a66:	8ff9                	and	a5,a5,a4
    3a68:	7779                	lui	a4,0xffffe
    3a6a:	97ba                	add	a5,a5,a4
    3a6c:	0017b793          	seqz	a5,a5
    3a70:	c29c                	sw	a5,0(a3)
    3a72:	bff9                	j	3a50 <__swhatbuf_r+0x20>
    3a74:	04000793          	li	a5,64
    3a78:	c01c                	sw	a5,0(s0)
    3a7a:	50f6                	lw	ra,124(sp)
    3a7c:	5466                	lw	s0,120(sp)
    3a7e:	54d6                	lw	s1,116(sp)
    3a80:	4501                	li	a0,0
    3a82:	6109                	addi	sp,sp,128
    3a84:	8082                	ret

00003a86 <__smakebuf_r>:
    3a86:	25de                	lhu	a5,12(a1)
    3a88:	1101                	addi	sp,sp,-32
    3a8a:	cc22                	sw	s0,24(sp)
    3a8c:	ce06                	sw	ra,28(sp)
    3a8e:	ca26                	sw	s1,20(sp)
    3a90:	c84a                	sw	s2,16(sp)
    3a92:	8b89                	andi	a5,a5,2
    3a94:	842e                	mv	s0,a1
    3a96:	cf89                	beqz	a5,3ab0 <__smakebuf_r+0x2a>
    3a98:	04740793          	addi	a5,s0,71
    3a9c:	c01c                	sw	a5,0(s0)
    3a9e:	c81c                	sw	a5,16(s0)
    3aa0:	4785                	li	a5,1
    3aa2:	c85c                	sw	a5,20(s0)
    3aa4:	40f2                	lw	ra,28(sp)
    3aa6:	4462                	lw	s0,24(sp)
    3aa8:	44d2                	lw	s1,20(sp)
    3aaa:	4942                	lw	s2,16(sp)
    3aac:	6105                	addi	sp,sp,32
    3aae:	8082                	ret
    3ab0:	0074                	addi	a3,sp,12
    3ab2:	0030                	addi	a2,sp,8
    3ab4:	84aa                	mv	s1,a0
    3ab6:	f7bff0ef          	jal	ra,3a30 <__swhatbuf_r>
    3aba:	45a2                	lw	a1,8(sp)
    3abc:	892a                	mv	s2,a0
    3abe:	8526                	mv	a0,s1
    3ac0:	aaaff0ef          	jal	ra,2d6a <_malloc_r>
    3ac4:	e919                	bnez	a0,3ada <__smakebuf_r+0x54>
    3ac6:	00c41783          	lh	a5,12(s0)
    3aca:	2007f713          	andi	a4,a5,512
    3ace:	fb79                	bnez	a4,3aa4 <__smakebuf_r+0x1e>
    3ad0:	9bf1                	andi	a5,a5,-4
    3ad2:	0027e793          	ori	a5,a5,2
    3ad6:	a45e                	sh	a5,12(s0)
    3ad8:	b7c1                	j	3a98 <__smakebuf_r+0x12>
    3ada:	fffff797          	auipc	a5,0xfffff
    3ade:	0d278793          	addi	a5,a5,210 # 2bac <_cleanup_r>
    3ae2:	d49c                	sw	a5,40(s1)
    3ae4:	245e                	lhu	a5,12(s0)
    3ae6:	c008                	sw	a0,0(s0)
    3ae8:	c808                	sw	a0,16(s0)
    3aea:	0807e793          	ori	a5,a5,128
    3aee:	a45e                	sh	a5,12(s0)
    3af0:	47a2                	lw	a5,8(sp)
    3af2:	c85c                	sw	a5,20(s0)
    3af4:	47b2                	lw	a5,12(sp)
    3af6:	cb99                	beqz	a5,3b0c <__smakebuf_r+0x86>
    3af8:	00e41583          	lh	a1,14(s0)
    3afc:	8526                	mv	a0,s1
    3afe:	2289                	jal	3c40 <_isatty_r>
    3b00:	c511                	beqz	a0,3b0c <__smakebuf_r+0x86>
    3b02:	245e                	lhu	a5,12(s0)
    3b04:	9bf1                	andi	a5,a5,-4
    3b06:	0017e793          	ori	a5,a5,1
    3b0a:	a45e                	sh	a5,12(s0)
    3b0c:	245e                	lhu	a5,12(s0)
    3b0e:	00f96933          	or	s2,s2,a5
    3b12:	01241623          	sh	s2,12(s0)
    3b16:	b779                	j	3aa4 <__smakebuf_r+0x1e>

00003b18 <memchr>:
    3b18:	0ff5f593          	andi	a1,a1,255
    3b1c:	962a                	add	a2,a2,a0
    3b1e:	00c51463          	bne	a0,a2,3b26 <memchr+0xe>
    3b22:	4501                	li	a0,0
    3b24:	8082                	ret
    3b26:	211c                	lbu	a5,0(a0)
    3b28:	feb78ee3          	beq	a5,a1,3b24 <memchr+0xc>
    3b2c:	0505                	addi	a0,a0,1
    3b2e:	bfc5                	j	3b1e <memchr+0x6>

00003b30 <__malloc_lock>:
    3b30:	8082                	ret

00003b32 <__malloc_unlock>:
    3b32:	8082                	ret

00003b34 <_free_r>:
    3b34:	c1d5                	beqz	a1,3bd8 <_free_r+0xa4>
    3b36:	ffc5a783          	lw	a5,-4(a1)
    3b3a:	1141                	addi	sp,sp,-16
    3b3c:	c422                	sw	s0,8(sp)
    3b3e:	c606                	sw	ra,12(sp)
    3b40:	c226                	sw	s1,4(sp)
    3b42:	ffc58413          	addi	s0,a1,-4
    3b46:	0007d363          	bgez	a5,3b4c <_free_r+0x18>
    3b4a:	943e                	add	s0,s0,a5
    3b4c:	84aa                	mv	s1,a0
    3b4e:	37cd                	jal	3b30 <__malloc_lock>
    3b50:	88418793          	addi	a5,gp,-1916 # 200000f4 <__malloc_free_list>
    3b54:	439c                	lw	a5,0(a5)
    3b56:	ef81                	bnez	a5,3b6e <_free_r+0x3a>
    3b58:	00042223          	sw	zero,4(s0)
    3b5c:	8881a223          	sw	s0,-1916(gp) # 200000f4 <__malloc_free_list>
    3b60:	4422                	lw	s0,8(sp)
    3b62:	40b2                	lw	ra,12(sp)
    3b64:	8526                	mv	a0,s1
    3b66:	4492                	lw	s1,4(sp)
    3b68:	0141                	addi	sp,sp,16
    3b6a:	fc9ff06f          	j	3b32 <__malloc_unlock>
    3b6e:	00f47e63          	bgeu	s0,a5,3b8a <_free_r+0x56>
    3b72:	4014                	lw	a3,0(s0)
    3b74:	00d40733          	add	a4,s0,a3
    3b78:	00e79663          	bne	a5,a4,3b84 <_free_r+0x50>
    3b7c:	4398                	lw	a4,0(a5)
    3b7e:	43dc                	lw	a5,4(a5)
    3b80:	9736                	add	a4,a4,a3
    3b82:	c018                	sw	a4,0(s0)
    3b84:	c05c                	sw	a5,4(s0)
    3b86:	bfd9                	j	3b5c <_free_r+0x28>
    3b88:	87ba                	mv	a5,a4
    3b8a:	43d8                	lw	a4,4(a5)
    3b8c:	c319                	beqz	a4,3b92 <_free_r+0x5e>
    3b8e:	fee47de3          	bgeu	s0,a4,3b88 <_free_r+0x54>
    3b92:	4394                	lw	a3,0(a5)
    3b94:	00d78633          	add	a2,a5,a3
    3b98:	00861f63          	bne	a2,s0,3bb6 <_free_r+0x82>
    3b9c:	4010                	lw	a2,0(s0)
    3b9e:	96b2                	add	a3,a3,a2
    3ba0:	c394                	sw	a3,0(a5)
    3ba2:	00d78633          	add	a2,a5,a3
    3ba6:	fac71de3          	bne	a4,a2,3b60 <_free_r+0x2c>
    3baa:	4310                	lw	a2,0(a4)
    3bac:	4358                	lw	a4,4(a4)
    3bae:	96b2                	add	a3,a3,a2
    3bb0:	c394                	sw	a3,0(a5)
    3bb2:	c3d8                	sw	a4,4(a5)
    3bb4:	b775                	j	3b60 <_free_r+0x2c>
    3bb6:	00c47563          	bgeu	s0,a2,3bc0 <_free_r+0x8c>
    3bba:	47b1                	li	a5,12
    3bbc:	c09c                	sw	a5,0(s1)
    3bbe:	b74d                	j	3b60 <_free_r+0x2c>
    3bc0:	4010                	lw	a2,0(s0)
    3bc2:	00c406b3          	add	a3,s0,a2
    3bc6:	00d71663          	bne	a4,a3,3bd2 <_free_r+0x9e>
    3bca:	4314                	lw	a3,0(a4)
    3bcc:	4358                	lw	a4,4(a4)
    3bce:	96b2                	add	a3,a3,a2
    3bd0:	c014                	sw	a3,0(s0)
    3bd2:	c058                	sw	a4,4(s0)
    3bd4:	c3c0                	sw	s0,4(a5)
    3bd6:	b769                	j	3b60 <_free_r+0x2c>
    3bd8:	8082                	ret

00003bda <_read_r>:
    3bda:	1141                	addi	sp,sp,-16
    3bdc:	c422                	sw	s0,8(sp)
    3bde:	842a                	mv	s0,a0
    3be0:	852e                	mv	a0,a1
    3be2:	85b2                	mv	a1,a2
    3be4:	8636                	mv	a2,a3
    3be6:	20000797          	auipc	a5,0x20000
    3bea:	7e07a323          	sw	zero,2022(a5) # 200043cc <errno>
    3bee:	c606                	sw	ra,12(sp)
    3bf0:	20c1                	jal	3cb0 <_read>
    3bf2:	57fd                	li	a5,-1
    3bf4:	00f51963          	bne	a0,a5,3c06 <_read_r+0x2c>
    3bf8:	20000797          	auipc	a5,0x20000
    3bfc:	7d478793          	addi	a5,a5,2004 # 200043cc <errno>
    3c00:	439c                	lw	a5,0(a5)
    3c02:	c391                	beqz	a5,3c06 <_read_r+0x2c>
    3c04:	c01c                	sw	a5,0(s0)
    3c06:	40b2                	lw	ra,12(sp)
    3c08:	4422                	lw	s0,8(sp)
    3c0a:	0141                	addi	sp,sp,16
    3c0c:	8082                	ret

00003c0e <_fstat_r>:
    3c0e:	1141                	addi	sp,sp,-16
    3c10:	c422                	sw	s0,8(sp)
    3c12:	842a                	mv	s0,a0
    3c14:	852e                	mv	a0,a1
    3c16:	85b2                	mv	a1,a2
    3c18:	20000797          	auipc	a5,0x20000
    3c1c:	7a07aa23          	sw	zero,1972(a5) # 200043cc <errno>
    3c20:	c606                	sw	ra,12(sp)
    3c22:	28b9                	jal	3c80 <_fstat>
    3c24:	57fd                	li	a5,-1
    3c26:	00f51963          	bne	a0,a5,3c38 <_fstat_r+0x2a>
    3c2a:	20000797          	auipc	a5,0x20000
    3c2e:	7a278793          	addi	a5,a5,1954 # 200043cc <errno>
    3c32:	439c                	lw	a5,0(a5)
    3c34:	c391                	beqz	a5,3c38 <_fstat_r+0x2a>
    3c36:	c01c                	sw	a5,0(s0)
    3c38:	40b2                	lw	ra,12(sp)
    3c3a:	4422                	lw	s0,8(sp)
    3c3c:	0141                	addi	sp,sp,16
    3c3e:	8082                	ret

00003c40 <_isatty_r>:
    3c40:	1141                	addi	sp,sp,-16
    3c42:	c422                	sw	s0,8(sp)
    3c44:	842a                	mv	s0,a0
    3c46:	852e                	mv	a0,a1
    3c48:	20000797          	auipc	a5,0x20000
    3c4c:	7807a223          	sw	zero,1924(a5) # 200043cc <errno>
    3c50:	c606                	sw	ra,12(sp)
    3c52:	283d                	jal	3c90 <_isatty>
    3c54:	57fd                	li	a5,-1
    3c56:	00f51963          	bne	a0,a5,3c68 <_isatty_r+0x28>
    3c5a:	20000797          	auipc	a5,0x20000
    3c5e:	77278793          	addi	a5,a5,1906 # 200043cc <errno>
    3c62:	439c                	lw	a5,0(a5)
    3c64:	c391                	beqz	a5,3c68 <_isatty_r+0x28>
    3c66:	c01c                	sw	a5,0(s0)
    3c68:	40b2                	lw	ra,12(sp)
    3c6a:	4422                	lw	s0,8(sp)
    3c6c:	0141                	addi	sp,sp,16
    3c6e:	8082                	ret

00003c70 <_close>:
    3c70:	05800793          	li	a5,88
    3c74:	20000717          	auipc	a4,0x20000
    3c78:	74f72c23          	sw	a5,1880(a4) # 200043cc <errno>
    3c7c:	557d                	li	a0,-1
    3c7e:	8082                	ret

00003c80 <_fstat>:
    3c80:	05800793          	li	a5,88
    3c84:	20000717          	auipc	a4,0x20000
    3c88:	74f72423          	sw	a5,1864(a4) # 200043cc <errno>
    3c8c:	557d                	li	a0,-1
    3c8e:	8082                	ret

00003c90 <_isatty>:
    3c90:	05800793          	li	a5,88
    3c94:	20000717          	auipc	a4,0x20000
    3c98:	72f72c23          	sw	a5,1848(a4) # 200043cc <errno>
    3c9c:	4501                	li	a0,0
    3c9e:	8082                	ret

00003ca0 <_lseek>:
    3ca0:	05800793          	li	a5,88
    3ca4:	20000717          	auipc	a4,0x20000
    3ca8:	72f72423          	sw	a5,1832(a4) # 200043cc <errno>
    3cac:	557d                	li	a0,-1
    3cae:	8082                	ret

00003cb0 <_read>:
    3cb0:	05800793          	li	a5,88
    3cb4:	20000717          	auipc	a4,0x20000
    3cb8:	70f72c23          	sw	a5,1816(a4) # 200043cc <errno>
    3cbc:	557d                	li	a0,-1
    3cbe:	8082                	ret
    3cc0:	0a0d                	addi	s4,s4,3
    3cc2:	2a2a                	lhu	a0,18(a2)
    3cc4:	0d2a                	slli	s10,s10,0xa
    3cc6:	4b0a                	lw	s6,128(sp)
    3cc8:	7265                	lui	tp,0xffff9
    3cca:	656e                	flw	fa0,216(sp)
    3ccc:	206c                	lbu	a1,6(s0)
    3cce:	6170                	flw	fa2,68(a0)
    3cd0:	696e                	flw	fs2,216(sp)
    3cd2:	202d2063          	0x202d2063
    3cd6:	6f6e                	flw	ft10,216(sp)
    3cd8:	2074                	lbu	a3,6(s0)
    3cda:	636e7973          	csrrci	s2,0x636,28
    3cde:	6e69                	lui	t3,0x1a
    3ce0:	0a0d3a67          	0xa0d3a67
    3ce4:	0000                	unimp
    3ce6:	0000                	unimp
    3ce8:	3a44                	lbu	s1,21(a2)
    3cea:	646f432f          	0x646f432f
    3cee:	5f65                	li	t5,-7
    3cf0:	694c                	flw	fa1,20(a0)
    3cf2:	7262                	flw	ft4,56(sp)
    3cf4:	7261                	lui	tp,0xffff8
    3cf6:	2f79                	jal	4494 <_data_lma+0x4ac>
    3cf8:	354d                	jal	3b9a <_free_r+0x66>
    3cfa:	3050                	lbu	a2,5(s0)
    3cfc:	5f31                	li	t5,-20
    3cfe:	7250                	flw	fa2,36(a2)
    3d00:	72616b6f          	jal	s6,1a426 <_data_lma+0x1643e>
    3d04:	532f6e6f          	jal	t3,fa236 <_data_lma+0xf624e>
    3d08:	6372756f          	jal	a0,2bb3e <_data_lma+0x27b56>
    3d0c:	2f65                	jal	44c4 <_data_lma+0x4dc>
    3d0e:	6e72654b          	fnmsub.q	fa0,ft4,ft7,fa3,unknown
    3d12:	6c65                	lui	s8,0x19
    3d14:	706d722f          	0x706d722f
    3d18:	6b5f 7265 656e      	0x656e72656b5f
    3d1e:	2e6c                	lbu	a1,30(a2)
    3d20:	00000063          	beqz	zero,3d20 <_read+0x70>
    3d24:	2c20                	lbu	s0,26(s0)
    3d26:	4c20                	lw	s0,88(s0)
    3d28:	6e69                	lui	t3,0x1a
    3d2a:	2065                	jal	3dd2 <_read+0x122>
    3d2c:	0000                	unimp
    3d2e:	0000                	unimp
    3d30:	6546                	flw	fa0,80(sp)
    3d32:	2062                	lhu	s0,6(s0)
    3d34:	3032                	lhu	a2,34(s0)
    3d36:	3220                	lbu	s0,3(a2)
    3d38:	3230                	lbu	a2,3(a2)
    3d3a:	2c200033          	0x2c200033
    3d3e:	0020                	addi	s0,sp,8
    3d40:	3531                	jal	3b4c <_free_r+0x18>
    3d42:	323a                	lhu	a4,34(a2)
    3d44:	3a36                	lhu	a3,50(a2)
    3d46:	3631                	jal	3852 <_close_r+0x1e>
    3d48:	0000                	unimp
    3d4a:	0000                	unimp
    3d4c:	74737953          	0x74737953
    3d50:	6d65                	lui	s10,0x19
    3d52:	3a6b6c43          	fmadd.d	fs8,fs6,ft6,ft7,unknown
    3d56:	6425                	lui	s0,0x9
    3d58:	0a0d                	addi	s4,s4,3
    3d5a:	0000                	unimp
    3d5c:	6959                	lui	s2,0x16
    3d5e:	6c65                	lui	s8,0x19
    3d60:	3a64                	lbu	s1,23(a2)
    3d62:	0020                	addi	s0,sp,8
    3d64:	6320                	flw	fs0,64(a4)
    3d66:	6379                	lui	t1,0x1e
    3d68:	656c                	flw	fa1,76(a0)
    3d6a:	0a0d2e73          	csrrs	t3,0xa0,s10
    3d6e:	0000                	unimp
    3d70:	614d                	addi	sp,sp,176
    3d72:	6c69                	lui	s8,0x1a
    3d74:	6f62                	flw	ft10,24(sp)
    3d76:	3a78                	lbu	a4,23(a2)
    3d78:	0020                	addi	s0,sp,8
    3d7a:	0000                	unimp
    3d7c:	616d6553          	0x616d6553
    3d80:	6870                	flw	fa2,84(s0)
    3d82:	3a65726f          	jal	tp,5b128 <_data_lma+0x57140>
    3d86:	0020                	addi	s0,sp,8
    3d88:	614d                	addi	sp,sp,176
    3d8a:	6c69                	lui	s8,0x1a
    3d8c:	6f62                	flw	ft10,24(sp)
    3d8e:	2d78                	lbu	a4,30(a0)
    3d90:	5349                	li	t1,-14
    3d92:	3a52                	lhu	a2,52(a2)
    3d94:	0020                	addi	s0,sp,8
    3d96:	0000                	unimp
    3d98:	616d6553          	0x616d6553
    3d9c:	6870                	flw	fa2,84(s0)
    3d9e:	2d65726f          	jal	tp,5b074 <_data_lma+0x5708c>
    3da2:	5349                	li	t1,-14
    3da4:	3a52                	lhu	a2,52(a2)
    3da6:	0020                	addi	s0,sp,8
    3da8:	5349                	li	t1,-14
    3daa:	2052                	lhu	a2,4(s0)
    3dac:	614d                	addi	sp,sp,176
    3dae:	6c69                	lui	s8,0x1a
    3db0:	6f62                	flw	ft10,24(sp)
    3db2:	2078                	lbu	a4,6(s0)
    3db4:	646e6573          	csrrsi	a0,0x646,28
    3db8:	6620                	flw	fs0,72(a2)
    3dba:	6961                	lui	s2,0x18
    3dbc:	756c                	flw	fa1,108(a0)
    3dbe:	6572                	flw	fa0,28(sp)
    3dc0:	203a                	lhu	a4,2(s0)
    3dc2:	0000                	unimp
    3dc4:	7320                	flw	fs0,96(a4)
    3dc6:	6e65                	lui	t3,0x19
    3dc8:	7364                	flw	fs1,100(a4)
    3dca:	0d2e                	slli	s10,s10,0xb
    3dcc:	000a                	c.slli	zero,0x2
    3dce:	0000                	unimp
    3dd0:	5349                	li	t1,-14
    3dd2:	2052                	lhu	a2,4(s0)
    3dd4:	616d6573          	csrrsi	a0,0x616,26
    3dd8:	6870                	flw	fa2,84(s0)
    3dda:	2065726f          	jal	tp,5afe0 <_data_lma+0x56ff8>
    3dde:	6f70                	flw	fa2,92(a4)
    3de0:	66207473          	csrrci	s0,0x662,0
    3de4:	6961                	lui	s2,0x18
    3de6:	756c                	flw	fa1,108(a0)
    3de8:	6572                	flw	fa0,28(sp)
    3dea:	203a                	lhu	a4,2(s0)
    3dec:	0000                	unimp
    3dee:	0000                	unimp
    3df0:	7020                	flw	fs0,96(s0)
    3df2:	7374736f          	jal	t1,4bd28 <_data_lma+0x47d40>
    3df6:	0d2e                	slli	s10,s10,0xb
    3df8:	000a                	c.slli	zero,0x2
	...

00003dfc <__sf_fake_stderr>:
	...

00003e1c <__sf_fake_stdin>:
	...

00003e3c <__sf_fake_stdout>:
	...
    3e5c:	2d23 2b30 0020 0000 6c68 004c 6665 4567     #-0+ ...hlL.efgE
    3e6c:	4746 0000 3130 3332 3534 3736 3938 4241     FG..0123456789AB
    3e7c:	4443 4645 0000 0000 3130 3332 3534 3736     CDEF....01234567
    3e8c:	3938 6261 6463 6665 0000 0000               89abcdef....

Disassembly of section .reset_entry:

00003e98 <_Reset_Entry>:
    3e98:	1fffd197          	auipc	gp,0x1fffd
    3e9c:	9d818193          	addi	gp,gp,-1576 # 20000870 <__global_pointer$>
    3ea0:	20004117          	auipc	sp,0x20004
    3ea4:	96010113          	addi	sp,sp,-1696 # 20007800 <__stack>
    3ea8:	958fc06f          	j	0 <_sinit>

00003eac <RMP_Int_Disable>:
    3eac:	30047073          	csrci	mstatus,8
    3eb0:	8082                	ret

00003eb2 <RMP_Int_Enable>:
    3eb2:	30046073          	csrsi	mstatus,8
    3eb6:	8082                	ret

00003eb8 <RMP_MSB_Get>:
    3eb8:	c139                	beqz	a0,3efe <ZERO>
    3eba:	000505b3          	add	a1,a0,zero
    3ebe:	4501                	li	a0,0
    3ec0:	0105d613          	srli	a2,a1,0x10
    3ec4:	c601                	beqz	a2,3ecc <HEX>
    3ec6:	0541                	addi	a0,a0,16
    3ec8:	000605b3          	add	a1,a2,zero

00003ecc <HEX>:
    3ecc:	0085d613          	srli	a2,a1,0x8
    3ed0:	c601                	beqz	a2,3ed8 <OCT>
    3ed2:	0521                	addi	a0,a0,8
    3ed4:	000605b3          	add	a1,a2,zero

00003ed8 <OCT>:
    3ed8:	0045d613          	srli	a2,a1,0x4
    3edc:	c601                	beqz	a2,3ee4 <QUAD>
    3ede:	0511                	addi	a0,a0,4
    3ee0:	000605b3          	add	a1,a2,zero

00003ee4 <QUAD>:
    3ee4:	0025d613          	srli	a2,a1,0x2
    3ee8:	c601                	beqz	a2,3ef0 <BIN>
    3eea:	0509                	addi	a0,a0,2
    3eec:	000605b3          	add	a1,a2,zero

00003ef0 <BIN>:
    3ef0:	0015d613          	srli	a2,a1,0x1
    3ef4:	c601                	beqz	a2,3efc <ONE>
    3ef6:	0505                	addi	a0,a0,1
    3ef8:	000605b3          	add	a1,a2,zero

00003efc <ONE>:
    3efc:	8082                	ret

00003efe <ZERO>:
    3efe:	157d                	addi	a0,a0,-1
    3f00:	8082                	ret

00003f02 <_RMP_Start>:
    3f02:	00b00133          	add	sp,zero,a1
    3f06:	8502                	jr	a0
    3f08:	8082                	ret

00003f0a <_RMP_MCAUSE_Get>:
    3f0a:	34202573          	csrr	a0,mcause
    3f0e:	8082                	ret

00003f10 <_RMP_MTVEC_Set>:
    3f10:	30551073          	csrw	mtvec,a0
    3f14:	8082                	ret

00003f16 <_RMP_MCYCLE_Get>:
    3f16:	b0002573          	csrr	a0,mcycle
    3f1a:	8082                	ret

00003f1c <_RMP_Mem_FENCE>:
    3f1c:	0ff0000f          	fence
    3f20:	8082                	ret
    3f22:	0001                	nop

00003f24 <_RMP_RV32IMAC_Handler>:
    3f24:	7119                	addi	sp,sp,-128
    3f26:	defe                	sw	t6,124(sp)
    3f28:	dcfa                	sw	t5,120(sp)
    3f2a:	daf6                	sw	t4,116(sp)
    3f2c:	d8f2                	sw	t3,112(sp)
    3f2e:	d6ee                	sw	s11,108(sp)
    3f30:	d4ea                	sw	s10,104(sp)
    3f32:	d2e6                	sw	s9,100(sp)
    3f34:	d0e2                	sw	s8,96(sp)
    3f36:	cede                	sw	s7,92(sp)
    3f38:	ccda                	sw	s6,88(sp)
    3f3a:	cad6                	sw	s5,84(sp)
    3f3c:	c8d2                	sw	s4,80(sp)
    3f3e:	c6ce                	sw	s3,76(sp)
    3f40:	c4ca                	sw	s2,72(sp)
    3f42:	c2c6                	sw	a7,68(sp)
    3f44:	c0c2                	sw	a6,64(sp)
    3f46:	de3e                	sw	a5,60(sp)
    3f48:	dc3a                	sw	a4,56(sp)
    3f4a:	da36                	sw	a3,52(sp)
    3f4c:	d832                	sw	a2,48(sp)
    3f4e:	d62e                	sw	a1,44(sp)
    3f50:	d42a                	sw	a0,40(sp)
    3f52:	d226                	sw	s1,36(sp)
    3f54:	d022                	sw	s0,32(sp)
    3f56:	ce1e                	sw	t2,28(sp)
    3f58:	cc1a                	sw	t1,24(sp)
    3f5a:	ca16                	sw	t0,20(sp)
    3f5c:	c812                	sw	tp,16(sp)
    3f5e:	c60e                	sw	gp,12(sp)
    3f60:	30002573          	csrr	a0,mstatus
    3f64:	c42a                	sw	a0,8(sp)
    3f66:	c206                	sw	ra,4(sp)
    3f68:	34102573          	csrr	a0,mepc
    3f6c:	c02a                	sw	a0,0(sp)
    3f6e:	82818513          	addi	a0,gp,-2008 # 20000098 <RMP_SP_Cur>
    3f72:	00252023          	sw	sp,0(a0)
    3f76:	00018193          	mv	gp,gp
    3f7a:	20004117          	auipc	sp,0x20004
    3f7e:	88610113          	addi	sp,sp,-1914 # 20007800 <__stack>
    3f82:	c90fe0ef          	jal	ra,2412 <_RMP_Int_Handler>
    3f86:	82818513          	addi	a0,gp,-2008 # 20000098 <RMP_SP_Cur>
    3f8a:	00052103          	lw	sp,0(a0)
    3f8e:	4502                	lw	a0,0(sp)
    3f90:	34151073          	csrw	mepc,a0
    3f94:	4092                	lw	ra,4(sp)
    3f96:	4522                	lw	a0,8(sp)
    3f98:	000025b7          	lui	a1,0x2
    3f9c:	80058593          	addi	a1,a1,-2048 # 1800 <RMP_Thd_Snd_ISR+0x2e>
    3fa0:	8d4d                	or	a0,a0,a1
    3fa2:	30051073          	csrw	mstatus,a0
    3fa6:	41b2                	lw	gp,12(sp)
    3fa8:	4242                	lw	tp,16(sp)
    3faa:	42d2                	lw	t0,20(sp)
    3fac:	4362                	lw	t1,24(sp)
    3fae:	43f2                	lw	t2,28(sp)
    3fb0:	5402                	lw	s0,32(sp)
    3fb2:	5492                	lw	s1,36(sp)
    3fb4:	5522                	lw	a0,40(sp)
    3fb6:	55b2                	lw	a1,44(sp)
    3fb8:	5642                	lw	a2,48(sp)
    3fba:	56d2                	lw	a3,52(sp)
    3fbc:	5762                	lw	a4,56(sp)
    3fbe:	57f2                	lw	a5,60(sp)
    3fc0:	4806                	lw	a6,64(sp)
    3fc2:	4896                	lw	a7,68(sp)
    3fc4:	4926                	lw	s2,72(sp)
    3fc6:	49b6                	lw	s3,76(sp)
    3fc8:	4a46                	lw	s4,80(sp)
    3fca:	4ad6                	lw	s5,84(sp)
    3fcc:	4b66                	lw	s6,88(sp)
    3fce:	4bf6                	lw	s7,92(sp)
    3fd0:	5c06                	lw	s8,96(sp)
    3fd2:	5c96                	lw	s9,100(sp)
    3fd4:	5d26                	lw	s10,104(sp)
    3fd6:	5db6                	lw	s11,108(sp)
    3fd8:	5e46                	lw	t3,112(sp)
    3fda:	5ed6                	lw	t4,116(sp)
    3fdc:	5f66                	lw	t5,120(sp)
    3fde:	5ff6                	lw	t6,124(sp)
    3fe0:	6109                	addi	sp,sp,128
    3fe2:	30200073          	mret
