
RMP:     file format elf32-littlearm


Disassembly of section .text:

08020000 <_RVM_Entry-0x4>:
 8020000:	08022fd8 	.word	0x08022fd8

08020004 <_RVM_Entry>:
 8020004:	f8df d0cc 	ldr.w	sp, [pc, #204]	; 80200d4 <_RVM_Kern+0x1c>
 8020008:	4833      	ldr	r0, [pc, #204]	; (80200d8 <_RVM_Kern+0x20>)
 802000a:	4934      	ldr	r1, [pc, #208]	; (80200dc <_RVM_Kern+0x24>)
 802000c:	4a34      	ldr	r2, [pc, #208]	; (80200e0 <_RVM_Kern+0x28>)

0802000e <load_data>:
 802000e:	4288      	cmp	r0, r1
 8020010:	d006      	beq.n	8020020 <load_done>
 8020012:	6813      	ldr	r3, [r2, #0]
 8020014:	6003      	str	r3, [r0, #0]
 8020016:	f100 0004 	add.w	r0, r0, #4
 802001a:	f102 0204 	add.w	r2, r2, #4
 802001e:	e7f6      	b.n	802000e <load_data>

08020020 <load_done>:
 8020020:	4830      	ldr	r0, [pc, #192]	; (80200e4 <_RVM_Kern+0x2c>)
 8020022:	4931      	ldr	r1, [pc, #196]	; (80200e8 <_RVM_Kern+0x30>)
 8020024:	2200      	movs	r2, #0

08020026 <clear_bss>:
 8020026:	4288      	cmp	r0, r1
 8020028:	d003      	beq.n	8020032 <clear_done>
 802002a:	6002      	str	r2, [r0, #0]
 802002c:	f100 0004 	add.w	r0, r0, #4
 8020030:	e7f9      	b.n	8020026 <clear_bss>

08020032 <clear_done>:
 8020032:	f002 fe69 	bl	8022d08 <__libc_init_array>
 8020036:	482d      	ldr	r0, [pc, #180]	; (80200ec <_RVM_Kern+0x34>)
 8020038:	4700      	bx	r0

0802003a <RVM_MSB_Get>:
 802003a:	fab0 f180 	clz	r1, r0
 802003e:	f04f 001f 	mov.w	r0, #31
 8020042:	eba0 0001 	sub.w	r0, r0, r1
 8020046:	4770      	bx	lr

08020048 <RVM_Fetch_And>:
 8020048:	b410      	push	{r4}

0802004a <RVM_Fetch_And_Fail>:
 802004a:	e850 2f00 	ldrex	r2, [r0]
 802004e:	ea02 0301 	and.w	r3, r2, r1
 8020052:	e840 3400 	strex	r4, r3, [r0]
 8020056:	2c00      	cmp	r4, #0
 8020058:	d1f7      	bne.n	802004a <RVM_Fetch_And_Fail>
 802005a:	4610      	mov	r0, r2
 802005c:	bc10      	pop	{r4}
 802005e:	4770      	bx	lr

08020060 <RVM_Fetch_Or>:
 8020060:	b410      	push	{r4}

08020062 <RVM_Fetch_Or_Fail>:
 8020062:	e850 2f00 	ldrex	r2, [r0]
 8020066:	ea42 0301 	orr.w	r3, r2, r1
 802006a:	e840 3400 	strex	r4, r3, [r0]
 802006e:	2c00      	cmp	r4, #0
 8020070:	d1f7      	bne.n	8020062 <RVM_Fetch_Or_Fail>
 8020072:	4610      	mov	r0, r2
 8020074:	bc10      	pop	{r4}
 8020076:	4770      	bx	lr

08020078 <_RVM_Hypercall>:
 8020078:	b430      	push	{r4, r5}
 802007a:	f44f 3400 	mov.w	r4, #131072	; 0x20000
 802007e:	f04f 0500 	mov.w	r5, #0
 8020082:	df00      	svc	0
 8020084:	f3bf 8f6f 	isb	sy
 8020088:	bc30      	pop	{r4, r5}
 802008a:	4770      	bx	lr

0802008c <RVM_Int_Rcv>:
 802008c:	b470      	push	{r4, r5, r6}
 802008e:	f44f 3440 	mov.w	r4, #196608	; 0x30000
 8020092:	f04f 0501 	mov.w	r5, #1
 8020096:	f04f 0601 	mov.w	r6, #1
 802009a:	df00      	svc	0
 802009c:	f3bf 8f6f 	isb	sy
 80200a0:	bc70      	pop	{r4, r5, r6}
 80200a2:	4770      	bx	lr

080200a4 <_RVM_Yield>:
 80200a4:	b430      	push	{r4, r5}
 80200a6:	f44f 3400 	mov.w	r4, #131072	; 0x20000
 80200aa:	f04f 0501 	mov.w	r5, #1
 80200ae:	df00      	svc	0
 80200b0:	f3bf 8f6f 	isb	sy
 80200b4:	bc30      	pop	{r4, r5}
 80200b6:	4770      	bx	lr

080200b8 <_RVM_Kern>:
 80200b8:	b4f0      	push	{r4, r5, r6, r7}
 80200ba:	f100 0402 	add.w	r4, r0, #2
 80200be:	f2c0 0404 	movt	r4, #4
 80200c2:	460d      	mov	r5, r1
 80200c4:	4616      	mov	r6, r2
 80200c6:	461f      	mov	r7, r3
 80200c8:	df00      	svc	0
 80200ca:	f3bf 8f6f 	isb	sy
 80200ce:	bcf0      	pop	{r4, r5, r6, r7}
 80200d0:	4770      	bx	lr
 80200d2:	0000      	.short	0x0000
 80200d4:	20080000 	.word	0x20080000
 80200d8:	20020000 	.word	0x20020000
 80200dc:	20020430 	.word	0x20020430
 80200e0:	08024000 	.word	0x08024000
 80200e4:	20020430 	.word	0x20020430
 80200e8:	20029214 	.word	0x20029214
 80200ec:	08022699 	.word	0x08022699

080200f0 <__do_global_dtors_aux>:
 80200f0:	b510      	push	{r4, lr}
 80200f2:	4c05      	ldr	r4, [pc, #20]	; (8020108 <__do_global_dtors_aux+0x18>)
 80200f4:	7823      	ldrb	r3, [r4, #0]
 80200f6:	b933      	cbnz	r3, 8020106 <__do_global_dtors_aux+0x16>
 80200f8:	4b04      	ldr	r3, [pc, #16]	; (802010c <__do_global_dtors_aux+0x1c>)
 80200fa:	b113      	cbz	r3, 8020102 <__do_global_dtors_aux+0x12>
 80200fc:	4804      	ldr	r0, [pc, #16]	; (8020110 <__do_global_dtors_aux+0x20>)
 80200fe:	f3af 8000 	nop.w
 8020102:	2301      	movs	r3, #1
 8020104:	7023      	strb	r3, [r4, #0]
 8020106:	bd10      	pop	{r4, pc}
 8020108:	20020430 	.word	0x20020430
 802010c:	00000000 	.word	0x00000000
 8020110:	08023154 	.word	0x08023154

08020114 <frame_dummy>:
 8020114:	4b08      	ldr	r3, [pc, #32]	; (8020138 <frame_dummy+0x24>)
 8020116:	b510      	push	{r4, lr}
 8020118:	b11b      	cbz	r3, 8020122 <frame_dummy+0xe>
 802011a:	4908      	ldr	r1, [pc, #32]	; (802013c <frame_dummy+0x28>)
 802011c:	4808      	ldr	r0, [pc, #32]	; (8020140 <frame_dummy+0x2c>)
 802011e:	f3af 8000 	nop.w
 8020122:	4808      	ldr	r0, [pc, #32]	; (8020144 <frame_dummy+0x30>)
 8020124:	6803      	ldr	r3, [r0, #0]
 8020126:	b903      	cbnz	r3, 802012a <frame_dummy+0x16>
 8020128:	bd10      	pop	{r4, pc}
 802012a:	4b07      	ldr	r3, [pc, #28]	; (8020148 <frame_dummy+0x34>)
 802012c:	2b00      	cmp	r3, #0
 802012e:	d0fb      	beq.n	8020128 <frame_dummy+0x14>
 8020130:	e8bd 4010 	ldmia.w	sp!, {r4, lr}
 8020134:	4718      	bx	r3
 8020136:	bf00      	nop
 8020138:	00000000 	.word	0x00000000
 802013c:	20020434 	.word	0x20020434
 8020140:	08023154 	.word	0x08023154
 8020144:	20020430 	.word	0x20020430
 8020148:	00000000 	.word	0x00000000

0802014c <Int_Handler>:
Input       : None.
Output      : None.
Return      : None.
******************************************************************************/
void Int_Handler(void)
{
 802014c:	b510      	push	{r4, lr}
    static rmp_cnt_t Count=0;
    
    if(Count<10000)
 802014e:	4c30      	ldr	r4, [pc, #192]	; (8020210 <Int_Handler+0xc4>)
 8020150:	f242 720f 	movw	r2, #9999	; 0x270f
 8020154:	6823      	ldr	r3, [r4, #0]
 8020156:	4293      	cmp	r3, r2
 8020158:	dd38      	ble.n	80201cc <Int_Handler+0x80>
            RMP_PRINTK_I(Count);
            RMP_PRINTK_S(" sends.\r\n");
            while(1);
        }
    }
    else if(Count<20000)
 802015a:	f644 621f 	movw	r2, #19999	; 0x4e1f
 802015e:	4293      	cmp	r3, r2
 8020160:	dc0e      	bgt.n	8020180 <Int_Handler+0x34>
    {
        Count++;
 8020162:	3301      	adds	r3, #1
        Start=COUNTER_READ();
 8020164:	f04f 4080 	mov.w	r0, #1073741824	; 0x40000000
        if(RMP_Sem_Post_ISR(&Sem_1, 1)<0)
 8020168:	2101      	movs	r1, #1
        }
    }
    else if(Count<20000)
    {
        Count++;
        Start=COUNTER_READ();
 802016a:	4a2a      	ldr	r2, [pc, #168]	; (8020214 <Int_Handler+0xc8>)
            while(1);
        }
    }
    else if(Count<20000)
    {
        Count++;
 802016c:	6023      	str	r3, [r4, #0]
        Start=COUNTER_READ();
 802016e:	6a43      	ldr	r3, [r0, #36]	; 0x24
        if(RMP_Sem_Post_ISR(&Sem_1, 1)<0)
 8020170:	4829      	ldr	r0, [pc, #164]	; (8020218 <Int_Handler+0xcc>)
        }
    }
    else if(Count<20000)
    {
        Count++;
        Start=COUNTER_READ();
 8020172:	408b      	lsls	r3, r1
 8020174:	6013      	str	r3, [r2, #0]
        if(RMP_Sem_Post_ISR(&Sem_1, 1)<0)
 8020176:	f002 fa07 	bl	8022588 <RMP_Sem_Post_ISR>
 802017a:	2800      	cmp	r0, #0
 802017c:	db3e      	blt.n	80201fc <Int_Handler+0xb0>
 802017e:	bd10      	pop	{r4, pc}
Return      : None.
******************************************************************************/
void Int_Disable(void)
{
    /* Disable interrupt */
    RMP_ASSERT(RVM_HW_Int_Disable(RVM_TIM4_INT_IRQ30)==0);
 8020180:	2000      	movs	r0, #0
 8020182:	f001 f8b1 	bl	80212e8 <RVM_HW_Int_Disable>
 8020186:	4601      	mov	r1, r0
 8020188:	b1d8      	cbz	r0, 80201c2 <Int_Handler+0x76>
 802018a:	4824      	ldr	r0, [pc, #144]	; (802021c <Int_Handler+0xd0>)
 802018c:	f001 f972 	bl	8021474 <RMP_Print_String>
 8020190:	4823      	ldr	r0, [pc, #140]	; (8020220 <Int_Handler+0xd4>)
 8020192:	f001 f96f 	bl	8021474 <RMP_Print_String>
 8020196:	4823      	ldr	r0, [pc, #140]	; (8020224 <Int_Handler+0xd8>)
 8020198:	f001 f96c 	bl	8021474 <RMP_Print_String>
 802019c:	2094      	movs	r0, #148	; 0x94
 802019e:	f001 f903 	bl	80213a8 <RMP_Print_Int>
 80201a2:	4821      	ldr	r0, [pc, #132]	; (8020228 <Int_Handler+0xdc>)
 80201a4:	f001 f966 	bl	8021474 <RMP_Print_String>
 80201a8:	4820      	ldr	r0, [pc, #128]	; (802022c <Int_Handler+0xe0>)
 80201aa:	f001 f963 	bl	8021474 <RMP_Print_String>
 80201ae:	4820      	ldr	r0, [pc, #128]	; (8020230 <Int_Handler+0xe4>)
 80201b0:	f001 f960 	bl	8021474 <RMP_Print_String>
 80201b4:	481f      	ldr	r0, [pc, #124]	; (8020234 <Int_Handler+0xe8>)
 80201b6:	f001 f95d 	bl	8021474 <RMP_Print_String>
 80201ba:	481b      	ldr	r0, [pc, #108]	; (8020228 <Int_Handler+0xdc>)
 80201bc:	f001 f95a 	bl	8021474 <RMP_Print_String>
 80201c0:	e7fe      	b.n	80201c0 <Int_Handler+0x74>
    /* Reverse registration */
    RVM_Vect_Init(2,0);
 80201c2:	2002      	movs	r0, #2
            while(1);
        }
    }
    else
        Int_Disable();
}
 80201c4:	e8bd 4010 	ldmia.w	sp!, {r4, lr}
 80201c8:	f001 b80c 	b.w	80211e4 <RVM_Vect_Init>
{
    static rmp_cnt_t Count=0;
    
    if(Count<10000)
    {
        Count++;
 80201cc:	3301      	adds	r3, #1
        Start=COUNTER_READ();
 80201ce:	f04f 4080 	mov.w	r0, #1073741824	; 0x40000000
        if(RMP_Thd_Snd_ISR(&Thd_2, 1)<0)
 80201d2:	2101      	movs	r1, #1
    static rmp_cnt_t Count=0;
    
    if(Count<10000)
    {
        Count++;
        Start=COUNTER_READ();
 80201d4:	4a0f      	ldr	r2, [pc, #60]	; (8020214 <Int_Handler+0xc8>)
{
    static rmp_cnt_t Count=0;
    
    if(Count<10000)
    {
        Count++;
 80201d6:	6023      	str	r3, [r4, #0]
        Start=COUNTER_READ();
 80201d8:	6a43      	ldr	r3, [r0, #36]	; 0x24
        if(RMP_Thd_Snd_ISR(&Thd_2, 1)<0)
 80201da:	4817      	ldr	r0, [pc, #92]	; (8020238 <Int_Handler+0xec>)
    static rmp_cnt_t Count=0;
    
    if(Count<10000)
    {
        Count++;
        Start=COUNTER_READ();
 80201dc:	408b      	lsls	r3, r1
 80201de:	6013      	str	r3, [r2, #0]
        if(RMP_Thd_Snd_ISR(&Thd_2, 1)<0)
 80201e0:	f001 fd64 	bl	8021cac <RMP_Thd_Snd_ISR>
 80201e4:	2800      	cmp	r0, #0
 80201e6:	daca      	bge.n	802017e <Int_Handler+0x32>
        {
            RMP_PRINTK_S("ISR Mailbox send failure: ");
 80201e8:	4814      	ldr	r0, [pc, #80]	; (802023c <Int_Handler+0xf0>)
 80201ea:	f001 f943 	bl	8021474 <RMP_Print_String>
            RMP_PRINTK_I(Count);
 80201ee:	6820      	ldr	r0, [r4, #0]
 80201f0:	f001 f8da 	bl	80213a8 <RMP_Print_Int>
            RMP_PRINTK_S(" sends.\r\n");
 80201f4:	4812      	ldr	r0, [pc, #72]	; (8020240 <Int_Handler+0xf4>)
 80201f6:	f001 f93d 	bl	8021474 <RMP_Print_String>
 80201fa:	e7fe      	b.n	80201fa <Int_Handler+0xae>
    {
        Count++;
        Start=COUNTER_READ();
        if(RMP_Sem_Post_ISR(&Sem_1, 1)<0)
        {
            RMP_PRINTK_S("ISR semaphore post failure: ");
 80201fc:	4811      	ldr	r0, [pc, #68]	; (8020244 <Int_Handler+0xf8>)
 80201fe:	f001 f939 	bl	8021474 <RMP_Print_String>
            RMP_PRINTK_I(Count);
 8020202:	6820      	ldr	r0, [r4, #0]
 8020204:	f001 f8d0 	bl	80213a8 <RMP_Print_Int>
            RMP_PRINTK_S(" posts.\r\n");
 8020208:	480f      	ldr	r0, [pc, #60]	; (8020248 <Int_Handler+0xfc>)
 802020a:	f001 f933 	bl	8021474 <RMP_Print_String>
 802020e:	e7fe      	b.n	802020e <Int_Handler+0xc2>
 8020210:	2002848c 	.word	0x2002848c
 8020214:	20028490 	.word	0x20028490
 8020218:	20028bc4 	.word	0x20028bc4
 802021c:	08022e98 	.word	0x08022e98
 8020220:	08022ec0 	.word	0x08022ec0
 8020224:	08022f34 	.word	0x08022f34
 8020228:	08022f94 	.word	0x08022f94
 802022c:	08022f40 	.word	0x08022f40
 8020230:	08022f4c 	.word	0x08022f4c
 8020234:	08022f50 	.word	0x08022f50
 8020238:	20028bd4 	.word	0x20028bd4
 802023c:	08022e44 	.word	0x08022e44
 8020240:	08022e60 	.word	0x08022e60
 8020244:	08022e6c 	.word	0x08022e6c
 8020248:	08022e8c 	.word	0x08022e8c

0802024c <TIM_Base_SetConfig>:
{
  uint32_t tmpcr1 = 0;
  tmpcr1 = TIMx->CR1;
  
  /* Set TIM Time Base Unit parameters ---------------------------------------*/
  if(IS_TIM_CC3_INSTANCE(TIMx) != RESET)   
 802024c:	4a40      	ldr	r2, [pc, #256]	; (8020350 <TIM_Base_SetConfig+0x104>)
 802024e:	f1b0 4f80 	cmp.w	r0, #1073741824	; 0x40000000
Return      : None.
******************************************************************************/
void TIM_Base_SetConfig(TIM_TypeDef *TIMx, TIM_Base_InitTypeDef *Structure)
{
  uint32_t tmpcr1 = 0;
  tmpcr1 = TIMx->CR1;
 8020252:	6803      	ldr	r3, [r0, #0]
Input       : None.
Output      : None.
Return      : None.
******************************************************************************/
void TIM_Base_SetConfig(TIM_TypeDef *TIMx, TIM_Base_InitTypeDef *Structure)
{
 8020254:	b470      	push	{r4, r5, r6}
  uint32_t tmpcr1 = 0;
  tmpcr1 = TIMx->CR1;
  
  /* Set TIM Time Base Unit parameters ---------------------------------------*/
  if(IS_TIM_CC3_INSTANCE(TIMx) != RESET)   
 8020256:	eba0 0602 	sub.w	r6, r0, r2
 802025a:	fab6 f686 	clz	r6, r6
 802025e:	ea4f 1656 	mov.w	r6, r6, lsr #5
 8020262:	d051      	beq.n	8020308 <TIM_Base_SetConfig+0xbc>
 8020264:	2e00      	cmp	r6, #0
 8020266:	d14f      	bne.n	8020308 <TIM_Base_SetConfig+0xbc>
 8020268:	f5a2 427c 	sub.w	r2, r2, #64512	; 0xfc00
 802026c:	4290      	cmp	r0, r2
 802026e:	d00d      	beq.n	802028c <TIM_Base_SetConfig+0x40>
 8020270:	f502 6280 	add.w	r2, r2, #1024	; 0x400
 8020274:	4290      	cmp	r0, r2
 8020276:	d009      	beq.n	802028c <TIM_Base_SetConfig+0x40>
 8020278:	4c36      	ldr	r4, [pc, #216]	; (8020354 <TIM_Base_SetConfig+0x108>)
 802027a:	f502 427c 	add.w	r2, r2, #64512	; 0xfc00
 802027e:	4290      	cmp	r0, r2
 8020280:	bf18      	it	ne
 8020282:	42a0      	cmpne	r0, r4
 8020284:	bf0c      	ite	eq
 8020286:	2401      	moveq	r4, #1
 8020288:	2400      	movne	r4, #0
 802028a:	d111      	bne.n	80202b0 <TIM_Base_SetConfig+0x64>
 802028c:	4c32      	ldr	r4, [pc, #200]	; (8020358 <TIM_Base_SetConfig+0x10c>)
  {
    /* Select the Counter Mode */
    tmpcr1 &= ~(TIM_CR1_DIR | TIM_CR1_CMS);
 802028e:	f023 0370 	bic.w	r3, r3, #112	; 0x70
    tmpcr1 |= Structure->CounterMode;
  }
 
  if(IS_TIM_CC1_INSTANCE(TIMx) != RESET)  
 8020292:	4a32      	ldr	r2, [pc, #200]	; (802035c <TIM_Base_SetConfig+0x110>)
 8020294:	1b04      	subs	r4, r0, r4
  /* Set TIM Time Base Unit parameters ---------------------------------------*/
  if(IS_TIM_CC3_INSTANCE(TIMx) != RESET)   
  {
    /* Select the Counter Mode */
    tmpcr1 &= ~(TIM_CR1_DIR | TIM_CR1_CMS);
    tmpcr1 |= Structure->CounterMode;
 8020296:	684d      	ldr	r5, [r1, #4]
  }
 
  if(IS_TIM_CC1_INSTANCE(TIMx) != RESET)  
 8020298:	4290      	cmp	r0, r2
 802029a:	fab4 f484 	clz	r4, r4
  /* Set TIM Time Base Unit parameters ---------------------------------------*/
  if(IS_TIM_CC3_INSTANCE(TIMx) != RESET)   
  {
    /* Select the Counter Mode */
    tmpcr1 &= ~(TIM_CR1_DIR | TIM_CR1_CMS);
    tmpcr1 |= Structure->CounterMode;
 802029e:	ea43 0305 	orr.w	r3, r3, r5
 80202a2:	ea4f 1454 	mov.w	r4, r4, lsr #5
  }
 
  if(IS_TIM_CC1_INSTANCE(TIMx) != RESET)  
 80202a6:	d038      	beq.n	802031a <TIM_Base_SetConfig+0xce>
 80202a8:	f5a2 6280 	sub.w	r2, r2, #1024	; 0x400
 80202ac:	4290      	cmp	r0, r2
 80202ae:	d034      	beq.n	802031a <TIM_Base_SetConfig+0xce>
 80202b0:	4a28      	ldr	r2, [pc, #160]	; (8020354 <TIM_Base_SetConfig+0x108>)
 80202b2:	4290      	cmp	r0, r2
 80202b4:	bf14      	ite	ne
 80202b6:	4622      	movne	r2, r4
 80202b8:	f044 0201 	orreq.w	r2, r4, #1
 80202bc:	bb6a      	cbnz	r2, 802031a <TIM_Base_SetConfig+0xce>
 80202be:	4c28      	ldr	r4, [pc, #160]	; (8020360 <TIM_Base_SetConfig+0x114>)
 80202c0:	4d28      	ldr	r5, [pc, #160]	; (8020364 <TIM_Base_SetConfig+0x118>)
 80202c2:	42a0      	cmp	r0, r4
 80202c4:	bf18      	it	ne
 80202c6:	42a8      	cmpne	r0, r5
 80202c8:	bf0c      	ite	eq
 80202ca:	2401      	moveq	r4, #1
 80202cc:	2400      	movne	r4, #0
 80202ce:	d03a      	beq.n	8020346 <TIM_Base_SetConfig+0xfa>
 80202d0:	f505 6500 	add.w	r5, r5, #2048	; 0x800
 80202d4:	4a24      	ldr	r2, [pc, #144]	; (8020368 <TIM_Base_SetConfig+0x11c>)
 80202d6:	4290      	cmp	r0, r2
 80202d8:	bf18      	it	ne
 80202da:	42a8      	cmpne	r0, r5
 80202dc:	d01d      	beq.n	802031a <TIM_Base_SetConfig+0xce>
 80202de:	f502 6280 	add.w	r2, r2, #1024	; 0x400
 80202e2:	4290      	cmp	r0, r2
 80202e4:	d031      	beq.n	802034a <TIM_Base_SetConfig+0xfe>
 80202e6:	f502 6280 	add.w	r2, r2, #1024	; 0x400
 80202ea:	4290      	cmp	r0, r2
 80202ec:	d02d      	beq.n	802034a <TIM_Base_SetConfig+0xfe>
    tmpcr1 &= ~TIM_CR1_CKD;
    tmpcr1 |= (uint32_t)Structure->ClockDivision;
  }

  /* Set the auto-reload preload */
  MODIFY_REG(tmpcr1, TIM_CR1_ARPE, Structure->AutoReloadPreload);
 80202ee:	694a      	ldr	r2, [r1, #20]
 80202f0:	f023 0380 	bic.w	r3, r3, #128	; 0x80
 80202f4:	4313      	orrs	r3, r2

  TIMx->CR1 = tmpcr1;
 80202f6:	6003      	str	r3, [r0, #0]

  /* Set the Auto-reload value */
  TIMx->ARR = (uint32_t)Structure->Period ;
 80202f8:	688b      	ldr	r3, [r1, #8]
 80202fa:	62c3      	str	r3, [r0, #44]	; 0x2c
 
  /* Set the Prescaler value */
  TIMx->PSC = (uint32_t)Structure->Prescaler;
 80202fc:	680b      	ldr	r3, [r1, #0]
 80202fe:	6283      	str	r3, [r0, #40]	; 0x28
    TIMx->RCR = Structure->RepetitionCounter;
  }

  /* Generate an update event to reload the Prescaler 
     and the repetition counter(only for TIM1 and TIM8) value immediately */
  TIMx->EGR = TIM_EGR_UG;
 8020300:	2301      	movs	r3, #1
}
 8020302:	bc70      	pop	{r4, r5, r6}
    TIMx->RCR = Structure->RepetitionCounter;
  }

  /* Generate an update event to reload the Prescaler 
     and the repetition counter(only for TIM1 and TIM8) value immediately */
  TIMx->EGR = TIM_EGR_UG;
 8020304:	6143      	str	r3, [r0, #20]
}
 8020306:	4770      	bx	lr
 8020308:	4c13      	ldr	r4, [pc, #76]	; (8020358 <TIM_Base_SetConfig+0x10c>)
  
  /* Set TIM Time Base Unit parameters ---------------------------------------*/
  if(IS_TIM_CC3_INSTANCE(TIMx) != RESET)   
  {
    /* Select the Counter Mode */
    tmpcr1 &= ~(TIM_CR1_DIR | TIM_CR1_CMS);
 802030a:	f023 0370 	bic.w	r3, r3, #112	; 0x70
    tmpcr1 |= Structure->CounterMode;
 802030e:	684a      	ldr	r2, [r1, #4]
 8020310:	1b04      	subs	r4, r0, r4
 8020312:	4313      	orrs	r3, r2
 8020314:	fab4 f484 	clz	r4, r4
 8020318:	0964      	lsrs	r4, r4, #5
    tmpcr1 &= ~TIM_CR1_CKD;
    tmpcr1 |= (uint32_t)Structure->ClockDivision;
  }

  /* Set the auto-reload preload */
  MODIFY_REG(tmpcr1, TIM_CR1_ARPE, Structure->AutoReloadPreload);
 802031a:	68ca      	ldr	r2, [r1, #12]
  }
 
  if(IS_TIM_CC1_INSTANCE(TIMx) != RESET)  
  {
    /* Set the clock division */
    tmpcr1 &= ~TIM_CR1_CKD;
 802031c:	f423 7340 	bic.w	r3, r3, #768	; 0x300
    tmpcr1 |= (uint32_t)Structure->ClockDivision;
  }

  /* Set the auto-reload preload */
  MODIFY_REG(tmpcr1, TIM_CR1_ARPE, Structure->AutoReloadPreload);
 8020320:	694d      	ldr	r5, [r1, #20]
 8020322:	431a      	orrs	r2, r3
 8020324:	f022 0280 	bic.w	r2, r2, #128	; 0x80
 8020328:	432a      	orrs	r2, r5

  TIMx->CR1 = tmpcr1;
 802032a:	6002      	str	r2, [r0, #0]

  /* Set the Auto-reload value */
  TIMx->ARR = (uint32_t)Structure->Period ;
 802032c:	688b      	ldr	r3, [r1, #8]
 802032e:	62c3      	str	r3, [r0, #44]	; 0x2c
 
  /* Set the Prescaler value */
  TIMx->PSC = (uint32_t)Structure->Prescaler;
 8020330:	680b      	ldr	r3, [r1, #0]
 8020332:	6283      	str	r3, [r0, #40]	; 0x28
    
  if(IS_TIM_ADVANCED_INSTANCE(TIMx) != RESET)  
 8020334:	b90e      	cbnz	r6, 802033a <TIM_Base_SetConfig+0xee>
 8020336:	2c00      	cmp	r4, #0
 8020338:	d0e2      	beq.n	8020300 <TIM_Base_SetConfig+0xb4>
  {
    /* Set the Repetition Counter value */
    TIMx->RCR = Structure->RepetitionCounter;
 802033a:	690b      	ldr	r3, [r1, #16]
 802033c:	6303      	str	r3, [r0, #48]	; 0x30
  }

  /* Generate an update event to reload the Prescaler 
     and the repetition counter(only for TIM1 and TIM8) value immediately */
  TIMx->EGR = TIM_EGR_UG;
 802033e:	2301      	movs	r3, #1
}
 8020340:	bc70      	pop	{r4, r5, r6}
    TIMx->RCR = Structure->RepetitionCounter;
  }

  /* Generate an update event to reload the Prescaler 
     and the repetition counter(only for TIM1 and TIM8) value immediately */
  TIMx->EGR = TIM_EGR_UG;
 8020342:	6143      	str	r3, [r0, #20]
}
 8020344:	4770      	bx	lr
 8020346:	4614      	mov	r4, r2
 8020348:	e7e7      	b.n	802031a <TIM_Base_SetConfig+0xce>
 802034a:	2400      	movs	r4, #0
 802034c:	e7e5      	b.n	802031a <TIM_Base_SetConfig+0xce>
 802034e:	bf00      	nop
 8020350:	40010000 	.word	0x40010000
 8020354:	40000c00 	.word	0x40000c00
 8020358:	40010400 	.word	0x40010400
 802035c:	40000800 	.word	0x40000800
 8020360:	40014400 	.word	0x40014400
 8020364:	40014000 	.word	0x40014000
 8020368:	40001800 	.word	0x40001800

0802036c <Int_Init>:
Input       : None.
Output      : None.
Return      : None.
******************************************************************************/
void Int_Init(void)
{
 802036c:	b570      	push	{r4, r5, r6, lr}
    /* Connect the physical interrupt to our machine */
    RMP_ASSERT(RVM_Reg_Int(RVM_TIM4_INT_IRQ30, 2)==0);
 802036e:	2102      	movs	r1, #2
Input       : None.
Output      : None.
Return      : None.
******************************************************************************/
void Int_Init(void)
{
 8020370:	b082      	sub	sp, #8
    /* Connect the physical interrupt to our machine */
    RMP_ASSERT(RVM_Reg_Int(RVM_TIM4_INT_IRQ30, 2)==0);
 8020372:	2000      	movs	r0, #0
 8020374:	f000 ff6e 	bl	8021254 <RVM_Reg_Int>
 8020378:	b1d8      	cbz	r0, 80203b2 <Int_Init+0x46>
 802037a:	4845      	ldr	r0, [pc, #276]	; (8020490 <Int_Init+0x124>)
 802037c:	f001 f87a 	bl	8021474 <RMP_Print_String>
 8020380:	4844      	ldr	r0, [pc, #272]	; (8020494 <Int_Init+0x128>)
 8020382:	f001 f877 	bl	8021474 <RMP_Print_String>
 8020386:	4844      	ldr	r0, [pc, #272]	; (8020498 <Int_Init+0x12c>)
 8020388:	f001 f874 	bl	8021474 <RMP_Print_String>
 802038c:	2070      	movs	r0, #112	; 0x70
 802038e:	f001 f80b 	bl	80213a8 <RMP_Print_Int>
 8020392:	4842      	ldr	r0, [pc, #264]	; (802049c <Int_Init+0x130>)
 8020394:	f001 f86e 	bl	8021474 <RMP_Print_String>
 8020398:	4841      	ldr	r0, [pc, #260]	; (80204a0 <Int_Init+0x134>)
 802039a:	f001 f86b 	bl	8021474 <RMP_Print_String>
 802039e:	4841      	ldr	r0, [pc, #260]	; (80204a4 <Int_Init+0x138>)
 80203a0:	f001 f868 	bl	8021474 <RMP_Print_String>
 80203a4:	4840      	ldr	r0, [pc, #256]	; (80204a8 <Int_Init+0x13c>)
 80203a6:	f001 f865 	bl	8021474 <RMP_Print_String>
 80203aa:	483c      	ldr	r0, [pc, #240]	; (802049c <Int_Init+0x130>)
 80203ac:	f001 f862 	bl	8021474 <RMP_Print_String>
 80203b0:	e7fe      	b.n	80203b0 <Int_Init+0x44>
    /* Set the priority of the physical interrupt and enable it */
    RMP_ASSERT(RVM_HW_Int_Enable(RVM_TIM4_INT_IRQ30)==0);
 80203b2:	f000 ff8f 	bl	80212d4 <RVM_HW_Int_Enable>
 80203b6:	b1d8      	cbz	r0, 80203f0 <Int_Init+0x84>
 80203b8:	4835      	ldr	r0, [pc, #212]	; (8020490 <Int_Init+0x124>)
 80203ba:	f001 f85b 	bl	8021474 <RMP_Print_String>
 80203be:	4835      	ldr	r0, [pc, #212]	; (8020494 <Int_Init+0x128>)
 80203c0:	f001 f858 	bl	8021474 <RMP_Print_String>
 80203c4:	4834      	ldr	r0, [pc, #208]	; (8020498 <Int_Init+0x12c>)
 80203c6:	f001 f855 	bl	8021474 <RMP_Print_String>
 80203ca:	2072      	movs	r0, #114	; 0x72
 80203cc:	f000 ffec 	bl	80213a8 <RMP_Print_Int>
 80203d0:	4832      	ldr	r0, [pc, #200]	; (802049c <Int_Init+0x130>)
 80203d2:	f001 f84f 	bl	8021474 <RMP_Print_String>
 80203d6:	4832      	ldr	r0, [pc, #200]	; (80204a0 <Int_Init+0x134>)
 80203d8:	f001 f84c 	bl	8021474 <RMP_Print_String>
 80203dc:	4831      	ldr	r0, [pc, #196]	; (80204a4 <Int_Init+0x138>)
 80203de:	f001 f849 	bl	8021474 <RMP_Print_String>
 80203e2:	4831      	ldr	r0, [pc, #196]	; (80204a8 <Int_Init+0x13c>)
 80203e4:	f001 f846 	bl	8021474 <RMP_Print_String>
 80203e8:	482c      	ldr	r0, [pc, #176]	; (802049c <Int_Init+0x130>)
 80203ea:	f001 f843 	bl	8021474 <RMP_Print_String>
 80203ee:	e7fe      	b.n	80203ee <Int_Init+0x82>
    RMP_ASSERT(RVM_HW_Int_Prio(RVM_TIM4_INT_IRQ30,0xFF)==0);
 80203f0:	21ff      	movs	r1, #255	; 0xff
 80203f2:	f000 ff83 	bl	80212fc <RVM_HW_Int_Prio>
 80203f6:	4605      	mov	r5, r0
 80203f8:	b1d8      	cbz	r0, 8020432 <Int_Init+0xc6>
 80203fa:	4825      	ldr	r0, [pc, #148]	; (8020490 <Int_Init+0x124>)
 80203fc:	f001 f83a 	bl	8021474 <RMP_Print_String>
 8020400:	4824      	ldr	r0, [pc, #144]	; (8020494 <Int_Init+0x128>)
 8020402:	f001 f837 	bl	8021474 <RMP_Print_String>
 8020406:	4824      	ldr	r0, [pc, #144]	; (8020498 <Int_Init+0x12c>)
 8020408:	f001 f834 	bl	8021474 <RMP_Print_String>
 802040c:	2073      	movs	r0, #115	; 0x73
 802040e:	f000 ffcb 	bl	80213a8 <RMP_Print_Int>
 8020412:	4822      	ldr	r0, [pc, #136]	; (802049c <Int_Init+0x130>)
 8020414:	f001 f82e 	bl	8021474 <RMP_Print_String>
 8020418:	4821      	ldr	r0, [pc, #132]	; (80204a0 <Int_Init+0x134>)
 802041a:	f001 f82b 	bl	8021474 <RMP_Print_String>
 802041e:	4821      	ldr	r0, [pc, #132]	; (80204a4 <Int_Init+0x138>)
 8020420:	f001 f828 	bl	8021474 <RMP_Print_String>
 8020424:	4820      	ldr	r0, [pc, #128]	; (80204a8 <Int_Init+0x13c>)
 8020426:	f001 f825 	bl	8021474 <RMP_Print_String>
 802042a:	481c      	ldr	r0, [pc, #112]	; (802049c <Int_Init+0x130>)
 802042c:	f001 f822 	bl	8021474 <RMP_Print_String>
 8020430:	e7fe      	b.n	8020430 <Int_Init+0xc4>
    /* Interrupt generation is initialized too, here we only register our handler */
    RVM_Vect_Init(2,Int_Handler);
 8020432:	491e      	ldr	r1, [pc, #120]	; (80204ac <Int_Init+0x140>)
 8020434:	2002      	movs	r0, #2
 8020436:	f000 fed5 	bl	80211e4 <RVM_Vect_Init>
    
    /* TIM4 clock = 1/2 CPU clock */
    TIM4_Handle.Instance=TIM4;
 802043a:	4c1d      	ldr	r4, [pc, #116]	; (80204b0 <Int_Init+0x144>)
 802043c:	4b1d      	ldr	r3, [pc, #116]	; (80204b4 <Int_Init+0x148>)
    TIM4_Handle.Init.Prescaler=0;
    TIM4_Handle.Init.CounterMode=TIM_COUNTERMODE_DOWN;
    TIM4_Handle.Init.Period=21600;
 802043e:	f245 4260 	movw	r2, #21600	; 0x5460
    RVM_Vect_Init(2,Int_Handler);
    
    /* TIM4 clock = 1/2 CPU clock */
    TIM4_Handle.Instance=TIM4;
    TIM4_Handle.Init.Prescaler=0;
    TIM4_Handle.Init.CounterMode=TIM_COUNTERMODE_DOWN;
 8020442:	2610      	movs	r6, #16
    TIM4_Handle.Init.Period=21600;
    TIM4_Handle.Init.ClockDivision=TIM_CLOCKDIVISION_DIV1;
	TIM4_Handle.Init.RepetitionCounter=0;
    TIM_Base_SetConfig(TIM4_Handle.Instance, &(TIM4_Handle.Init)); 
 8020444:	1d21      	adds	r1, r4, #4
 8020446:	4618      	mov	r0, r3
    
    /* TIM4 clock = 1/2 CPU clock */
    TIM4_Handle.Instance=TIM4;
    TIM4_Handle.Init.Prescaler=0;
    TIM4_Handle.Init.CounterMode=TIM_COUNTERMODE_DOWN;
    TIM4_Handle.Init.Period=21600;
 8020448:	60e2      	str	r2, [r4, #12]
    RMP_ASSERT(RVM_HW_Int_Prio(RVM_TIM4_INT_IRQ30,0xFF)==0);
    /* Interrupt generation is initialized too, here we only register our handler */
    RVM_Vect_Init(2,Int_Handler);
    
    /* TIM4 clock = 1/2 CPU clock */
    TIM4_Handle.Instance=TIM4;
 802044a:	6023      	str	r3, [r4, #0]
    TIM4_Handle.Init.Prescaler=0;
 802044c:	6065      	str	r5, [r4, #4]
    TIM4_Handle.Init.CounterMode=TIM_COUNTERMODE_DOWN;
    TIM4_Handle.Init.Period=21600;
    TIM4_Handle.Init.ClockDivision=TIM_CLOCKDIVISION_DIV1;
 802044e:	6125      	str	r5, [r4, #16]
	TIM4_Handle.Init.RepetitionCounter=0;
 8020450:	6165      	str	r5, [r4, #20]
    RVM_Vect_Init(2,Int_Handler);
    
    /* TIM4 clock = 1/2 CPU clock */
    TIM4_Handle.Instance=TIM4;
    TIM4_Handle.Init.Prescaler=0;
    TIM4_Handle.Init.CounterMode=TIM_COUNTERMODE_DOWN;
 8020452:	60a6      	str	r6, [r4, #8]
    TIM4_Handle.Init.Period=21600;
    TIM4_Handle.Init.ClockDivision=TIM_CLOCKDIVISION_DIV1;
	TIM4_Handle.Init.RepetitionCounter=0;
    TIM_Base_SetConfig(TIM4_Handle.Instance, &(TIM4_Handle.Init)); 
 8020454:	f7ff fefa 	bl	802024c <TIM_Base_SetConfig>
    TIM4_Handle.State=HAL_TIM_STATE_READY;
    __HAL_RCC_TIM4_CLK_ENABLE();
 8020458:	4b17      	ldr	r3, [pc, #92]	; (80204b8 <Int_Init+0x14c>)
    TIM4_Handle.Init.CounterMode=TIM_COUNTERMODE_DOWN;
    TIM4_Handle.Init.Period=21600;
    TIM4_Handle.Init.ClockDivision=TIM_CLOCKDIVISION_DIV1;
	TIM4_Handle.Init.RepetitionCounter=0;
    TIM_Base_SetConfig(TIM4_Handle.Instance, &(TIM4_Handle.Init)); 
    TIM4_Handle.State=HAL_TIM_STATE_READY;
 802045a:	2201      	movs	r2, #1
    __HAL_RCC_TIM4_CLK_ENABLE();
	/* Clear interrupt pending bit, because we used EGR to update the registers */
	__HAL_TIM_CLEAR_IT(&TIM4_Handle, TIM_IT_UPDATE);
 802045c:	f06f 0101 	mvn.w	r1, #1
    TIM4_Handle.Init.CounterMode=TIM_COUNTERMODE_DOWN;
    TIM4_Handle.Init.Period=21600;
    TIM4_Handle.Init.ClockDivision=TIM_CLOCKDIVISION_DIV1;
	TIM4_Handle.Init.RepetitionCounter=0;
    TIM_Base_SetConfig(TIM4_Handle.Instance, &(TIM4_Handle.Init)); 
    TIM4_Handle.State=HAL_TIM_STATE_READY;
 8020460:	f884 203d 	strb.w	r2, [r4, #61]	; 0x3d
    __HAL_RCC_TIM4_CLK_ENABLE();
 8020464:	6c1a      	ldr	r2, [r3, #64]	; 0x40
 8020466:	f042 0204 	orr.w	r2, r2, #4
 802046a:	641a      	str	r2, [r3, #64]	; 0x40
 802046c:	6c1a      	ldr	r2, [r3, #64]	; 0x40
	/* Clear interrupt pending bit, because we used EGR to update the registers */
	__HAL_TIM_CLEAR_IT(&TIM4_Handle, TIM_IT_UPDATE);
 802046e:	6823      	ldr	r3, [r4, #0]
    TIM4_Handle.Init.Period=21600;
    TIM4_Handle.Init.ClockDivision=TIM_CLOCKDIVISION_DIV1;
	TIM4_Handle.Init.RepetitionCounter=0;
    TIM_Base_SetConfig(TIM4_Handle.Instance, &(TIM4_Handle.Init)); 
    TIM4_Handle.State=HAL_TIM_STATE_READY;
    __HAL_RCC_TIM4_CLK_ENABLE();
 8020470:	f002 0204 	and.w	r2, r2, #4
 8020474:	9201      	str	r2, [sp, #4]
 8020476:	9a01      	ldr	r2, [sp, #4]
	/* Clear interrupt pending bit, because we used EGR to update the registers */
	__HAL_TIM_CLEAR_IT(&TIM4_Handle, TIM_IT_UPDATE);
 8020478:	6119      	str	r1, [r3, #16]
      /* Enable the TIM Update interrupt */
    __HAL_TIM_ENABLE_IT(&TIM4_Handle, TIM_IT_UPDATE);
 802047a:	68da      	ldr	r2, [r3, #12]
 802047c:	f042 0201 	orr.w	r2, r2, #1
 8020480:	60da      	str	r2, [r3, #12]
    /* Enable the Peripheral */
    __HAL_TIM_ENABLE(&TIM4_Handle);
 8020482:	681a      	ldr	r2, [r3, #0]
 8020484:	f042 0201 	orr.w	r2, r2, #1
 8020488:	601a      	str	r2, [r3, #0]
}
 802048a:	b002      	add	sp, #8
 802048c:	bd70      	pop	{r4, r5, r6, pc}
 802048e:	bf00      	nop
 8020490:	08022e98 	.word	0x08022e98
 8020494:	08022ec0 	.word	0x08022ec0
 8020498:	08022f34 	.word	0x08022f34
 802049c:	08022f94 	.word	0x08022f94
 80204a0:	08022f40 	.word	0x08022f40
 80204a4:	08022f4c 	.word	0x08022f4c
 80204a8:	08022f50 	.word	0x08022f50
 80204ac:	0802014d 	.word	0x0802014d
 80204b0:	200284c0 	.word	0x200284c0
 80204b4:	40000800 	.word	0x40000800
 80204b8:	40023800 	.word	0x40023800

080204bc <Test_Mail_1>:
        RMP_Yield();
    }
}

void Test_Mail_1(void)
{
 80204bc:	b570      	push	{r4, r5, r6, lr}
    static rmp_cnt_t Count;
    for(Count=0;Count<10000;Count++)
 80204be:	2300      	movs	r3, #0
 80204c0:	4c0a      	ldr	r4, [pc, #40]	; (80204ec <Test_Mail_1+0x30>)
 80204c2:	4e0b      	ldr	r6, [pc, #44]	; (80204f0 <Test_Mail_1+0x34>)
    {
        /* Read counter here */
        Start=COUNTER_READ();
 80204c4:	f04f 4580 	mov.w	r5, #1073741824	; 0x40000000
}

void Test_Mail_1(void)
{
    static rmp_cnt_t Count;
    for(Count=0;Count<10000;Count++)
 80204c8:	6023      	str	r3, [r4, #0]
    {
        /* Read counter here */
        Start=COUNTER_READ();
 80204ca:	6a6b      	ldr	r3, [r5, #36]	; 0x24
        RMP_Thd_Snd(&Thd_2, 1, RMP_MAX_SLICES);
 80204cc:	2101      	movs	r1, #1
 80204ce:	4a09      	ldr	r2, [pc, #36]	; (80204f4 <Test_Mail_1+0x38>)
{
    static rmp_cnt_t Count;
    for(Count=0;Count<10000;Count++)
    {
        /* Read counter here */
        Start=COUNTER_READ();
 80204d0:	408b      	lsls	r3, r1
        RMP_Thd_Snd(&Thd_2, 1, RMP_MAX_SLICES);
 80204d2:	4809      	ldr	r0, [pc, #36]	; (80204f8 <Test_Mail_1+0x3c>)
{
    static rmp_cnt_t Count;
    for(Count=0;Count<10000;Count++)
    {
        /* Read counter here */
        Start=COUNTER_READ();
 80204d4:	6033      	str	r3, [r6, #0]
        RMP_Thd_Snd(&Thd_2, 1, RMP_MAX_SLICES);
 80204d6:	f001 fa8d 	bl	80219f4 <RMP_Thd_Snd>
}

void Test_Mail_1(void)
{
    static rmp_cnt_t Count;
    for(Count=0;Count<10000;Count++)
 80204da:	6823      	ldr	r3, [r4, #0]
 80204dc:	f242 720f 	movw	r2, #9999	; 0x270f
 80204e0:	3301      	adds	r3, #1
 80204e2:	4293      	cmp	r3, r2
 80204e4:	6023      	str	r3, [r4, #0]
 80204e6:	ddf0      	ble.n	80204ca <Test_Mail_1+0xe>
    {
        /* Read counter here */
        Start=COUNTER_READ();
        RMP_Thd_Snd(&Thd_2, 1, RMP_MAX_SLICES);
    }
}
 80204e8:	bd70      	pop	{r4, r5, r6, pc}
 80204ea:	bf00      	nop
 80204ec:	20028558 	.word	0x20028558
 80204f0:	20028490 	.word	0x20028490
 80204f4:	000186a0 	.word	0x000186a0
 80204f8:	20028bd4 	.word	0x20028bd4

080204fc <Test_Sem_1>:

void Test_Sem_1(void)
{
 80204fc:	b570      	push	{r4, r5, r6, lr}
 80204fe:	f242 7410 	movw	r4, #10000	; 0x2710
 8020502:	4e06      	ldr	r6, [pc, #24]	; (802051c <Test_Sem_1+0x20>)
    rmp_cnt_t Count;
    for(Count=0;Count<10000;Count++)
    {
        /* Read counter here */
        Start=COUNTER_READ();
 8020504:	f04f 4580 	mov.w	r5, #1073741824	; 0x40000000
 8020508:	6a6b      	ldr	r3, [r5, #36]	; 0x24
        RMP_Sem_Post(&Sem_1, 1);
 802050a:	2101      	movs	r1, #1
 802050c:	4804      	ldr	r0, [pc, #16]	; (8020520 <Test_Sem_1+0x24>)
{
    rmp_cnt_t Count;
    for(Count=0;Count<10000;Count++)
    {
        /* Read counter here */
        Start=COUNTER_READ();
 802050e:	408b      	lsls	r3, r1
 8020510:	6033      	str	r3, [r6, #0]
        RMP_Sem_Post(&Sem_1, 1);
 8020512:	f001 ff4d 	bl	80223b0 <RMP_Sem_Post>
}

void Test_Sem_1(void)
{
    rmp_cnt_t Count;
    for(Count=0;Count<10000;Count++)
 8020516:	3c01      	subs	r4, #1
 8020518:	d1f6      	bne.n	8020508 <Test_Sem_1+0xc>
    {
        /* Read counter here */
        Start=COUNTER_READ();
        RMP_Sem_Post(&Sem_1, 1);
    }
}
 802051a:	bd70      	pop	{r4, r5, r6, pc}
 802051c:	20028490 	.word	0x20028490
 8020520:	20028bc4 	.word	0x20028bc4

08020524 <Func_1>:

void Func_1(void)
{
 8020524:	f242 7410 	movw	r4, #10000	; 0x2710
 8020528:	4e0a      	ldr	r6, [pc, #40]	; (8020554 <Func_1+0x30>)
{
    rmp_cnt_t Count;
    for(Count=0;Count<10000;Count++)
    {
        /* Read counter here */
        Start=COUNTER_READ();
 802052a:	f04f 4580 	mov.w	r5, #1073741824	; 0x40000000
        RMP_Sem_Post(&Sem_1, 1);
    }
}

void Func_1(void)
{
 802052e:	b508      	push	{r3, lr}
{
    rmp_cnt_t Count;
    for(Count=0;Count<10000;Count++)
    {
        /* Read counter here */
        Start=COUNTER_READ();
 8020530:	6a6b      	ldr	r3, [r5, #36]	; 0x24
 8020532:	005b      	lsls	r3, r3, #1
 8020534:	6033      	str	r3, [r6, #0]
        RMP_Yield();
 8020536:	f000 fffb 	bl	8021530 <RMP_Yield>
Return      : None.
******************************************************************************/
void Test_Yield_1(void)
{
    rmp_cnt_t Count;
    for(Count=0;Count<10000;Count++)
 802053a:	3c01      	subs	r4, #1
 802053c:	d1f8      	bne.n	8020530 <Func_1+0xc>

void Func_1(void)
{
    Test_Yield_1();
    /* Change priority of thread 2 */
    RMP_Thd_Set(&Thd_2,2,RMP_MAX_SLICES);
 802053e:	4a06      	ldr	r2, [pc, #24]	; (8020558 <Func_1+0x34>)
 8020540:	2102      	movs	r1, #2
 8020542:	4806      	ldr	r0, [pc, #24]	; (802055c <Func_1+0x38>)
 8020544:	f001 f992 	bl	802186c <RMP_Thd_Set>
    Test_Mail_1();
 8020548:	f7ff ffb8 	bl	80204bc <Test_Mail_1>
    Test_Sem_1();
 802054c:	f7ff ffd6 	bl	80204fc <Test_Sem_1>
 8020550:	e7fe      	b.n	8020550 <Func_1+0x2c>
 8020552:	bf00      	nop
 8020554:	20028490 	.word	0x20028490
 8020558:	000186a0 	.word	0x000186a0
 802055c:	20028bd4 	.word	0x20028bd4

08020560 <Test_Yield_2>:
Input       : None.
Output      : None.
Return      : None.
******************************************************************************/
void Test_Yield_2(void)
{
 8020560:	e92d 41f0 	stmdb	sp!, {r4, r5, r6, r7, r8, lr}
 8020564:	f242 7410 	movw	r4, #10000	; 0x2710
 8020568:	f8df 8038 	ldr.w	r8, [pc, #56]	; 80205a4 <Test_Yield_2+0x44>
 802056c:	4e0b      	ldr	r6, [pc, #44]	; (802059c <Test_Yield_2+0x3c>)
    rmp_cnt_t Count;
    for(Count=0;Count<10000;Count++)
    {
        RMP_Yield();
        /* Read counter here */
        End=COUNTER_READ();
 802056e:	f04f 4580 	mov.w	r5, #1073741824	; 0x40000000
 8020572:	4f0b      	ldr	r7, [pc, #44]	; (80205a0 <Test_Yield_2+0x40>)
void Test_Yield_2(void)
{
    rmp_cnt_t Count;
    for(Count=0;Count<10000;Count++)
    {
        RMP_Yield();
 8020574:	f000 ffdc 	bl	8021530 <RMP_Yield>
        /* Read counter here */
        End=COUNTER_READ();
 8020578:	6a6b      	ldr	r3, [r5, #36]	; 0x24
Return      : None.
******************************************************************************/
void Test_Yield_2(void)
{
    rmp_cnt_t Count;
    for(Count=0;Count<10000;Count++)
 802057a:	3c01      	subs	r4, #1
    {
        RMP_Yield();
        /* Read counter here */
        End=COUNTER_READ();
 802057c:	ea4f 0343 	mov.w	r3, r3, lsl #1
 8020580:	f8c8 3000 	str.w	r3, [r8]
        Total+=(rmp_tim_t)(End-Start);
 8020584:	f8d8 3000 	ldr.w	r3, [r8]
 8020588:	6831      	ldr	r1, [r6, #0]
 802058a:	683a      	ldr	r2, [r7, #0]
 802058c:	4413      	add	r3, r2
 802058e:	eba3 0301 	sub.w	r3, r3, r1
 8020592:	603b      	str	r3, [r7, #0]
Return      : None.
******************************************************************************/
void Test_Yield_2(void)
{
    rmp_cnt_t Count;
    for(Count=0;Count<10000;Count++)
 8020594:	d1ee      	bne.n	8020574 <Test_Yield_2+0x14>
        RMP_Yield();
        /* Read counter here */
        End=COUNTER_READ();
        Total+=(rmp_tim_t)(End-Start);
    };
}
 8020596:	e8bd 81f0 	ldmia.w	sp!, {r4, r5, r6, r7, r8, pc}
 802059a:	bf00      	nop
 802059c:	20028490 	.word	0x20028490
 80205a0:	20028510 	.word	0x20028510
 80205a4:	2002845c 	.word	0x2002845c

080205a8 <Test_Mail_2>:
void Test_Mail_2(void)
{
 80205a8:	e92d 41f0 	stmdb	sp!, {r4, r5, r6, r7, r8, lr}
 80205ac:	f242 7410 	movw	r4, #10000	; 0x2710
 80205b0:	b082      	sub	sp, #8
 80205b2:	f8df 8044 	ldr.w	r8, [pc, #68]	; 80205f8 <Test_Mail_2+0x50>
    rmp_cnt_t Count;
    for(Count=0;Count<10000;Count++)
    {
        RMP_Thd_Rcv(&Data, RMP_MAX_SLICES);
        /* Read counter here */
        End=COUNTER_READ();
 80205b6:	f04f 4680 	mov.w	r6, #1073741824	; 0x40000000
 80205ba:	4d0c      	ldr	r5, [pc, #48]	; (80205ec <Test_Mail_2+0x44>)
 80205bc:	4f0c      	ldr	r7, [pc, #48]	; (80205f0 <Test_Mail_2+0x48>)
{
    rmp_ptr_t Data;
    rmp_cnt_t Count;
    for(Count=0;Count<10000;Count++)
    {
        RMP_Thd_Rcv(&Data, RMP_MAX_SLICES);
 80205be:	490d      	ldr	r1, [pc, #52]	; (80205f4 <Test_Mail_2+0x4c>)
 80205c0:	a801      	add	r0, sp, #4
 80205c2:	f001 fbdf 	bl	8021d84 <RMP_Thd_Rcv>
        /* Read counter here */
        End=COUNTER_READ();
 80205c6:	6a73      	ldr	r3, [r6, #36]	; 0x24
}
void Test_Mail_2(void)
{
    rmp_ptr_t Data;
    rmp_cnt_t Count;
    for(Count=0;Count<10000;Count++)
 80205c8:	3c01      	subs	r4, #1
    {
        RMP_Thd_Rcv(&Data, RMP_MAX_SLICES);
        /* Read counter here */
        End=COUNTER_READ();
 80205ca:	ea4f 0343 	mov.w	r3, r3, lsl #1
 80205ce:	f8c8 3000 	str.w	r3, [r8]
        Total+=(rmp_tim_t)(End-Start);
 80205d2:	f8d8 3000 	ldr.w	r3, [r8]
 80205d6:	6829      	ldr	r1, [r5, #0]
 80205d8:	683a      	ldr	r2, [r7, #0]
 80205da:	4413      	add	r3, r2
 80205dc:	eba3 0301 	sub.w	r3, r3, r1
 80205e0:	603b      	str	r3, [r7, #0]
}
void Test_Mail_2(void)
{
    rmp_ptr_t Data;
    rmp_cnt_t Count;
    for(Count=0;Count<10000;Count++)
 80205e2:	d1ec      	bne.n	80205be <Test_Mail_2+0x16>
        RMP_Thd_Rcv(&Data, RMP_MAX_SLICES);
        /* Read counter here */
        End=COUNTER_READ();
        Total+=(rmp_tim_t)(End-Start);
    }
}
 80205e4:	b002      	add	sp, #8
 80205e6:	e8bd 81f0 	ldmia.w	sp!, {r4, r5, r6, r7, r8, pc}
 80205ea:	bf00      	nop
 80205ec:	20028490 	.word	0x20028490
 80205f0:	20028510 	.word	0x20028510
 80205f4:	000186a0 	.word	0x000186a0
 80205f8:	2002845c 	.word	0x2002845c

080205fc <Test_Sem_2>:

void Test_Sem_2(void)
{
 80205fc:	e92d 41f0 	stmdb	sp!, {r4, r5, r6, r7, r8, lr}
 8020600:	f242 7410 	movw	r4, #10000	; 0x2710
 8020604:	f8df 8044 	ldr.w	r8, [pc, #68]	; 802064c <Test_Sem_2+0x50>
 8020608:	4e0c      	ldr	r6, [pc, #48]	; (802063c <Test_Sem_2+0x40>)
    rmp_cnt_t Count;
    for(Count=0;Count<10000;Count++)
    {
        RMP_Sem_Pend(&Sem_1, RMP_MAX_SLICES);
        /* Read counter here */
        End=COUNTER_READ();
 802060a:	f04f 4580 	mov.w	r5, #1073741824	; 0x40000000
 802060e:	4f0c      	ldr	r7, [pc, #48]	; (8020640 <Test_Sem_2+0x44>)
void Test_Sem_2(void)
{
    rmp_cnt_t Count;
    for(Count=0;Count<10000;Count++)
    {
        RMP_Sem_Pend(&Sem_1, RMP_MAX_SLICES);
 8020610:	490c      	ldr	r1, [pc, #48]	; (8020644 <Test_Sem_2+0x48>)
 8020612:	480d      	ldr	r0, [pc, #52]	; (8020648 <Test_Sem_2+0x4c>)
 8020614:	f001 fdc2 	bl	802219c <RMP_Sem_Pend>
        /* Read counter here */
        End=COUNTER_READ();
 8020618:	6a6b      	ldr	r3, [r5, #36]	; 0x24
}

void Test_Sem_2(void)
{
    rmp_cnt_t Count;
    for(Count=0;Count<10000;Count++)
 802061a:	3c01      	subs	r4, #1
    {
        RMP_Sem_Pend(&Sem_1, RMP_MAX_SLICES);
        /* Read counter here */
        End=COUNTER_READ();
 802061c:	ea4f 0343 	mov.w	r3, r3, lsl #1
 8020620:	f8c8 3000 	str.w	r3, [r8]
        Total+=(rmp_tim_t)(End-Start);
 8020624:	f8d8 3000 	ldr.w	r3, [r8]
 8020628:	6831      	ldr	r1, [r6, #0]
 802062a:	683a      	ldr	r2, [r7, #0]
 802062c:	4413      	add	r3, r2
 802062e:	eba3 0301 	sub.w	r3, r3, r1
 8020632:	603b      	str	r3, [r7, #0]
}

void Test_Sem_2(void)
{
    rmp_cnt_t Count;
    for(Count=0;Count<10000;Count++)
 8020634:	d1ec      	bne.n	8020610 <Test_Sem_2+0x14>
        RMP_Sem_Pend(&Sem_1, RMP_MAX_SLICES);
        /* Read counter here */
        End=COUNTER_READ();
        Total+=(rmp_tim_t)(End-Start);
    }
}
 8020636:	e8bd 81f0 	ldmia.w	sp!, {r4, r5, r6, r7, r8, pc}
 802063a:	bf00      	nop
 802063c:	20028490 	.word	0x20028490
 8020640:	20028510 	.word	0x20028510
 8020644:	000186a0 	.word	0x000186a0
 8020648:	20028bc4 	.word	0x20028bc4
 802064c:	2002845c 	.word	0x2002845c

08020650 <Test_Mail_ISR>:

void Test_Mail_ISR(void)
{
 8020650:	e92d 43f0 	stmdb	sp!, {r4, r5, r6, r7, r8, r9, lr}
    rmp_ptr_t Data;
    static rmp_cnt_t Count;
    for(Count=0;Count<10000;Count++)
 8020654:	2300      	movs	r3, #0
 8020656:	4c13      	ldr	r4, [pc, #76]	; (80206a4 <Test_Mail_ISR+0x54>)
        Total+=(rmp_tim_t)(End-Start);
    }
}

void Test_Mail_ISR(void)
{
 8020658:	b083      	sub	sp, #12
 802065a:	f8df 9054 	ldr.w	r9, [pc, #84]	; 80206b0 <Test_Mail_ISR+0x60>
 802065e:	4f12      	ldr	r7, [pc, #72]	; (80206a8 <Test_Mail_ISR+0x58>)
    static rmp_cnt_t Count;
    for(Count=0;Count<10000;Count++)
    {
        RMP_Thd_Rcv(&Data, RMP_MAX_SLICES);
        /* Read counter here */
        End=COUNTER_READ();
 8020660:	f04f 4680 	mov.w	r6, #1073741824	; 0x40000000
 8020664:	f8df 804c 	ldr.w	r8, [pc, #76]	; 80206b4 <Test_Mail_ISR+0x64>

void Test_Mail_ISR(void)
{
    rmp_ptr_t Data;
    static rmp_cnt_t Count;
    for(Count=0;Count<10000;Count++)
 8020668:	f242 750f 	movw	r5, #9999	; 0x270f
 802066c:	6023      	str	r3, [r4, #0]
    {
        RMP_Thd_Rcv(&Data, RMP_MAX_SLICES);
 802066e:	490f      	ldr	r1, [pc, #60]	; (80206ac <Test_Mail_ISR+0x5c>)
 8020670:	a801      	add	r0, sp, #4
 8020672:	f001 fb87 	bl	8021d84 <RMP_Thd_Rcv>
        /* Read counter here */
        End=COUNTER_READ();
 8020676:	6a73      	ldr	r3, [r6, #36]	; 0x24

void Test_Mail_ISR(void)
{
    rmp_ptr_t Data;
    static rmp_cnt_t Count;
    for(Count=0;Count<10000;Count++)
 8020678:	6821      	ldr	r1, [r4, #0]
    {
        RMP_Thd_Rcv(&Data, RMP_MAX_SLICES);
        /* Read counter here */
        End=COUNTER_READ();
 802067a:	005b      	lsls	r3, r3, #1

void Test_Mail_ISR(void)
{
    rmp_ptr_t Data;
    static rmp_cnt_t Count;
    for(Count=0;Count<10000;Count++)
 802067c:	3101      	adds	r1, #1
    {
        RMP_Thd_Rcv(&Data, RMP_MAX_SLICES);
        /* Read counter here */
        End=COUNTER_READ();
 802067e:	f8c9 3000 	str.w	r3, [r9]
        Total+=(rmp_tim_t)(End-Start);
 8020682:	f8d9 3000 	ldr.w	r3, [r9]

void Test_Mail_ISR(void)
{
    rmp_ptr_t Data;
    static rmp_cnt_t Count;
    for(Count=0;Count<10000;Count++)
 8020686:	42a9      	cmp	r1, r5
    {
        RMP_Thd_Rcv(&Data, RMP_MAX_SLICES);
        /* Read counter here */
        End=COUNTER_READ();
        Total+=(rmp_tim_t)(End-Start);
 8020688:	6838      	ldr	r0, [r7, #0]
 802068a:	f8d8 2000 	ldr.w	r2, [r8]

void Test_Mail_ISR(void)
{
    rmp_ptr_t Data;
    static rmp_cnt_t Count;
    for(Count=0;Count<10000;Count++)
 802068e:	6021      	str	r1, [r4, #0]
    {
        RMP_Thd_Rcv(&Data, RMP_MAX_SLICES);
        /* Read counter here */
        End=COUNTER_READ();
        Total+=(rmp_tim_t)(End-Start);
 8020690:	4413      	add	r3, r2
 8020692:	eba3 0300 	sub.w	r3, r3, r0
 8020696:	f8c8 3000 	str.w	r3, [r8]

void Test_Mail_ISR(void)
{
    rmp_ptr_t Data;
    static rmp_cnt_t Count;
    for(Count=0;Count<10000;Count++)
 802069a:	dde8      	ble.n	802066e <Test_Mail_ISR+0x1e>
        RMP_Thd_Rcv(&Data, RMP_MAX_SLICES);
        /* Read counter here */
        End=COUNTER_READ();
        Total+=(rmp_tim_t)(End-Start);
    }
}
 802069c:	b003      	add	sp, #12
 802069e:	e8bd 83f0 	ldmia.w	sp!, {r4, r5, r6, r7, r8, r9, pc}
 80206a2:	bf00      	nop
 80206a4:	20028484 	.word	0x20028484
 80206a8:	20028490 	.word	0x20028490
 80206ac:	000186a0 	.word	0x000186a0
 80206b0:	2002845c 	.word	0x2002845c
 80206b4:	20028510 	.word	0x20028510

080206b8 <Test_Sem_ISR>:

void Test_Sem_ISR(void)
{
 80206b8:	e92d 41f0 	stmdb	sp!, {r4, r5, r6, r7, r8, lr}
    static rmp_cnt_t Count;
    for(Count=0;Count<10000;Count++)
 80206bc:	2300      	movs	r3, #0
 80206be:	4c11      	ldr	r4, [pc, #68]	; (8020704 <Test_Sem_ISR+0x4c>)
 80206c0:	f8df 8054 	ldr.w	r8, [pc, #84]	; 8020718 <Test_Sem_ISR+0x60>
    {
        RMP_Sem_Pend(&Sem_1, RMP_MAX_SLICES);
        /* Read counter here */
        End=COUNTER_READ();
 80206c4:	f04f 4680 	mov.w	r6, #1073741824	; 0x40000000
 80206c8:	4d0f      	ldr	r5, [pc, #60]	; (8020708 <Test_Sem_ISR+0x50>)
 80206ca:	4f10      	ldr	r7, [pc, #64]	; (802070c <Test_Sem_ISR+0x54>)
}

void Test_Sem_ISR(void)
{
    static rmp_cnt_t Count;
    for(Count=0;Count<10000;Count++)
 80206cc:	6023      	str	r3, [r4, #0]
    {
        RMP_Sem_Pend(&Sem_1, RMP_MAX_SLICES);
 80206ce:	4910      	ldr	r1, [pc, #64]	; (8020710 <Test_Sem_ISR+0x58>)
 80206d0:	4810      	ldr	r0, [pc, #64]	; (8020714 <Test_Sem_ISR+0x5c>)
 80206d2:	f001 fd63 	bl	802219c <RMP_Sem_Pend>
        /* Read counter here */
        End=COUNTER_READ();
 80206d6:	6a73      	ldr	r3, [r6, #36]	; 0x24
}

void Test_Sem_ISR(void)
{
    static rmp_cnt_t Count;
    for(Count=0;Count<10000;Count++)
 80206d8:	6821      	ldr	r1, [r4, #0]
 80206da:	f242 700f 	movw	r0, #9999	; 0x270f
    {
        RMP_Sem_Pend(&Sem_1, RMP_MAX_SLICES);
        /* Read counter here */
        End=COUNTER_READ();
 80206de:	005b      	lsls	r3, r3, #1
}

void Test_Sem_ISR(void)
{
    static rmp_cnt_t Count;
    for(Count=0;Count<10000;Count++)
 80206e0:	3101      	adds	r1, #1
    {
        RMP_Sem_Pend(&Sem_1, RMP_MAX_SLICES);
        /* Read counter here */
        End=COUNTER_READ();
 80206e2:	f8c8 3000 	str.w	r3, [r8]
        Total+=(rmp_tim_t)(End-Start);
 80206e6:	f8d8 3000 	ldr.w	r3, [r8]
}

void Test_Sem_ISR(void)
{
    static rmp_cnt_t Count;
    for(Count=0;Count<10000;Count++)
 80206ea:	4281      	cmp	r1, r0
    {
        RMP_Sem_Pend(&Sem_1, RMP_MAX_SLICES);
        /* Read counter here */
        End=COUNTER_READ();
        Total+=(rmp_tim_t)(End-Start);
 80206ec:	f8d5 e000 	ldr.w	lr, [r5]
 80206f0:	683a      	ldr	r2, [r7, #0]
}

void Test_Sem_ISR(void)
{
    static rmp_cnt_t Count;
    for(Count=0;Count<10000;Count++)
 80206f2:	6021      	str	r1, [r4, #0]
    {
        RMP_Sem_Pend(&Sem_1, RMP_MAX_SLICES);
        /* Read counter here */
        End=COUNTER_READ();
        Total+=(rmp_tim_t)(End-Start);
 80206f4:	4413      	add	r3, r2
 80206f6:	ebce 0303 	rsb	r3, lr, r3
 80206fa:	603b      	str	r3, [r7, #0]
}

void Test_Sem_ISR(void)
{
    static rmp_cnt_t Count;
    for(Count=0;Count<10000;Count++)
 80206fc:	dde7      	ble.n	80206ce <Test_Sem_ISR+0x16>
        RMP_Sem_Pend(&Sem_1, RMP_MAX_SLICES);
        /* Read counter here */
        End=COUNTER_READ();
        Total+=(rmp_tim_t)(End-Start);
    }
}
 80206fe:	e8bd 81f0 	ldmia.w	sp!, {r4, r5, r6, r7, r8, pc}
 8020702:	bf00      	nop
 8020704:	20020450 	.word	0x20020450
 8020708:	20028490 	.word	0x20028490
 802070c:	20028510 	.word	0x20028510
 8020710:	000186a0 	.word	0x000186a0
 8020714:	20028bc4 	.word	0x20028bc4
 8020718:	2002845c 	.word	0x2002845c

0802071c <Test_Mem_Pool>:
    *Arg1=*Arg2;
    *Arg2=Temp;
}

void Test_Mem_Pool(void)
{
 802071c:	e92d 4ff0 	stmdb	sp!, {r4, r5, r6, r7, r8, r9, sl, fp, lr}
    static rmp_u8_t Size[8];
    static rmp_ptr_t Amount[8];
    rmp_cnt_t Count;
    rmp_cnt_t Test_Count;
    
    Amount[0]=TEST_MEM_POOL/32;
 8020720:	4a15      	ldr	r2, [pc, #84]	; (8020778 <Test_Mem_Pool+0x5c>)
 8020722:	f44f 7880 	mov.w	r8, #256	; 0x100
    Amount[1]=TEST_MEM_POOL/64+16;
 8020726:	f04f 0c90 	mov.w	ip, #144	; 0x90
    Amount[2]=TEST_MEM_POOL/4;
 802072a:	f44f 6e00 	mov.w	lr, #2048	; 0x800
    Amount[3]=TEST_MEM_POOL/128+32;
 802072e:	2760      	movs	r7, #96	; 0x60
    Amount[4]=TEST_MEM_POOL/16;
 8020730:	f44f 7600 	mov.w	r6, #512	; 0x200
    Amount[5]=TEST_MEM_POOL/8+16;
 8020734:	f44f 6582 	mov.w	r5, #1040	; 0x410
    Amount[6]=TEST_MEM_POOL/128+64;
 8020738:	2480      	movs	r4, #128	; 0x80
    Amount[7]=TEST_MEM_POOL/2-64;
 802073a:	f44f 697c 	mov.w	r9, #4032	; 0xfc0
    static rmp_u8_t Size[8];
    static rmp_ptr_t Amount[8];
    rmp_cnt_t Count;
    rmp_cnt_t Test_Count;
    
    Amount[0]=TEST_MEM_POOL/32;
 802073e:	f8c2 8000 	str.w	r8, [r2]
    Amount[5]=TEST_MEM_POOL/8+16;
    Amount[6]=TEST_MEM_POOL/128+64;
    Amount[7]=TEST_MEM_POOL/2-64;
    
    /* Initialize the pool */
    Total=0;
 8020742:	2300      	movs	r3, #0
    *Arg1=*Arg2;
    *Arg2=Temp;
}

void Test_Mem_Pool(void)
{
 8020744:	b08d      	sub	sp, #52	; 0x34
    static rmp_ptr_t Amount[8];
    rmp_cnt_t Count;
    rmp_cnt_t Test_Count;
    
    Amount[0]=TEST_MEM_POOL/32;
    Amount[1]=TEST_MEM_POOL/64+16;
 8020746:	f8c2 c004 	str.w	ip, [r2, #4]
    Amount[6]=TEST_MEM_POOL/128+64;
    Amount[7]=TEST_MEM_POOL/2-64;
    
    /* Initialize the pool */
    Total=0;
    RMP_Mem_Init(Pool, TEST_MEM_POOL*sizeof(rmp_ptr_t));
 802074a:	f44f 4100 	mov.w	r1, #32768	; 0x8000
    rmp_cnt_t Count;
    rmp_cnt_t Test_Count;
    
    Amount[0]=TEST_MEM_POOL/32;
    Amount[1]=TEST_MEM_POOL/64+16;
    Amount[2]=TEST_MEM_POOL/4;
 802074e:	f8c2 e008 	str.w	lr, [r2, #8]
    Amount[3]=TEST_MEM_POOL/128+32;
 8020752:	60d7      	str	r7, [r2, #12]
    Amount[4]=TEST_MEM_POOL/16;
 8020754:	6116      	str	r6, [r2, #16]
    Amount[5]=TEST_MEM_POOL/8+16;
 8020756:	6155      	str	r5, [r2, #20]
    Amount[6]=TEST_MEM_POOL/128+64;
 8020758:	6194      	str	r4, [r2, #24]
    Amount[7]=TEST_MEM_POOL/2-64;
 802075a:	f8c2 901c 	str.w	r9, [r2, #28]
    
    /* Initialize the pool */
    Total=0;
 802075e:	4a07      	ldr	r2, [pc, #28]	; (802077c <Test_Mem_Pool+0x60>)
    RMP_Mem_Init(Pool, TEST_MEM_POOL*sizeof(rmp_ptr_t));
 8020760:	4807      	ldr	r0, [pc, #28]	; (8020780 <Test_Mem_Pool+0x64>)
    for(Test_Count=0;Test_Count<10000;Test_Count++)
 8020762:	9304      	str	r3, [sp, #16]
    Amount[5]=TEST_MEM_POOL/8+16;
    Amount[6]=TEST_MEM_POOL/128+64;
    Amount[7]=TEST_MEM_POOL/2-64;
    
    /* Initialize the pool */
    Total=0;
 8020764:	6013      	str	r3, [r2, #0]
    RMP_Mem_Init(Pool, TEST_MEM_POOL*sizeof(rmp_ptr_t));
 8020766:	f001 fff9 	bl	802275c <RMP_Mem_Init>
 802076a:	f8df a018 	ldr.w	sl, [pc, #24]	; 8020784 <Test_Mem_Pool+0x68>
 802076e:	f8df b018 	ldr.w	fp, [pc, #24]	; 8020788 <Test_Mem_Pool+0x6c>
 8020772:	f8df 8018 	ldr.w	r8, [pc, #24]	; 802078c <Test_Mem_Pool+0x70>
 8020776:	e017      	b.n	80207a8 <Test_Mem_Pool+0x8c>
 8020778:	2002849c 	.word	0x2002849c
 802077c:	20028510 	.word	0x20028510
 8020780:	20020454 	.word	0x20020454
 8020784:	20028454 	.word	0x20028454
 8020788:	20028494 	.word	0x20028494
 802078c:	20028504 	.word	0x20028504
    for(Test_Count=0;Test_Count<10000;Test_Count++)
 8020790:	9b04      	ldr	r3, [sp, #16]
            RMP_PRINTK_S("Memory test failure: ");
            RMP_PRINTK_I(Test_Count);
            RMP_PRINTK_S(" runs.\r\n");
            while(1);
        }
        RMP_Free(Pool, Mem[0]); 
 8020792:	48e1      	ldr	r0, [pc, #900]	; (8020b18 <Test_Mem_Pool+0x3fc>)
    Amount[7]=TEST_MEM_POOL/2-64;
    
    /* Initialize the pool */
    Total=0;
    RMP_Mem_Init(Pool, TEST_MEM_POOL*sizeof(rmp_ptr_t));
    for(Test_Count=0;Test_Count<10000;Test_Count++)
 8020794:	3301      	adds	r3, #1
 8020796:	461c      	mov	r4, r3
 8020798:	9304      	str	r3, [sp, #16]
            RMP_PRINTK_S("Memory test failure: ");
            RMP_PRINTK_I(Test_Count);
            RMP_PRINTK_S(" runs.\r\n");
            while(1);
        }
        RMP_Free(Pool, Mem[0]); 
 802079a:	f002 f9d9 	bl	8022b50 <RMP_Free>
    Amount[7]=TEST_MEM_POOL/2-64;
    
    /* Initialize the pool */
    Total=0;
    RMP_Mem_Init(Pool, TEST_MEM_POOL*sizeof(rmp_ptr_t));
    for(Test_Count=0;Test_Count<10000;Test_Count++)
 802079e:	f242 7310 	movw	r3, #10000	; 0x2710
 80207a2:	429c      	cmp	r4, r3
 80207a4:	f000 82ef 	beq.w	8020d86 <Test_Mem_Pool+0x66a>
 80207a8:	4bdc      	ldr	r3, [pc, #880]	; (8020b1c <Test_Mem_Pool+0x400>)
    {
        /* Random sequence and number generation */
        for(Count=0;Count<8;Count++)
        {
            Alloc[Count]=Count;
            Free[Count]=Count;
 80207aa:	4ddd      	ldr	r5, [pc, #884]	; (8020b20 <Test_Mem_Pool+0x404>)
 80207ac:	681a      	ldr	r2, [r3, #0]
}

void Swap(rmp_u8_t* Arg1, rmp_u8_t* Arg2)
{
    rmp_u8_t Temp;
    Temp=*Arg1;
 80207ae:	4bdd      	ldr	r3, [pc, #884]	; (8020b24 <Test_Mem_Pool+0x408>)
 80207b0:	f012 0f01 	tst.w	r2, #1
    {
        /* Random sequence and number generation */
        for(Count=0;Count<8;Count++)
        {
            Alloc[Count]=Count;
            Free[Count]=Count;
 80207b4:	f8cb 5000 	str.w	r5, [fp]
}

void Swap(rmp_u8_t* Arg1, rmp_u8_t* Arg2)
{
    rmp_u8_t Temp;
    Temp=*Arg1;
 80207b8:	ea4f 6413 	mov.w	r4, r3, lsr #24
    for(Test_Count=0;Test_Count<10000;Test_Count++)
    {
        /* Random sequence and number generation */
        for(Count=0;Count<8;Count++)
        {
            Alloc[Count]=Count;
 80207bc:	f1a3 3304 	sub.w	r3, r3, #67372036	; 0x4040404
            Free[Count]=Count;
 80207c0:	f105 3504 	add.w	r5, r5, #67372036	; 0x4040404
            Size[Count]=Count;
        }
        
        for(Count=7;Count>0;Count--)
        {
            Swap(&Alloc[Count], &Alloc[Rand()%(Count+1)]);
 80207c4:	4fd8      	ldr	r7, [pc, #864]	; (8020b28 <Test_Mem_Pool+0x40c>)
    for(Test_Count=0;Test_Count<10000;Test_Count++)
    {
        /* Random sequence and number generation */
        for(Count=0;Count<8;Count++)
        {
            Alloc[Count]=Count;
 80207c6:	f8ca 3000 	str.w	r3, [sl]
{
    static rmp_ptr_t LFSR=0xACE1;
    
    if((LFSR&0x01)!=0)
    {
        LFSR>>=1;
 80207ca:	ea4f 0352 	mov.w	r3, r2, lsr #1
    for(Test_Count=0;Test_Count<10000;Test_Count++)
    {
        /* Random sequence and number generation */
        for(Count=0;Count<8;Count++)
        {
            Alloc[Count]=Count;
 80207ce:	4ad5      	ldr	r2, [pc, #852]	; (8020b24 <Test_Mem_Pool+0x408>)
}

void Swap(rmp_u8_t* Arg1, rmp_u8_t* Arg2)
{
    rmp_u8_t Temp;
    Temp=*Arg1;
 80207d0:	4620      	mov	r0, r4
    {
        /* Random sequence and number generation */
        for(Count=0;Count<8;Count++)
        {
            Alloc[Count]=Count;
            Free[Count]=Count;
 80207d2:	f8cb 5004 	str.w	r5, [fp, #4]
}

void Swap(rmp_u8_t* Arg1, rmp_u8_t* Arg2)
{
    rmp_u8_t Temp;
    Temp=*Arg1;
 80207d6:	4621      	mov	r1, r4
    for(Test_Count=0;Test_Count<10000;Test_Count++)
    {
        /* Random sequence and number generation */
        for(Count=0;Count<8;Count++)
        {
            Alloc[Count]=Count;
 80207d8:	f8ca 2004 	str.w	r2, [sl, #4]
 80207dc:	f483 4234 	eor.w	r2, r3, #46080	; 0xb400
 80207e0:	bf08      	it	eq
 80207e2:	461a      	moveq	r2, r3
            Free[Count]=Count;
            Size[Count]=Count;
 80207e4:	4bce      	ldr	r3, [pc, #824]	; (8020b20 <Test_Mem_Pool+0x404>)
 80207e6:	f8c8 5004 	str.w	r5, [r8, #4]
 80207ea:	f8c8 3000 	str.w	r3, [r8]
{
    static rmp_ptr_t LFSR=0xACE1;
    
    if((LFSR&0x01)!=0)
    {
        LFSR>>=1;
 80207ee:	0853      	lsrs	r3, r2, #1
 80207f0:	f012 0f01 	tst.w	r2, #1
            Size[Count]=Count;
        }
        
        for(Count=7;Count>0;Count--)
        {
            Swap(&Alloc[Count], &Alloc[Rand()%(Count+1)]);
 80207f4:	f002 0207 	and.w	r2, r2, #7
 80207f8:	f483 4634 	eor.w	r6, r3, #46080	; 0xb400

void Swap(rmp_u8_t* Arg1, rmp_u8_t* Arg2)
{
    rmp_u8_t Temp;
    Temp=*Arg1;
    *Arg1=*Arg2;
 80207fc:	f81a 5002 	ldrb.w	r5, [sl, r2]
 8020800:	bf18      	it	ne
 8020802:	4633      	movne	r3, r6
 8020804:	f88a 5007 	strb.w	r5, [sl, #7]
 8020808:	f013 0f01 	tst.w	r3, #1
{
    static rmp_ptr_t LFSR=0xACE1;
    
    if((LFSR&0x01)!=0)
    {
        LFSR>>=1;
 802080c:	ea4f 0553 	mov.w	r5, r3, lsr #1
        }
        
        for(Count=7;Count>0;Count--)
        {
            Swap(&Alloc[Count], &Alloc[Rand()%(Count+1)]);
            Swap(&Free[Count], &Free[Rand()%(Count+1)]);
 8020810:	f003 0307 	and.w	r3, r3, #7
void Swap(rmp_u8_t* Arg1, rmp_u8_t* Arg2)
{
    rmp_u8_t Temp;
    Temp=*Arg1;
    *Arg1=*Arg2;
    *Arg2=Temp;
 8020814:	f80a 4002 	strb.w	r4, [sl, r2]
 8020818:	f485 4234 	eor.w	r2, r5, #46080	; 0xb400
 802081c:	bf08      	it	eq
 802081e:	462a      	moveq	r2, r5

void Swap(rmp_u8_t* Arg1, rmp_u8_t* Arg2)
{
    rmp_u8_t Temp;
    Temp=*Arg1;
    *Arg1=*Arg2;
 8020820:	f81b 4003 	ldrb.w	r4, [fp, r3]
 8020824:	f012 0f01 	tst.w	r2, #1
}

void Swap(rmp_u8_t* Arg1, rmp_u8_t* Arg2)
{
    rmp_u8_t Temp;
    Temp=*Arg1;
 8020828:	f89a 9006 	ldrb.w	r9, [sl, #6]
    *Arg1=*Arg2;
 802082c:	f88b 4007 	strb.w	r4, [fp, #7]
{
    static rmp_ptr_t LFSR=0xACE1;
    
    if((LFSR&0x01)!=0)
    {
        LFSR>>=1;
 8020830:	ea4f 0452 	mov.w	r4, r2, lsr #1
        
        for(Count=7;Count>0;Count--)
        {
            Swap(&Alloc[Count], &Alloc[Rand()%(Count+1)]);
            Swap(&Free[Count], &Free[Rand()%(Count+1)]);
            Swap(&Size[Count], &Size[Rand()%(Count+1)]);
 8020834:	f002 0207 	and.w	r2, r2, #7
void Swap(rmp_u8_t* Arg1, rmp_u8_t* Arg2)
{
    rmp_u8_t Temp;
    Temp=*Arg1;
    *Arg1=*Arg2;
    *Arg2=Temp;
 8020838:	f80b 0003 	strb.w	r0, [fp, r3]
 802083c:	f484 4334 	eor.w	r3, r4, #46080	; 0xb400
 8020840:	bf08      	it	eq
 8020842:	4623      	moveq	r3, r4

void Swap(rmp_u8_t* Arg1, rmp_u8_t* Arg2)
{
    rmp_u8_t Temp;
    Temp=*Arg1;
    *Arg1=*Arg2;
 8020844:	f818 0002 	ldrb.w	r0, [r8, r2]
            Size[Count]=Count;
        }
        
        for(Count=7;Count>0;Count--)
        {
            Swap(&Alloc[Count], &Alloc[Rand()%(Count+1)]);
 8020848:	4cb8      	ldr	r4, [pc, #736]	; (8020b2c <Test_Mem_Pool+0x410>)
 802084a:	f013 0f01 	tst.w	r3, #1

void Swap(rmp_u8_t* Arg1, rmp_u8_t* Arg2)
{
    rmp_u8_t Temp;
    Temp=*Arg1;
    *Arg1=*Arg2;
 802084e:	f888 0007 	strb.w	r0, [r8, #7]
{
    static rmp_ptr_t LFSR=0xACE1;
    
    if((LFSR&0x01)!=0)
    {
        LFSR>>=1;
 8020852:	ea4f 0053 	mov.w	r0, r3, lsr #1
            Size[Count]=Count;
        }
        
        for(Count=7;Count>0;Count--)
        {
            Swap(&Alloc[Count], &Alloc[Rand()%(Count+1)]);
 8020856:	fba3 4504 	umull	r4, r5, r3, r4
}

void Swap(rmp_u8_t* Arg1, rmp_u8_t* Arg2)
{
    rmp_u8_t Temp;
    Temp=*Arg1;
 802085a:	f89b 6006 	ldrb.w	r6, [fp, #6]
 802085e:	f480 4434 	eor.w	r4, r0, #46080	; 0xb400
    *Arg1=*Arg2;
    *Arg2=Temp;
 8020862:	f808 1002 	strb.w	r1, [r8, r2]
}

void Swap(rmp_u8_t* Arg1, rmp_u8_t* Arg2)
{
    rmp_u8_t Temp;
    Temp=*Arg1;
 8020866:	960a      	str	r6, [sp, #40]	; 0x28
 8020868:	bf18      	it	ne
 802086a:	4620      	movne	r0, r4
            Size[Count]=Count;
        }
        
        for(Count=7;Count>0;Count--)
        {
            Swap(&Alloc[Count], &Alloc[Rand()%(Count+1)]);
 802086c:	1b5c      	subs	r4, r3, r5
{
    static rmp_ptr_t LFSR=0xACE1;
    
    if((LFSR&0x01)!=0)
    {
        LFSR>>=1;
 802086e:	0842      	lsrs	r2, r0, #1
 8020870:	f010 0f01 	tst.w	r0, #1
            Size[Count]=Count;
        }
        
        for(Count=7;Count>0;Count--)
        {
            Swap(&Alloc[Count], &Alloc[Rand()%(Count+1)]);
 8020874:	eb05 0454 	add.w	r4, r5, r4, lsr #1
 8020878:	f482 4134 	eor.w	r1, r2, #46080	; 0xb400
 802087c:	ea4f 0494 	mov.w	r4, r4, lsr #2
 8020880:	bf18      	it	ne
 8020882:	460a      	movne	r2, r1
 8020884:	ebc4 04c4 	rsb	r4, r4, r4, lsl #3
{
    static rmp_ptr_t LFSR=0xACE1;
    
    if((LFSR&0x01)!=0)
    {
        LFSR>>=1;
 8020888:	0851      	lsrs	r1, r2, #1
 802088a:	f012 0f01 	tst.w	r2, #1
            Size[Count]=Count;
        }
        
        for(Count=7;Count>0;Count--)
        {
            Swap(&Alloc[Count], &Alloc[Rand()%(Count+1)]);
 802088e:	eba3 0404 	sub.w	r4, r3, r4
}

void Swap(rmp_u8_t* Arg1, rmp_u8_t* Arg2)
{
    rmp_u8_t Temp;
    Temp=*Arg1;
 8020892:	f898 3006 	ldrb.w	r3, [r8, #6]
 8020896:	f481 4534 	eor.w	r5, r1, #46080	; 0xb400
 802089a:	bf08      	it	eq
 802089c:	460d      	moveq	r5, r1
 802089e:	9309      	str	r3, [sp, #36]	; 0x24
{
    static rmp_ptr_t LFSR=0xACE1;
    
    if((LFSR&0x01)!=0)
    {
        LFSR>>=1;
 80208a0:	086b      	lsrs	r3, r5, #1
 80208a2:	f015 0f01 	tst.w	r5, #1
 80208a6:	f483 4634 	eor.w	r6, r3, #46080	; 0xb400
 80208aa:	bf0c      	ite	eq
 80208ac:	4619      	moveq	r1, r3
 80208ae:	4631      	movne	r1, r6
 80208b0:	084b      	lsrs	r3, r1, #1
 80208b2:	f011 0f01 	tst.w	r1, #1
 80208b6:	9105      	str	r1, [sp, #20]
 80208b8:	f483 4134 	eor.w	r1, r3, #46080	; 0xb400
 80208bc:	bf0c      	ite	eq
 80208be:	469c      	moveq	ip, r3
 80208c0:	468c      	movne	ip, r1
 80208c2:	ea4f 035c 	mov.w	r3, ip, lsr #1
 80208c6:	f01c 0f01 	tst.w	ip, #1
 80208ca:	f483 4134 	eor.w	r1, r3, #46080	; 0xb400
 80208ce:	bf18      	it	ne
 80208d0:	460b      	movne	r3, r1
 80208d2:	0859      	lsrs	r1, r3, #1
 80208d4:	f013 0f01 	tst.w	r3, #1
            Size[Count]=Count;
        }
        
        for(Count=7;Count>0;Count--)
        {
            Swap(&Alloc[Count], &Alloc[Rand()%(Count+1)]);
 80208d8:	fba7 e703 	umull	lr, r7, r7, r3
 80208dc:	f481 4e34 	eor.w	lr, r1, #46080	; 0xb400
 80208e0:	ea4f 0797 	mov.w	r7, r7, lsr #2
 80208e4:	bf18      	it	ne
 80208e6:	4671      	movne	r1, lr
 80208e8:	eb07 0787 	add.w	r7, r7, r7, lsl #2
 80208ec:	460e      	mov	r6, r1
{
    static rmp_ptr_t LFSR=0xACE1;
    
    if((LFSR&0x01)!=0)
    {
        LFSR>>=1;
 80208ee:	0849      	lsrs	r1, r1, #1
            Size[Count]=Count;
        }
        
        for(Count=7;Count>0;Count--)
        {
            Swap(&Alloc[Count], &Alloc[Rand()%(Count+1)]);
 80208f0:	1bdf      	subs	r7, r3, r7
 80208f2:	4b8f      	ldr	r3, [pc, #572]	; (8020b30 <Test_Mem_Pool+0x414>)
 80208f4:	f016 0f01 	tst.w	r6, #1
 80208f8:	9607      	str	r6, [sp, #28]
 80208fa:	fba3 e305 	umull	lr, r3, r3, r5
 80208fe:	f481 4e34 	eor.w	lr, r1, #46080	; 0xb400
 8020902:	bf08      	it	eq
 8020904:	468e      	moveq	lr, r1
 8020906:	089b      	lsrs	r3, r3, #2
 8020908:	4671      	mov	r1, lr
 802090a:	f01e 0f01 	tst.w	lr, #1
 802090e:	eb03 0343 	add.w	r3, r3, r3, lsl #1
 8020912:	f8cd e020 	str.w	lr, [sp, #32]
{
    static rmp_ptr_t LFSR=0xACE1;
    
    if((LFSR&0x01)!=0)
    {
        LFSR>>=1;
 8020916:	ea4f 0151 	mov.w	r1, r1, lsr #1

void Swap(rmp_u8_t* Arg1, rmp_u8_t* Arg2)
{
    rmp_u8_t Temp;
    Temp=*Arg1;
    *Arg1=*Arg2;
 802091a:	f81a e004 	ldrb.w	lr, [sl, r4]
            Size[Count]=Count;
        }
        
        for(Count=7;Count>0;Count--)
        {
            Swap(&Alloc[Count], &Alloc[Rand()%(Count+1)]);
 802091e:	eba5 0343 	sub.w	r3, r5, r3, lsl #1
 8020922:	f481 4534 	eor.w	r5, r1, #46080	; 0xb400

void Swap(rmp_u8_t* Arg1, rmp_u8_t* Arg2)
{
    rmp_u8_t Temp;
    Temp=*Arg1;
    *Arg1=*Arg2;
 8020926:	f88a e006 	strb.w	lr, [sl, #6]
    *Arg2=Temp;
 802092a:	f80a 9004 	strb.w	r9, [sl, r4]
 802092e:	bf18      	it	ne
 8020930:	4629      	movne	r1, r5

void Swap(rmp_u8_t* Arg1, rmp_u8_t* Arg2)
{
    rmp_u8_t Temp;
    Temp=*Arg1;
    *Arg1=*Arg2;
 8020932:	f81a 4003 	ldrb.w	r4, [sl, r3]
}

void Swap(rmp_u8_t* Arg1, rmp_u8_t* Arg2)
{
    rmp_u8_t Temp;
    Temp=*Arg1;
 8020936:	f89a 9005 	ldrb.w	r9, [sl, #5]
{
    static rmp_ptr_t LFSR=0xACE1;
    
    if((LFSR&0x01)!=0)
    {
        LFSR>>=1;
 802093a:	ea4f 0e51 	mov.w	lr, r1, lsr #1

void Swap(rmp_u8_t* Arg1, rmp_u8_t* Arg2)
{
    rmp_u8_t Temp;
    Temp=*Arg1;
    *Arg1=*Arg2;
 802093e:	4626      	mov	r6, r4
        
        for(Count=7;Count>0;Count--)
        {
            Swap(&Alloc[Count], &Alloc[Rand()%(Count+1)]);
            Swap(&Free[Count], &Free[Rand()%(Count+1)]);
            Swap(&Size[Count], &Size[Rand()%(Count+1)]);
 8020940:	4c7a      	ldr	r4, [pc, #488]	; (8020b2c <Test_Mem_Pool+0x410>)
 8020942:	f011 0f01 	tst.w	r1, #1

void Swap(rmp_u8_t* Arg1, rmp_u8_t* Arg2)
{
    rmp_u8_t Temp;
    Temp=*Arg1;
    *Arg1=*Arg2;
 8020946:	f88a 6005 	strb.w	r6, [sl, #5]
        
        for(Count=7;Count>0;Count--)
        {
            Swap(&Alloc[Count], &Alloc[Rand()%(Count+1)]);
            Swap(&Free[Count], &Free[Rand()%(Count+1)]);
            Swap(&Size[Count], &Size[Rand()%(Count+1)]);
 802094a:	fba2 4504 	umull	r4, r5, r2, r4
 802094e:	f48e 4434 	eor.w	r4, lr, #46080	; 0xb400
void Swap(rmp_u8_t* Arg1, rmp_u8_t* Arg2)
{
    rmp_u8_t Temp;
    Temp=*Arg1;
    *Arg1=*Arg2;
    *Arg2=Temp;
 8020952:	f80a 9003 	strb.w	r9, [sl, r3]
            Size[Count]=Count;
        }
        
        for(Count=7;Count>0;Count--)
        {
            Swap(&Alloc[Count], &Alloc[Rand()%(Count+1)]);
 8020956:	f001 0903 	and.w	r9, r1, #3
 802095a:	bf18      	it	ne
 802095c:	46a6      	movne	lr, r4
            Swap(&Free[Count], &Free[Rand()%(Count+1)]);
            Swap(&Size[Count], &Size[Rand()%(Count+1)]);
 802095e:	1b53      	subs	r3, r2, r5
            Size[Count]=Count;
        }
        
        for(Count=7;Count>0;Count--)
        {
            Swap(&Alloc[Count], &Alloc[Rand()%(Count+1)]);
 8020960:	f8cd 9004 	str.w	r9, [sp, #4]
            Swap(&Free[Count], &Free[Rand()%(Count+1)]);
 8020964:	4c72      	ldr	r4, [pc, #456]	; (8020b30 <Test_Mem_Pool+0x414>)
            Swap(&Size[Count], &Size[Rand()%(Count+1)]);
 8020966:	eb05 0353 	add.w	r3, r5, r3, lsr #1
        }
        
        for(Count=7;Count>0;Count--)
        {
            Swap(&Alloc[Count], &Alloc[Rand()%(Count+1)]);
            Swap(&Free[Count], &Free[Rand()%(Count+1)]);
 802096a:	9905      	ldr	r1, [sp, #20]
 802096c:	f01e 0f01 	tst.w	lr, #1
 8020970:	4d6e      	ldr	r5, [pc, #440]	; (8020b2c <Test_Mem_Pool+0x410>)
 8020972:	fba4 4901 	umull	r4, r9, r4, r1
{
    static rmp_ptr_t LFSR=0xACE1;
    
    if((LFSR&0x01)!=0)
    {
        LFSR>>=1;
 8020976:	ea4f 045e 	mov.w	r4, lr, lsr #1
        
        for(Count=7;Count>0;Count--)
        {
            Swap(&Alloc[Count], &Alloc[Rand()%(Count+1)]);
            Swap(&Free[Count], &Free[Rand()%(Count+1)]);
            Swap(&Size[Count], &Size[Rand()%(Count+1)]);
 802097a:	ea4f 0193 	mov.w	r1, r3, lsr #2
        }
        
        for(Count=7;Count>0;Count--)
        {
            Swap(&Alloc[Count], &Alloc[Rand()%(Count+1)]);
            Swap(&Free[Count], &Free[Rand()%(Count+1)]);
 802097e:	fba0 5605 	umull	r5, r6, r0, r5
 8020982:	f484 4334 	eor.w	r3, r4, #46080	; 0xb400
 8020986:	ea4f 0999 	mov.w	r9, r9, lsr #2
            Swap(&Size[Count], &Size[Rand()%(Count+1)]);
 802098a:	ebc1 01c1 	rsb	r1, r1, r1, lsl #3
 802098e:	bf18      	it	ne
 8020990:	461c      	movne	r4, r3
        }
        
        for(Count=7;Count>0;Count--)
        {
            Swap(&Alloc[Count], &Alloc[Rand()%(Count+1)]);
            Swap(&Free[Count], &Free[Rand()%(Count+1)]);
 8020992:	eb09 0949 	add.w	r9, r9, r9, lsl #1
            Swap(&Size[Count], &Size[Rand()%(Count+1)]);
 8020996:	1a51      	subs	r1, r2, r1
{
    static rmp_ptr_t LFSR=0xACE1;
    
    if((LFSR&0x01)!=0)
    {
        LFSR>>=1;
 8020998:	0863      	lsrs	r3, r4, #1
 802099a:	f014 0f01 	tst.w	r4, #1
        
        for(Count=7;Count>0;Count--)
        {
            Swap(&Alloc[Count], &Alloc[Rand()%(Count+1)]);
            Swap(&Free[Count], &Free[Rand()%(Count+1)]);
            Swap(&Size[Count], &Size[Rand()%(Count+1)]);
 802099e:	f004 0403 	and.w	r4, r4, #3
        }
        
        for(Count=7;Count>0;Count--)
        {
            Swap(&Alloc[Count], &Alloc[Rand()%(Count+1)]);
            Swap(&Free[Count], &Free[Rand()%(Count+1)]);
 80209a2:	e9cd 5602 	strd	r5, r6, [sp, #8]
 80209a6:	9a03      	ldr	r2, [sp, #12]
 80209a8:	f00e 0503 	and.w	r5, lr, #3
 80209ac:	9e05      	ldr	r6, [sp, #20]
 80209ae:	eba0 0202 	sub.w	r2, r0, r2
 80209b2:	9506      	str	r5, [sp, #24]
 80209b4:	eba6 0949 	sub.w	r9, r6, r9, lsl #1
 80209b8:	f483 4534 	eor.w	r5, r3, #46080	; 0xb400
 80209bc:	9e03      	ldr	r6, [sp, #12]

void Swap(rmp_u8_t* Arg1, rmp_u8_t* Arg2)
{
    rmp_u8_t Temp;
    Temp=*Arg1;
    *Arg1=*Arg2;
 80209be:	f818 e001 	ldrb.w	lr, [r8, r1]
 80209c2:	bf18      	it	ne
 80209c4:	462b      	movne	r3, r5
        }
        
        for(Count=7;Count>0;Count--)
        {
            Swap(&Alloc[Count], &Alloc[Rand()%(Count+1)]);
            Swap(&Free[Count], &Free[Rand()%(Count+1)]);
 80209c6:	eb06 0252 	add.w	r2, r6, r2, lsr #1
void Swap(rmp_u8_t* Arg1, rmp_u8_t* Arg2)
{
    rmp_u8_t Temp;
    Temp=*Arg1;
    *Arg1=*Arg2;
    *Arg2=Temp;
 80209ca:	f89d 5024 	ldrb.w	r5, [sp, #36]	; 0x24

void Swap(rmp_u8_t* Arg1, rmp_u8_t* Arg2)
{
    rmp_u8_t Temp;
    Temp=*Arg1;
    *Arg1=*Arg2;
 80209ce:	f888 e006 	strb.w	lr, [r8, #6]
{
    static rmp_ptr_t LFSR=0xACE1;
    
    if((LFSR&0x01)!=0)
    {
        LFSR>>=1;
 80209d2:	085e      	lsrs	r6, r3, #1
void Swap(rmp_u8_t* Arg1, rmp_u8_t* Arg2)
{
    rmp_u8_t Temp;
    Temp=*Arg1;
    *Arg1=*Arg2;
    *Arg2=Temp;
 80209d4:	f808 5001 	strb.w	r5, [r8, r1]
        }
        
        for(Count=7;Count>0;Count--)
        {
            Swap(&Alloc[Count], &Alloc[Rand()%(Count+1)]);
            Swap(&Free[Count], &Free[Rand()%(Count+1)]);
 80209d8:	0892      	lsrs	r2, r2, #2
            Swap(&Size[Count], &Size[Rand()%(Count+1)]);
 80209da:	4d55      	ldr	r5, [pc, #340]	; (8020b30 <Test_Mem_Pool+0x414>)
 80209dc:	f013 0f01 	tst.w	r3, #1
 80209e0:	f486 4134 	eor.w	r1, r6, #46080	; 0xb400
        }
        
        for(Count=7;Count>0;Count--)
        {
            Swap(&Alloc[Count], &Alloc[Rand()%(Count+1)]);
            Swap(&Free[Count], &Free[Rand()%(Count+1)]);
 80209e4:	ebc2 02c2 	rsb	r2, r2, r2, lsl #3
            Swap(&Size[Count], &Size[Rand()%(Count+1)]);
 80209e8:	fba5 e50c 	umull	lr, r5, r5, ip
        }
        
        for(Count=7;Count>0;Count--)
        {
            Swap(&Alloc[Count], &Alloc[Rand()%(Count+1)]);
            Swap(&Free[Count], &Free[Rand()%(Count+1)]);
 80209ec:	eba0 0202 	sub.w	r2, r0, r2
            Swap(&Size[Count], &Size[Rand()%(Count+1)]);
 80209f0:	940b      	str	r4, [sp, #44]	; 0x2c
 80209f2:	bf0c      	ite	eq
 80209f4:	4630      	moveq	r0, r6
 80209f6:	4608      	movne	r0, r1
 80209f8:	08ac      	lsrs	r4, r5, #2
        }
        
        for(Count=7;Count>0;Count--)
        {
            Swap(&Alloc[Count], &Alloc[Rand()%(Count+1)]);
            Swap(&Free[Count], &Free[Rand()%(Count+1)]);
 80209fa:	4e4b      	ldr	r6, [pc, #300]	; (8020b28 <Test_Mem_Pool+0x40c>)
            Swap(&Size[Count], &Size[Rand()%(Count+1)]);
 80209fc:	4625      	mov	r5, r4
 80209fe:	4604      	mov	r4, r0

void Swap(rmp_u8_t* Arg1, rmp_u8_t* Arg2)
{
    rmp_u8_t Temp;
    Temp=*Arg1;
    *Arg1=*Arg2;
 8020a00:	f81b 0002 	ldrb.w	r0, [fp, r2]
{
    static rmp_ptr_t LFSR=0xACE1;
    
    if((LFSR&0x01)!=0)
    {
        LFSR>>=1;
 8020a04:	0861      	lsrs	r1, r4, #1
 8020a06:	f014 0f01 	tst.w	r4, #1
 8020a0a:	9409      	str	r4, [sp, #36]	; 0x24
        
        for(Count=7;Count>0;Count--)
        {
            Swap(&Alloc[Count], &Alloc[Rand()%(Count+1)]);
            Swap(&Free[Count], &Free[Rand()%(Count+1)]);
            Swap(&Size[Count], &Size[Rand()%(Count+1)]);
 8020a0c:	eb05 0545 	add.w	r5, r5, r5, lsl #1
        }
        
        for(Count=7;Count>0;Count--)
        {
            Swap(&Alloc[Count], &Alloc[Rand()%(Count+1)]);
            Swap(&Free[Count], &Free[Rand()%(Count+1)]);
 8020a10:	9c07      	ldr	r4, [sp, #28]
            Swap(&Size[Count], &Size[Rand()%(Count+1)]);
 8020a12:	ebac 0545 	sub.w	r5, ip, r5, lsl #1

void Swap(rmp_u8_t* Arg1, rmp_u8_t* Arg2)
{
    rmp_u8_t Temp;
    Temp=*Arg1;
    *Arg1=*Arg2;
 8020a16:	f88b 0006 	strb.w	r0, [fp, #6]
        }
        
        for(Count=7;Count>0;Count--)
        {
            Swap(&Alloc[Count], &Alloc[Rand()%(Count+1)]);
            Swap(&Free[Count], &Free[Rand()%(Count+1)]);
 8020a1a:	46a6      	mov	lr, r4

void Swap(rmp_u8_t* Arg1, rmp_u8_t* Arg2)
{
    rmp_u8_t Temp;
    Temp=*Arg1;
    *Arg1=*Arg2;
 8020a1c:	f81a c007 	ldrb.w	ip, [sl, r7]
    *Arg2=Temp;
 8020a20:	f89d 0028 	ldrb.w	r0, [sp, #40]	; 0x28
        }
        
        for(Count=7;Count>0;Count--)
        {
            Swap(&Alloc[Count], &Alloc[Rand()%(Count+1)]);
            Swap(&Free[Count], &Free[Rand()%(Count+1)]);
 8020a24:	fba6 e40e 	umull	lr, r4, r6, lr
 8020a28:	f481 4634 	eor.w	r6, r1, #46080	; 0xb400
 8020a2c:	bf08      	it	eq
 8020a2e:	460e      	moveq	r6, r1
 8020a30:	9907      	ldr	r1, [sp, #28]
 8020a32:	08a4      	lsrs	r4, r4, #2
void Swap(rmp_u8_t* Arg1, rmp_u8_t* Arg2)
{
    rmp_u8_t Temp;
    Temp=*Arg1;
    *Arg1=*Arg2;
    *Arg2=Temp;
 8020a34:	f80b 0002 	strb.w	r0, [fp, r2]
}

void Swap(rmp_u8_t* Arg1, rmp_u8_t* Arg2)
{
    rmp_u8_t Temp;
    Temp=*Arg1;
 8020a38:	f89b 2005 	ldrb.w	r2, [fp, #5]
 8020a3c:	f016 0f01 	tst.w	r6, #1
        }
        
        for(Count=7;Count>0;Count--)
        {
            Swap(&Alloc[Count], &Alloc[Rand()%(Count+1)]);
            Swap(&Free[Count], &Free[Rand()%(Count+1)]);
 8020a40:	eb04 0484 	add.w	r4, r4, r4, lsl #2
            Swap(&Size[Count], &Size[Rand()%(Count+1)]);
 8020a44:	9505      	str	r5, [sp, #20]
}

void Swap(rmp_u8_t* Arg1, rmp_u8_t* Arg2)
{
    rmp_u8_t Temp;
    Temp=*Arg1;
 8020a46:	920a      	str	r2, [sp, #40]	; 0x28
{
    static rmp_ptr_t LFSR=0xACE1;
    
    if((LFSR&0x01)!=0)
    {
        LFSR>>=1;
 8020a48:	ea4f 0256 	mov.w	r2, r6, lsr #1
        }
        
        for(Count=7;Count>0;Count--)
        {
            Swap(&Alloc[Count], &Alloc[Rand()%(Count+1)]);
            Swap(&Free[Count], &Free[Rand()%(Count+1)]);
 8020a4c:	eba1 0404 	sub.w	r4, r1, r4
}

void Swap(rmp_u8_t* Arg1, rmp_u8_t* Arg2)
{
    rmp_u8_t Temp;
    Temp=*Arg1;
 8020a50:	f89a 1004 	ldrb.w	r1, [sl, #4]
    *Arg1=*Arg2;
 8020a54:	f88a c004 	strb.w	ip, [sl, #4]
    *Arg2=Temp;
 8020a58:	f80a 1007 	strb.w	r1, [sl, r7]
            Size[Count]=Count;
        }
        
        for(Count=7;Count>0;Count--)
        {
            Swap(&Alloc[Count], &Alloc[Rand()%(Count+1)]);
 8020a5c:	4f34      	ldr	r7, [pc, #208]	; (8020b30 <Test_Mem_Pool+0x414>)
            Swap(&Free[Count], &Free[Rand()%(Count+1)]);
            Swap(&Size[Count], &Size[Rand()%(Count+1)]);
 8020a5e:	9808      	ldr	r0, [sp, #32]
            Size[Count]=Count;
        }
        
        for(Count=7;Count>0;Count--)
        {
            Swap(&Alloc[Count], &Alloc[Rand()%(Count+1)]);
 8020a60:	fba7 7103 	umull	r7, r1, r7, r3
            Swap(&Free[Count], &Free[Rand()%(Count+1)]);
            Swap(&Size[Count], &Size[Rand()%(Count+1)]);
 8020a64:	4d30      	ldr	r5, [pc, #192]	; (8020b28 <Test_Mem_Pool+0x40c>)
            Size[Count]=Count;
        }
        
        for(Count=7;Count>0;Count--)
        {
            Swap(&Alloc[Count], &Alloc[Rand()%(Count+1)]);
 8020a66:	ea4f 0151 	mov.w	r1, r1, lsr #1
            Swap(&Free[Count], &Free[Rand()%(Count+1)]);
            Swap(&Size[Count], &Size[Rand()%(Count+1)]);
 8020a6a:	fba5 e000 	umull	lr, r0, r5, r0
 8020a6e:	f482 4e34 	eor.w	lr, r2, #46080	; 0xb400
 8020a72:	bf08      	it	eq
 8020a74:	4696      	moveq	lr, r2
            Size[Count]=Count;
        }
        
        for(Count=7;Count>0;Count--)
        {
            Swap(&Alloc[Count], &Alloc[Rand()%(Count+1)]);
 8020a76:	9102      	str	r1, [sp, #8]
            Swap(&Free[Count], &Free[Rand()%(Count+1)]);
            Swap(&Size[Count], &Size[Rand()%(Count+1)]);
 8020a78:	0880      	lsrs	r0, r0, #2
            Size[Count]=Count;
        }
        
        for(Count=7;Count>0;Count--)
        {
            Swap(&Alloc[Count], &Alloc[Rand()%(Count+1)]);
 8020a7a:	f00e 0701 	and.w	r7, lr, #1

void Swap(rmp_u8_t* Arg1, rmp_u8_t* Arg2)
{
    rmp_u8_t Temp;
    Temp=*Arg1;
    *Arg1=*Arg2;
 8020a7e:	9901      	ldr	r1, [sp, #4]
{
    static rmp_ptr_t LFSR=0xACE1;
    
    if((LFSR&0x01)!=0)
    {
        LFSR>>=1;
 8020a80:	ea4f 025e 	mov.w	r2, lr, lsr #1
}

void Swap(rmp_u8_t* Arg1, rmp_u8_t* Arg2)
{
    rmp_u8_t Temp;
    Temp=*Arg1;
 8020a84:	f89a e003 	ldrb.w	lr, [sl, #3]
    *Arg1=*Arg2;
 8020a88:	f81a c001 	ldrb.w	ip, [sl, r1]
            Size[Count]=Count;
        }
        
        for(Count=7;Count>0;Count--)
        {
            Swap(&Alloc[Count], &Alloc[Rand()%(Count+1)]);
 8020a8c:	463d      	mov	r5, r7
 8020a8e:	9902      	ldr	r1, [sp, #8]
            Swap(&Free[Count], &Free[Rand()%(Count+1)]);
            Swap(&Size[Count], &Size[Rand()%(Count+1)]);
 8020a90:	eb00 0080 	add.w	r0, r0, r0, lsl #2
 8020a94:	9f08      	ldr	r7, [sp, #32]
            Size[Count]=Count;
        }
        
        for(Count=7;Count>0;Count--)
        {
            Swap(&Alloc[Count], &Alloc[Rand()%(Count+1)]);
 8020a96:	eb01 0141 	add.w	r1, r1, r1, lsl #1
 8020a9a:	9507      	str	r5, [sp, #28]
            Swap(&Free[Count], &Free[Rand()%(Count+1)]);
            Swap(&Size[Count], &Size[Rand()%(Count+1)]);
 8020a9c:	1a38      	subs	r0, r7, r0
 8020a9e:	f482 4734 	eor.w	r7, r2, #46080	; 0xb400
            Size[Count]=Count;
        }
        
        for(Count=7;Count>0;Count--)
        {
            Swap(&Alloc[Count], &Alloc[Rand()%(Count+1)]);
 8020aa2:	1a59      	subs	r1, r3, r1

void Swap(rmp_u8_t* Arg1, rmp_u8_t* Arg2)
{
    rmp_u8_t Temp;
    Temp=*Arg1;
    *Arg1=*Arg2;
 8020aa4:	f88a c003 	strb.w	ip, [sl, #3]
 8020aa8:	2d00      	cmp	r5, #0
 8020aaa:	bf08      	it	eq
 8020aac:	4617      	moveq	r7, r2
        }
        
        for(Count=7;Count>0;Count--)
        {
            Swap(&Alloc[Count], &Alloc[Rand()%(Count+1)]);
            Swap(&Free[Count], &Free[Rand()%(Count+1)]);
 8020aae:	9a09      	ldr	r2, [sp, #36]	; 0x24
            Size[Count]=Count;
        }
        
        for(Count=7;Count>0;Count--)
        {
            Swap(&Alloc[Count], &Alloc[Rand()%(Count+1)]);
 8020ab0:	9102      	str	r1, [sp, #8]
            Swap(&Free[Count], &Free[Rand()%(Count+1)]);
 8020ab2:	4615      	mov	r5, r2
void Swap(rmp_u8_t* Arg1, rmp_u8_t* Arg2)
{
    rmp_u8_t Temp;
    Temp=*Arg1;
    *Arg1=*Arg2;
    *Arg2=Temp;
 8020ab4:	9901      	ldr	r1, [sp, #4]
        }
        
        for(Count=7;Count>0;Count--)
        {
            Swap(&Alloc[Count], &Alloc[Rand()%(Count+1)]);
            Swap(&Free[Count], &Free[Rand()%(Count+1)]);
 8020ab6:	4a1e      	ldr	r2, [pc, #120]	; (8020b30 <Test_Mem_Pool+0x414>)
void Swap(rmp_u8_t* Arg1, rmp_u8_t* Arg2)
{
    rmp_u8_t Temp;
    Temp=*Arg1;
    *Arg1=*Arg2;
    *Arg2=Temp;
 8020ab8:	f80a e001 	strb.w	lr, [sl, r1]
        }
        
        for(Count=7;Count>0;Count--)
        {
            Swap(&Alloc[Count], &Alloc[Rand()%(Count+1)]);
            Swap(&Free[Count], &Free[Rand()%(Count+1)]);
 8020abc:	fba2 5205 	umull	r5, r2, r2, r5

void Swap(rmp_u8_t* Arg1, rmp_u8_t* Arg2)
{
    rmp_u8_t Temp;
    Temp=*Arg1;
    *Arg1=*Arg2;
 8020ac0:	f81b e009 	ldrb.w	lr, [fp, r9]
        
        for(Count=7;Count>0;Count--)
        {
            Swap(&Alloc[Count], &Alloc[Rand()%(Count+1)]);
            Swap(&Free[Count], &Free[Rand()%(Count+1)]);
            Swap(&Size[Count], &Size[Rand()%(Count+1)]);
 8020ac4:	4b1a      	ldr	r3, [pc, #104]	; (8020b30 <Test_Mem_Pool+0x414>)

void Swap(rmp_u8_t* Arg1, rmp_u8_t* Arg2)
{
    rmp_u8_t Temp;
    Temp=*Arg1;
    *Arg1=*Arg2;
 8020ac6:	f88b e005 	strb.w	lr, [fp, #5]
        }
        
        for(Count=7;Count>0;Count--)
        {
            Swap(&Alloc[Count], &Alloc[Rand()%(Count+1)]);
            Swap(&Free[Count], &Free[Rand()%(Count+1)]);
 8020aca:	0852      	lsrs	r2, r2, #1
{
    static rmp_ptr_t LFSR=0xACE1;
    
    if((LFSR&0x01)!=0)
    {
        LFSR>>=1;
 8020acc:	ea4f 0e57 	mov.w	lr, r7, lsr #1
        
        for(Count=7;Count>0;Count--)
        {
            Swap(&Alloc[Count], &Alloc[Rand()%(Count+1)]);
            Swap(&Free[Count], &Free[Rand()%(Count+1)]);
            Swap(&Size[Count], &Size[Rand()%(Count+1)]);
 8020ad0:	fba3 c306 	umull	ip, r3, r3, r6
        }
        
        for(Count=7;Count>0;Count--)
        {
            Swap(&Alloc[Count], &Alloc[Rand()%(Count+1)]);
            Swap(&Free[Count], &Free[Rand()%(Count+1)]);
 8020ad4:	f007 0701 	and.w	r7, r7, #1

void Swap(rmp_u8_t* Arg1, rmp_u8_t* Arg2)
{
    rmp_u8_t Temp;
    Temp=*Arg1;
    *Arg1=*Arg2;
 8020ad8:	9d05      	ldr	r5, [sp, #20]
        
        for(Count=7;Count>0;Count--)
        {
            Swap(&Alloc[Count], &Alloc[Rand()%(Count+1)]);
            Swap(&Free[Count], &Free[Rand()%(Count+1)]);
            Swap(&Size[Count], &Size[Rand()%(Count+1)]);
 8020ada:	085b      	lsrs	r3, r3, #1
void Swap(rmp_u8_t* Arg1, rmp_u8_t* Arg2)
{
    rmp_u8_t Temp;
    Temp=*Arg1;
    *Arg1=*Arg2;
    *Arg2=Temp;
 8020adc:	f89d 1028 	ldrb.w	r1, [sp, #40]	; 0x28
        }
        
        for(Count=7;Count>0;Count--)
        {
            Swap(&Alloc[Count], &Alloc[Rand()%(Count+1)]);
            Swap(&Free[Count], &Free[Rand()%(Count+1)]);
 8020ae0:	9701      	str	r7, [sp, #4]
 8020ae2:	eb02 0242 	add.w	r2, r2, r2, lsl #1
 8020ae6:	9f09      	ldr	r7, [sp, #36]	; 0x24
            Swap(&Size[Count], &Size[Rand()%(Count+1)]);
 8020ae8:	eb03 0343 	add.w	r3, r3, r3, lsl #1

void Swap(rmp_u8_t* Arg1, rmp_u8_t* Arg2)
{
    rmp_u8_t Temp;
    Temp=*Arg1;
    *Arg1=*Arg2;
 8020aec:	f818 c005 	ldrb.w	ip, [r8, r5]
        }
        
        for(Count=7;Count>0;Count--)
        {
            Swap(&Alloc[Count], &Alloc[Rand()%(Count+1)]);
            Swap(&Free[Count], &Free[Rand()%(Count+1)]);
 8020af0:	1aba      	subs	r2, r7, r2
}

void Swap(rmp_u8_t* Arg1, rmp_u8_t* Arg2)
{
    rmp_u8_t Temp;
    Temp=*Arg1;
 8020af2:	f898 7005 	ldrb.w	r7, [r8, #5]
        
        for(Count=7;Count>0;Count--)
        {
            Swap(&Alloc[Count], &Alloc[Rand()%(Count+1)]);
            Swap(&Free[Count], &Free[Rand()%(Count+1)]);
            Swap(&Size[Count], &Size[Rand()%(Count+1)]);
 8020af6:	1af3      	subs	r3, r6, r3

void Swap(rmp_u8_t* Arg1, rmp_u8_t* Arg2)
{
    rmp_u8_t Temp;
    Temp=*Arg1;
    *Arg1=*Arg2;
 8020af8:	f888 c005 	strb.w	ip, [r8, #5]
 8020afc:	f48e 4634 	eor.w	r6, lr, #46080	; 0xb400
    *Arg2=Temp;
 8020b00:	f808 7005 	strb.w	r7, [r8, r5]
 8020b04:	9f01      	ldr	r7, [sp, #4]
 8020b06:	f80b 1009 	strb.w	r1, [fp, r9]
 8020b0a:	2f00      	cmp	r7, #0
 8020b0c:	bf0c      	ite	eq
 8020b0e:	46f4      	moveq	ip, lr
 8020b10:	46b4      	movne	ip, r6

void Swap(rmp_u8_t* Arg1, rmp_u8_t* Arg2)
{
    rmp_u8_t Temp;
    Temp=*Arg1;
    *Arg1=*Arg2;
 8020b12:	f81b 9004 	ldrb.w	r9, [fp, r4]
 8020b16:	e00d      	b.n	8020b34 <Test_Mem_Pool+0x418>
 8020b18:	20020454 	.word	0x20020454
 8020b1c:	20020000 	.word	0x20020000
 8020b20:	03020100 	.word	0x03020100
 8020b24:	07060504 	.word	0x07060504
 8020b28:	cccccccd 	.word	0xcccccccd
 8020b2c:	24924925 	.word	0x24924925
 8020b30:	aaaaaaab 	.word	0xaaaaaaab
 8020b34:	f818 5000 	ldrb.w	r5, [r8, r0]
}

void Swap(rmp_u8_t* Arg1, rmp_u8_t* Arg2)
{
    rmp_u8_t Temp;
    Temp=*Arg1;
 8020b38:	f89b 1004 	ldrb.w	r1, [fp, #4]
 8020b3c:	f898 6004 	ldrb.w	r6, [r8, #4]
    *Arg1=*Arg2;
 8020b40:	f88b 9004 	strb.w	r9, [fp, #4]
        
        for(Count=7;Count>0;Count--)
        {
            Swap(&Alloc[Count], &Alloc[Rand()%(Count+1)]);
            Swap(&Free[Count], &Free[Rand()%(Count+1)]);
            Swap(&Size[Count], &Size[Rand()%(Count+1)]);
 8020b44:	f00c 0901 	and.w	r9, ip, #1
void Swap(rmp_u8_t* Arg1, rmp_u8_t* Arg2)
{
    rmp_u8_t Temp;
    Temp=*Arg1;
    *Arg1=*Arg2;
    *Arg2=Temp;
 8020b48:	f80b 1004 	strb.w	r1, [fp, r4]

void Swap(rmp_u8_t* Arg1, rmp_u8_t* Arg2)
{
    rmp_u8_t Temp;
    Temp=*Arg1;
    *Arg1=*Arg2;
 8020b4c:	f888 5004 	strb.w	r5, [r8, #4]
 8020b50:	9906      	ldr	r1, [sp, #24]
    *Arg2=Temp;
 8020b52:	f808 6000 	strb.w	r6, [r8, r0]

void Swap(rmp_u8_t* Arg1, rmp_u8_t* Arg2)
{
    rmp_u8_t Temp;
    Temp=*Arg1;
    *Arg1=*Arg2;
 8020b56:	9e0b      	ldr	r6, [sp, #44]	; 0x2c
 8020b58:	f81b 7001 	ldrb.w	r7, [fp, r1]
}

void Swap(rmp_u8_t* Arg1, rmp_u8_t* Arg2)
{
    rmp_u8_t Temp;
    Temp=*Arg1;
 8020b5c:	f89b 4003 	ldrb.w	r4, [fp, #3]
    *Arg1=*Arg2;
 8020b60:	f818 5006 	ldrb.w	r5, [r8, r6]
}

void Swap(rmp_u8_t* Arg1, rmp_u8_t* Arg2)
{
    rmp_u8_t Temp;
    Temp=*Arg1;
 8020b64:	f898 0003 	ldrb.w	r0, [r8, #3]
    *Arg1=*Arg2;
 8020b68:	f88b 7003 	strb.w	r7, [fp, #3]
 8020b6c:	f888 5003 	strb.w	r5, [r8, #3]
    *Arg2=Temp;
 8020b70:	f80b 4001 	strb.w	r4, [fp, r1]

void Swap(rmp_u8_t* Arg1, rmp_u8_t* Arg2)
{
    rmp_u8_t Temp;
    Temp=*Arg1;
    *Arg1=*Arg2;
 8020b74:	9902      	ldr	r1, [sp, #8]
 8020b76:	f81b 7002 	ldrb.w	r7, [fp, r2]
 8020b7a:	f81a e001 	ldrb.w	lr, [sl, r1]
    *Arg2=Temp;
 8020b7e:	f808 0006 	strb.w	r0, [r8, r6]
}

void Swap(rmp_u8_t* Arg1, rmp_u8_t* Arg2)
{
    rmp_u8_t Temp;
    Temp=*Arg1;
 8020b82:	f89b 5002 	ldrb.w	r5, [fp, #2]
 8020b86:	f89a 6002 	ldrb.w	r6, [sl, #2]
    *Arg1=*Arg2;
 8020b8a:	f88b 7002 	strb.w	r7, [fp, #2]
 8020b8e:	9f07      	ldr	r7, [sp, #28]
 8020b90:	f88a e002 	strb.w	lr, [sl, #2]
 8020b94:	f818 4003 	ldrb.w	r4, [r8, r3]
    *Arg2=Temp;
 8020b98:	f80b 5002 	strb.w	r5, [fp, r2]
 8020b9c:	f80a 6001 	strb.w	r6, [sl, r1]
}

void Swap(rmp_u8_t* Arg1, rmp_u8_t* Arg2)
{
    rmp_u8_t Temp;
    Temp=*Arg1;
 8020ba0:	f898 0002 	ldrb.w	r0, [r8, #2]
    *Arg1=*Arg2;
 8020ba4:	f81a 6007 	ldrb.w	r6, [sl, r7]
}

void Swap(rmp_u8_t* Arg1, rmp_u8_t* Arg2)
{
    rmp_u8_t Temp;
    Temp=*Arg1;
 8020ba8:	f89a 1001 	ldrb.w	r1, [sl, #1]
    *Arg1=*Arg2;
 8020bac:	9a01      	ldr	r2, [sp, #4]
 8020bae:	f888 4002 	strb.w	r4, [r8, #2]
 8020bb2:	f81b 5002 	ldrb.w	r5, [fp, r2]
    *Arg2=Temp;
 8020bb6:	f808 0003 	strb.w	r0, [r8, r3]
}

void Swap(rmp_u8_t* Arg1, rmp_u8_t* Arg2)
{
    rmp_u8_t Temp;
    Temp=*Arg1;
 8020bba:	f89b 2001 	ldrb.w	r2, [fp, #1]
    *Arg1=*Arg2;
 8020bbe:	f818 0009 	ldrb.w	r0, [r8, r9]
}

void Swap(rmp_u8_t* Arg1, rmp_u8_t* Arg2)
{
    rmp_u8_t Temp;
    Temp=*Arg1;
 8020bc2:	f898 3001 	ldrb.w	r3, [r8, #1]
    *Arg1=*Arg2;
 8020bc6:	f88a 6001 	strb.w	r6, [sl, #1]
    *Arg2=Temp;
 8020bca:	f80a 1007 	strb.w	r1, [sl, r7]
 8020bce:	9f01      	ldr	r7, [sp, #4]

void Swap(rmp_u8_t* Arg1, rmp_u8_t* Arg2)
{
    rmp_u8_t Temp;
    Temp=*Arg1;
    *Arg1=*Arg2;
 8020bd0:	f88b 5001 	strb.w	r5, [fp, #1]
 8020bd4:	f888 0001 	strb.w	r0, [r8, #1]
    *Arg2=Temp;
 8020bd8:	f80b 2007 	strb.w	r2, [fp, r7]
 8020bdc:	f808 3009 	strb.w	r3, [r8, r9]
            Swap(&Alloc[Count], &Alloc[Rand()%(Count+1)]);
            Swap(&Free[Count], &Free[Rand()%(Count+1)]);
            Swap(&Size[Count], &Size[Rand()%(Count+1)]);
        }
        
        Start=COUNTER_READ();
 8020be0:	f04f 4380 	mov.w	r3, #1073741824	; 0x40000000
 8020be4:	4a71      	ldr	r2, [pc, #452]	; (8020dac <Test_Mem_Pool+0x690>)
        /* Allocation tests */
        Mem[Alloc[0]]=RMP_Malloc(Pool, Amount[Size[0]]);
 8020be6:	4972      	ldr	r1, [pc, #456]	; (8020db0 <Test_Mem_Pool+0x694>)
 8020be8:	f8c2 c000 	str.w	ip, [r2]
            Swap(&Alloc[Count], &Alloc[Rand()%(Count+1)]);
            Swap(&Free[Count], &Free[Rand()%(Count+1)]);
            Swap(&Size[Count], &Size[Rand()%(Count+1)]);
        }
        
        Start=COUNTER_READ();
 8020bec:	6a5b      	ldr	r3, [r3, #36]	; 0x24
        /* Allocation tests */
        Mem[Alloc[0]]=RMP_Malloc(Pool, Amount[Size[0]]);
 8020bee:	f898 2000 	ldrb.w	r2, [r8]
            Swap(&Alloc[Count], &Alloc[Rand()%(Count+1)]);
            Swap(&Free[Count], &Free[Rand()%(Count+1)]);
            Swap(&Size[Count], &Size[Rand()%(Count+1)]);
        }
        
        Start=COUNTER_READ();
 8020bf2:	005b      	lsls	r3, r3, #1
        /* Allocation tests */
        Mem[Alloc[0]]=RMP_Malloc(Pool, Amount[Size[0]]);
 8020bf4:	486f      	ldr	r0, [pc, #444]	; (8020db4 <Test_Mem_Pool+0x698>)
 8020bf6:	f851 1022 	ldr.w	r1, [r1, r2, lsl #2]
            Swap(&Alloc[Count], &Alloc[Rand()%(Count+1)]);
            Swap(&Free[Count], &Free[Rand()%(Count+1)]);
            Swap(&Size[Count], &Size[Rand()%(Count+1)]);
        }
        
        Start=COUNTER_READ();
 8020bfa:	4a6f      	ldr	r2, [pc, #444]	; (8020db8 <Test_Mem_Pool+0x69c>)
        /* Allocation tests */
        Mem[Alloc[0]]=RMP_Malloc(Pool, Amount[Size[0]]);
 8020bfc:	f89a 4000 	ldrb.w	r4, [sl]
            Swap(&Alloc[Count], &Alloc[Rand()%(Count+1)]);
            Swap(&Free[Count], &Free[Rand()%(Count+1)]);
            Swap(&Size[Count], &Size[Rand()%(Count+1)]);
        }
        
        Start=COUNTER_READ();
 8020c00:	6013      	str	r3, [r2, #0]
        /* Allocation tests */
        Mem[Alloc[0]]=RMP_Malloc(Pool, Amount[Size[0]]);
 8020c02:	f001 fe51 	bl	80228a8 <RMP_Malloc>
 8020c06:	4a6d      	ldr	r2, [pc, #436]	; (8020dbc <Test_Mem_Pool+0x6a0>)
        Mem[Alloc[1]]=RMP_Malloc(Pool, Amount[Size[1]]);
 8020c08:	f898 3001 	ldrb.w	r3, [r8, #1]
            Swap(&Size[Count], &Size[Rand()%(Count+1)]);
        }
        
        Start=COUNTER_READ();
        /* Allocation tests */
        Mem[Alloc[0]]=RMP_Malloc(Pool, Amount[Size[0]]);
 8020c0c:	f842 0024 	str.w	r0, [r2, r4, lsl #2]
        Mem[Alloc[1]]=RMP_Malloc(Pool, Amount[Size[1]]);
 8020c10:	4a67      	ldr	r2, [pc, #412]	; (8020db0 <Test_Mem_Pool+0x694>)
 8020c12:	4868      	ldr	r0, [pc, #416]	; (8020db4 <Test_Mem_Pool+0x698>)
 8020c14:	f852 1023 	ldr.w	r1, [r2, r3, lsl #2]
 8020c18:	f89a 4001 	ldrb.w	r4, [sl, #1]
 8020c1c:	f001 fe44 	bl	80228a8 <RMP_Malloc>
 8020c20:	4a66      	ldr	r2, [pc, #408]	; (8020dbc <Test_Mem_Pool+0x6a0>)
        Mem[Alloc[2]]=RMP_Malloc(Pool, Amount[Size[2]]);
 8020c22:	f898 3002 	ldrb.w	r3, [r8, #2]
        }
        
        Start=COUNTER_READ();
        /* Allocation tests */
        Mem[Alloc[0]]=RMP_Malloc(Pool, Amount[Size[0]]);
        Mem[Alloc[1]]=RMP_Malloc(Pool, Amount[Size[1]]);
 8020c26:	f842 0024 	str.w	r0, [r2, r4, lsl #2]
        Mem[Alloc[2]]=RMP_Malloc(Pool, Amount[Size[2]]);
 8020c2a:	4a61      	ldr	r2, [pc, #388]	; (8020db0 <Test_Mem_Pool+0x694>)
 8020c2c:	4861      	ldr	r0, [pc, #388]	; (8020db4 <Test_Mem_Pool+0x698>)
 8020c2e:	f852 1023 	ldr.w	r1, [r2, r3, lsl #2]
 8020c32:	f89a 4002 	ldrb.w	r4, [sl, #2]
 8020c36:	f001 fe37 	bl	80228a8 <RMP_Malloc>
 8020c3a:	4a60      	ldr	r2, [pc, #384]	; (8020dbc <Test_Mem_Pool+0x6a0>)
        Mem[Alloc[3]]=RMP_Malloc(Pool, Amount[Size[3]]);
 8020c3c:	f898 3003 	ldrb.w	r3, [r8, #3]
        
        Start=COUNTER_READ();
        /* Allocation tests */
        Mem[Alloc[0]]=RMP_Malloc(Pool, Amount[Size[0]]);
        Mem[Alloc[1]]=RMP_Malloc(Pool, Amount[Size[1]]);
        Mem[Alloc[2]]=RMP_Malloc(Pool, Amount[Size[2]]);
 8020c40:	f842 0024 	str.w	r0, [r2, r4, lsl #2]
        Mem[Alloc[3]]=RMP_Malloc(Pool, Amount[Size[3]]);
 8020c44:	4a5a      	ldr	r2, [pc, #360]	; (8020db0 <Test_Mem_Pool+0x694>)
 8020c46:	485b      	ldr	r0, [pc, #364]	; (8020db4 <Test_Mem_Pool+0x698>)
 8020c48:	f852 1023 	ldr.w	r1, [r2, r3, lsl #2]
 8020c4c:	f89a 4003 	ldrb.w	r4, [sl, #3]
 8020c50:	f001 fe2a 	bl	80228a8 <RMP_Malloc>
 8020c54:	4a59      	ldr	r2, [pc, #356]	; (8020dbc <Test_Mem_Pool+0x6a0>)
        Mem[Alloc[4]]=RMP_Malloc(Pool, Amount[Size[4]]);
 8020c56:	f898 3004 	ldrb.w	r3, [r8, #4]
        Start=COUNTER_READ();
        /* Allocation tests */
        Mem[Alloc[0]]=RMP_Malloc(Pool, Amount[Size[0]]);
        Mem[Alloc[1]]=RMP_Malloc(Pool, Amount[Size[1]]);
        Mem[Alloc[2]]=RMP_Malloc(Pool, Amount[Size[2]]);
        Mem[Alloc[3]]=RMP_Malloc(Pool, Amount[Size[3]]);
 8020c5a:	f842 0024 	str.w	r0, [r2, r4, lsl #2]
        Mem[Alloc[4]]=RMP_Malloc(Pool, Amount[Size[4]]);
 8020c5e:	4a54      	ldr	r2, [pc, #336]	; (8020db0 <Test_Mem_Pool+0x694>)
 8020c60:	4854      	ldr	r0, [pc, #336]	; (8020db4 <Test_Mem_Pool+0x698>)
 8020c62:	f852 1023 	ldr.w	r1, [r2, r3, lsl #2]
 8020c66:	f89a 4004 	ldrb.w	r4, [sl, #4]
 8020c6a:	f001 fe1d 	bl	80228a8 <RMP_Malloc>
 8020c6e:	4a53      	ldr	r2, [pc, #332]	; (8020dbc <Test_Mem_Pool+0x6a0>)
        Mem[Alloc[5]]=RMP_Malloc(Pool, Amount[Size[5]]);
 8020c70:	f898 3005 	ldrb.w	r3, [r8, #5]
        /* Allocation tests */
        Mem[Alloc[0]]=RMP_Malloc(Pool, Amount[Size[0]]);
        Mem[Alloc[1]]=RMP_Malloc(Pool, Amount[Size[1]]);
        Mem[Alloc[2]]=RMP_Malloc(Pool, Amount[Size[2]]);
        Mem[Alloc[3]]=RMP_Malloc(Pool, Amount[Size[3]]);
        Mem[Alloc[4]]=RMP_Malloc(Pool, Amount[Size[4]]);
 8020c74:	f842 0024 	str.w	r0, [r2, r4, lsl #2]
        Mem[Alloc[5]]=RMP_Malloc(Pool, Amount[Size[5]]);
 8020c78:	4a4d      	ldr	r2, [pc, #308]	; (8020db0 <Test_Mem_Pool+0x694>)
 8020c7a:	484e      	ldr	r0, [pc, #312]	; (8020db4 <Test_Mem_Pool+0x698>)
 8020c7c:	f852 1023 	ldr.w	r1, [r2, r3, lsl #2]
 8020c80:	f89a 4005 	ldrb.w	r4, [sl, #5]
 8020c84:	f001 fe10 	bl	80228a8 <RMP_Malloc>
 8020c88:	4a4c      	ldr	r2, [pc, #304]	; (8020dbc <Test_Mem_Pool+0x6a0>)
        Mem[Alloc[6]]=RMP_Malloc(Pool, Amount[Size[6]]);
 8020c8a:	f898 3006 	ldrb.w	r3, [r8, #6]
        Mem[Alloc[0]]=RMP_Malloc(Pool, Amount[Size[0]]);
        Mem[Alloc[1]]=RMP_Malloc(Pool, Amount[Size[1]]);
        Mem[Alloc[2]]=RMP_Malloc(Pool, Amount[Size[2]]);
        Mem[Alloc[3]]=RMP_Malloc(Pool, Amount[Size[3]]);
        Mem[Alloc[4]]=RMP_Malloc(Pool, Amount[Size[4]]);
        Mem[Alloc[5]]=RMP_Malloc(Pool, Amount[Size[5]]);
 8020c8e:	f842 0024 	str.w	r0, [r2, r4, lsl #2]
        Mem[Alloc[6]]=RMP_Malloc(Pool, Amount[Size[6]]);
 8020c92:	4a47      	ldr	r2, [pc, #284]	; (8020db0 <Test_Mem_Pool+0x694>)
 8020c94:	4847      	ldr	r0, [pc, #284]	; (8020db4 <Test_Mem_Pool+0x698>)
 8020c96:	f852 1023 	ldr.w	r1, [r2, r3, lsl #2]
 8020c9a:	f89a 4006 	ldrb.w	r4, [sl, #6]
 8020c9e:	f001 fe03 	bl	80228a8 <RMP_Malloc>
 8020ca2:	4a46      	ldr	r2, [pc, #280]	; (8020dbc <Test_Mem_Pool+0x6a0>)
        Mem[Alloc[7]]=RMP_Malloc(Pool, Amount[Size[7]]);
 8020ca4:	f898 3007 	ldrb.w	r3, [r8, #7]
        Mem[Alloc[1]]=RMP_Malloc(Pool, Amount[Size[1]]);
        Mem[Alloc[2]]=RMP_Malloc(Pool, Amount[Size[2]]);
        Mem[Alloc[3]]=RMP_Malloc(Pool, Amount[Size[3]]);
        Mem[Alloc[4]]=RMP_Malloc(Pool, Amount[Size[4]]);
        Mem[Alloc[5]]=RMP_Malloc(Pool, Amount[Size[5]]);
        Mem[Alloc[6]]=RMP_Malloc(Pool, Amount[Size[6]]);
 8020ca8:	f842 0024 	str.w	r0, [r2, r4, lsl #2]
        Mem[Alloc[7]]=RMP_Malloc(Pool, Amount[Size[7]]);
 8020cac:	4a40      	ldr	r2, [pc, #256]	; (8020db0 <Test_Mem_Pool+0x694>)
 8020cae:	4841      	ldr	r0, [pc, #260]	; (8020db4 <Test_Mem_Pool+0x698>)
 8020cb0:	f852 1023 	ldr.w	r1, [r2, r3, lsl #2]
 8020cb4:	f89a 4007 	ldrb.w	r4, [sl, #7]
 8020cb8:	f001 fdf6 	bl	80228a8 <RMP_Malloc>
 8020cbc:	4a3f      	ldr	r2, [pc, #252]	; (8020dbc <Test_Mem_Pool+0x6a0>)

        /* Deallocation tests */
        RMP_Free(Pool,Mem[Free[0]]);
 8020cbe:	f89b 3000 	ldrb.w	r3, [fp]
        Mem[Alloc[2]]=RMP_Malloc(Pool, Amount[Size[2]]);
        Mem[Alloc[3]]=RMP_Malloc(Pool, Amount[Size[3]]);
        Mem[Alloc[4]]=RMP_Malloc(Pool, Amount[Size[4]]);
        Mem[Alloc[5]]=RMP_Malloc(Pool, Amount[Size[5]]);
        Mem[Alloc[6]]=RMP_Malloc(Pool, Amount[Size[6]]);
        Mem[Alloc[7]]=RMP_Malloc(Pool, Amount[Size[7]]);
 8020cc2:	f842 0024 	str.w	r0, [r2, r4, lsl #2]

        /* Deallocation tests */
        RMP_Free(Pool,Mem[Free[0]]);
 8020cc6:	483b      	ldr	r0, [pc, #236]	; (8020db4 <Test_Mem_Pool+0x698>)
 8020cc8:	f852 1023 	ldr.w	r1, [r2, r3, lsl #2]
 8020ccc:	f001 ff40 	bl	8022b50 <RMP_Free>
        RMP_Free(Pool,Mem[Free[1]]);
 8020cd0:	f89b 3001 	ldrb.w	r3, [fp, #1]
 8020cd4:	4a39      	ldr	r2, [pc, #228]	; (8020dbc <Test_Mem_Pool+0x6a0>)
 8020cd6:	4837      	ldr	r0, [pc, #220]	; (8020db4 <Test_Mem_Pool+0x698>)
 8020cd8:	f852 1023 	ldr.w	r1, [r2, r3, lsl #2]
 8020cdc:	f001 ff38 	bl	8022b50 <RMP_Free>
        RMP_Free(Pool,Mem[Free[2]]);
 8020ce0:	f89b 3002 	ldrb.w	r3, [fp, #2]
 8020ce4:	4a35      	ldr	r2, [pc, #212]	; (8020dbc <Test_Mem_Pool+0x6a0>)
 8020ce6:	4833      	ldr	r0, [pc, #204]	; (8020db4 <Test_Mem_Pool+0x698>)
 8020ce8:	f852 1023 	ldr.w	r1, [r2, r3, lsl #2]
 8020cec:	f001 ff30 	bl	8022b50 <RMP_Free>
        RMP_Free(Pool,Mem[Free[3]]);
 8020cf0:	f89b 3003 	ldrb.w	r3, [fp, #3]
 8020cf4:	4a31      	ldr	r2, [pc, #196]	; (8020dbc <Test_Mem_Pool+0x6a0>)
 8020cf6:	482f      	ldr	r0, [pc, #188]	; (8020db4 <Test_Mem_Pool+0x698>)
 8020cf8:	f852 1023 	ldr.w	r1, [r2, r3, lsl #2]
 8020cfc:	f001 ff28 	bl	8022b50 <RMP_Free>
        RMP_Free(Pool,Mem[Free[4]]);
 8020d00:	f89b 3004 	ldrb.w	r3, [fp, #4]
 8020d04:	4a2d      	ldr	r2, [pc, #180]	; (8020dbc <Test_Mem_Pool+0x6a0>)
 8020d06:	482b      	ldr	r0, [pc, #172]	; (8020db4 <Test_Mem_Pool+0x698>)
 8020d08:	f852 1023 	ldr.w	r1, [r2, r3, lsl #2]
 8020d0c:	f001 ff20 	bl	8022b50 <RMP_Free>
        RMP_Free(Pool,Mem[Free[5]]);
 8020d10:	f89b 3005 	ldrb.w	r3, [fp, #5]
 8020d14:	4a29      	ldr	r2, [pc, #164]	; (8020dbc <Test_Mem_Pool+0x6a0>)
 8020d16:	4827      	ldr	r0, [pc, #156]	; (8020db4 <Test_Mem_Pool+0x698>)
 8020d18:	f852 1023 	ldr.w	r1, [r2, r3, lsl #2]
 8020d1c:	f001 ff18 	bl	8022b50 <RMP_Free>
        RMP_Free(Pool,Mem[Free[6]]);
 8020d20:	f89b 3006 	ldrb.w	r3, [fp, #6]
 8020d24:	4a25      	ldr	r2, [pc, #148]	; (8020dbc <Test_Mem_Pool+0x6a0>)
 8020d26:	4823      	ldr	r0, [pc, #140]	; (8020db4 <Test_Mem_Pool+0x698>)
 8020d28:	f852 1023 	ldr.w	r1, [r2, r3, lsl #2]
 8020d2c:	f001 ff10 	bl	8022b50 <RMP_Free>
        RMP_Free(Pool,Mem[Free[7]]);
 8020d30:	f89b 3007 	ldrb.w	r3, [fp, #7]
 8020d34:	4a21      	ldr	r2, [pc, #132]	; (8020dbc <Test_Mem_Pool+0x6a0>)
 8020d36:	481f      	ldr	r0, [pc, #124]	; (8020db4 <Test_Mem_Pool+0x698>)
 8020d38:	f852 1023 	ldr.w	r1, [r2, r3, lsl #2]
 8020d3c:	f001 ff08 	bl	8022b50 <RMP_Free>
        End=COUNTER_READ();
 8020d40:	f04f 4380 	mov.w	r3, #1073741824	; 0x40000000
 8020d44:	4a1e      	ldr	r2, [pc, #120]	; (8020dc0 <Test_Mem_Pool+0x6a4>)
        Total+=(rmp_tim_t)(End-Start);
        
        /* This should always be successful because we deallocated everything else */
        Mem[0]=RMP_Malloc(Pool, (TEST_MEM_POOL>>7)*127);
 8020d46:	f44f 51fe 	mov.w	r1, #8128	; 0x1fc0
        RMP_Free(Pool,Mem[Free[3]]);
        RMP_Free(Pool,Mem[Free[4]]);
        RMP_Free(Pool,Mem[Free[5]]);
        RMP_Free(Pool,Mem[Free[6]]);
        RMP_Free(Pool,Mem[Free[7]]);
        End=COUNTER_READ();
 8020d4a:	6a5b      	ldr	r3, [r3, #36]	; 0x24
        Total+=(rmp_tim_t)(End-Start);
 8020d4c:	4d1d      	ldr	r5, [pc, #116]	; (8020dc4 <Test_Mem_Pool+0x6a8>)
        RMP_Free(Pool,Mem[Free[3]]);
        RMP_Free(Pool,Mem[Free[4]]);
        RMP_Free(Pool,Mem[Free[5]]);
        RMP_Free(Pool,Mem[Free[6]]);
        RMP_Free(Pool,Mem[Free[7]]);
        End=COUNTER_READ();
 8020d4e:	005b      	lsls	r3, r3, #1
        Total+=(rmp_tim_t)(End-Start);
        
        /* This should always be successful because we deallocated everything else */
        Mem[0]=RMP_Malloc(Pool, (TEST_MEM_POOL>>7)*127);
 8020d50:	4818      	ldr	r0, [pc, #96]	; (8020db4 <Test_Mem_Pool+0x698>)
        RMP_Free(Pool,Mem[Free[3]]);
        RMP_Free(Pool,Mem[Free[4]]);
        RMP_Free(Pool,Mem[Free[5]]);
        RMP_Free(Pool,Mem[Free[6]]);
        RMP_Free(Pool,Mem[Free[7]]);
        End=COUNTER_READ();
 8020d52:	6013      	str	r3, [r2, #0]
        Total+=(rmp_tim_t)(End-Start);
 8020d54:	6813      	ldr	r3, [r2, #0]
 8020d56:	4a18      	ldr	r2, [pc, #96]	; (8020db8 <Test_Mem_Pool+0x69c>)
 8020d58:	6814      	ldr	r4, [r2, #0]
 8020d5a:	682a      	ldr	r2, [r5, #0]
 8020d5c:	4413      	add	r3, r2
 8020d5e:	1b1b      	subs	r3, r3, r4
 8020d60:	602b      	str	r3, [r5, #0]
        
        /* This should always be successful because we deallocated everything else */
        Mem[0]=RMP_Malloc(Pool, (TEST_MEM_POOL>>7)*127);
 8020d62:	f001 fda1 	bl	80228a8 <RMP_Malloc>
 8020d66:	4b15      	ldr	r3, [pc, #84]	; (8020dbc <Test_Mem_Pool+0x6a0>)
 8020d68:	4601      	mov	r1, r0
 8020d6a:	6018      	str	r0, [r3, #0]
        if(Mem[0]==0)
 8020d6c:	2800      	cmp	r0, #0
 8020d6e:	f47f ad0f 	bne.w	8020790 <Test_Mem_Pool+0x74>
        {
            RMP_PRINTK_S("Memory test failure: ");
 8020d72:	4815      	ldr	r0, [pc, #84]	; (8020dc8 <Test_Mem_Pool+0x6ac>)
 8020d74:	f000 fb7e 	bl	8021474 <RMP_Print_String>
            RMP_PRINTK_I(Test_Count);
 8020d78:	9804      	ldr	r0, [sp, #16]
 8020d7a:	f000 fb15 	bl	80213a8 <RMP_Print_Int>
            RMP_PRINTK_S(" runs.\r\n");
 8020d7e:	4813      	ldr	r0, [pc, #76]	; (8020dcc <Test_Mem_Pool+0x6b0>)
 8020d80:	f000 fb78 	bl	8021474 <RMP_Print_String>
 8020d84:	e7fe      	b.n	8020d84 <Test_Mem_Pool+0x668>
            while(1);
        }
        RMP_Free(Pool, Mem[0]); 
    }
    
    RMP_PRINTK_S("Memory: ");
 8020d86:	4812      	ldr	r0, [pc, #72]	; (8020dd0 <Test_Mem_Pool+0x6b4>)
 8020d88:	f000 fb74 	bl	8021474 <RMP_Print_String>
    Memory_Time=Total/160000;
 8020d8c:	682b      	ldr	r3, [r5, #0]
 8020d8e:	4911      	ldr	r1, [pc, #68]	; (8020dd4 <Test_Mem_Pool+0x6b8>)
 8020d90:	4a11      	ldr	r2, [pc, #68]	; (8020dd8 <Test_Mem_Pool+0x6bc>)
 8020d92:	fba1 1303 	umull	r1, r3, r1, r3
 8020d96:	0c5b      	lsrs	r3, r3, #17
 8020d98:	6013      	str	r3, [r2, #0]
    RMP_PRINTK_I(Memory_Time);
 8020d9a:	6810      	ldr	r0, [r2, #0]
 8020d9c:	f000 fb04 	bl	80213a8 <RMP_Print_Int>
    RMP_PRINTK_S(" cycles.\r\n");
 8020da0:	480e      	ldr	r0, [pc, #56]	; (8020ddc <Test_Mem_Pool+0x6c0>)
}
 8020da2:	b00d      	add	sp, #52	; 0x34
 8020da4:	e8bd 4ff0 	ldmia.w	sp!, {r4, r5, r6, r7, r8, r9, sl, fp, lr}
    }
    
    RMP_PRINTK_S("Memory: ");
    Memory_Time=Total/160000;
    RMP_PRINTK_I(Memory_Time);
    RMP_PRINTK_S(" cycles.\r\n");
 8020da8:	f000 bb64 	b.w	8021474 <RMP_Print_String>
 8020dac:	20020000 	.word	0x20020000
 8020db0:	2002849c 	.word	0x2002849c
 8020db4:	20020454 	.word	0x20020454
 8020db8:	20028490 	.word	0x20028490
 8020dbc:	20028460 	.word	0x20028460
 8020dc0:	2002845c 	.word	0x2002845c
 8020dc4:	20028510 	.word	0x20028510
 8020dc8:	08022f5c 	.word	0x08022f5c
 8020dcc:	08022f74 	.word	0x08022f74
 8020dd0:	08022f80 	.word	0x08022f80
 8020dd4:	d1b71759 	.word	0xd1b71759
 8020dd8:	20028514 	.word	0x20028514
 8020ddc:	08022f8c 	.word	0x08022f8c

08020de0 <Func_2>:
#endif

void Func_2(void)
{
    /* Yield tests */
    Total=0;
 8020de0:	4c35      	ldr	r4, [pc, #212]	; (8020eb8 <Func_2+0xd8>)
 8020de2:	2600      	movs	r6, #0
    Test_Yield_2();
    RMP_PRINTK_S("Yield: ");

    Yield_Time=Total/10000;
 8020de4:	4d35      	ldr	r5, [pc, #212]	; (8020ebc <Func_2+0xdc>)
#endif

void Func_2(void)
{
    /* Yield tests */
    Total=0;
 8020de6:	6026      	str	r6, [r4, #0]
    RMP_Thd_Del(&Thd_1);
}
#endif

void Func_2(void)
{
 8020de8:	b580      	push	{r7, lr}
    /* Yield tests */
    Total=0;
    Test_Yield_2();
 8020dea:	f7ff fbb9 	bl	8020560 <Test_Yield_2>
    RMP_PRINTK_S("Yield: ");
 8020dee:	4834      	ldr	r0, [pc, #208]	; (8020ec0 <Func_2+0xe0>)
 8020df0:	f000 fb40 	bl	8021474 <RMP_Print_String>

    Yield_Time=Total/10000;
 8020df4:	6823      	ldr	r3, [r4, #0]
 8020df6:	4a33      	ldr	r2, [pc, #204]	; (8020ec4 <Func_2+0xe4>)
 8020df8:	fba5 1303 	umull	r1, r3, r5, r3
    Total=0;
    Int_Init();
    Test_Mail_ISR();
    
    /* Semaphore from interrupt tests */
    Temp=Total;
 8020dfc:	4f32      	ldr	r7, [pc, #200]	; (8020ec8 <Func_2+0xe8>)
    /* Yield tests */
    Total=0;
    Test_Yield_2();
    RMP_PRINTK_S("Yield: ");

    Yield_Time=Total/10000;
 8020dfe:	0b5b      	lsrs	r3, r3, #13
 8020e00:	6013      	str	r3, [r2, #0]
    RMP_PRINTK_I(Yield_Time);
 8020e02:	6810      	ldr	r0, [r2, #0]
 8020e04:	f000 fad0 	bl	80213a8 <RMP_Print_Int>
    RMP_PRINTK_S(" cycles.\r\n");
 8020e08:	4830      	ldr	r0, [pc, #192]	; (8020ecc <Func_2+0xec>)
 8020e0a:	f000 fb33 	bl	8021474 <RMP_Print_String>
    /* Change priority of thread 2, just in case */
    RMP_Thd_Set(&Thd_2,2,RMP_MAX_SLICES);
 8020e0e:	2102      	movs	r1, #2
 8020e10:	4a2f      	ldr	r2, [pc, #188]	; (8020ed0 <Func_2+0xf0>)
 8020e12:	4830      	ldr	r0, [pc, #192]	; (8020ed4 <Func_2+0xf4>)
 8020e14:	f000 fd2a 	bl	802186c <RMP_Thd_Set>
    
    /* Mailbox tests */
    Total=0;
 8020e18:	6026      	str	r6, [r4, #0]
    Test_Mail_2();
 8020e1a:	f7ff fbc5 	bl	80205a8 <Test_Mail_2>
    RMP_PRINTK_S("Mailbox: ");
 8020e1e:	482e      	ldr	r0, [pc, #184]	; (8020ed8 <Func_2+0xf8>)
 8020e20:	f000 fb28 	bl	8021474 <RMP_Print_String>
    Mailbox_Time=Total/10000;
 8020e24:	6823      	ldr	r3, [r4, #0]
 8020e26:	4a2d      	ldr	r2, [pc, #180]	; (8020edc <Func_2+0xfc>)
 8020e28:	fba5 1303 	umull	r1, r3, r5, r3
 8020e2c:	0b5b      	lsrs	r3, r3, #13
 8020e2e:	6013      	str	r3, [r2, #0]
    RMP_PRINTK_I(Mailbox_Time);
 8020e30:	6810      	ldr	r0, [r2, #0]
 8020e32:	f000 fab9 	bl	80213a8 <RMP_Print_Int>
    RMP_PRINTK_S(" cycles.\r\n");
 8020e36:	4825      	ldr	r0, [pc, #148]	; (8020ecc <Func_2+0xec>)
 8020e38:	f000 fb1c 	bl	8021474 <RMP_Print_String>
    
    /* Semaphore tests */
    Total=0;
 8020e3c:	6026      	str	r6, [r4, #0]
    Test_Sem_2();
 8020e3e:	f7ff fbdd 	bl	80205fc <Test_Sem_2>
    RMP_PRINTK_S("Semaphore: ");
 8020e42:	4827      	ldr	r0, [pc, #156]	; (8020ee0 <Func_2+0x100>)
 8020e44:	f000 fb16 	bl	8021474 <RMP_Print_String>
    Semaphore_Time=Total/10000;
 8020e48:	6823      	ldr	r3, [r4, #0]
 8020e4a:	4a26      	ldr	r2, [pc, #152]	; (8020ee4 <Func_2+0x104>)
 8020e4c:	fba5 1303 	umull	r1, r3, r5, r3
 8020e50:	0b5b      	lsrs	r3, r3, #13
 8020e52:	6013      	str	r3, [r2, #0]
    RMP_PRINTK_I(Semaphore_Time);
 8020e54:	6810      	ldr	r0, [r2, #0]
 8020e56:	f000 faa7 	bl	80213a8 <RMP_Print_Int>
    RMP_PRINTK_S(" cycles.\r\n");
 8020e5a:	481c      	ldr	r0, [pc, #112]	; (8020ecc <Func_2+0xec>)
 8020e5c:	f000 fb0a 	bl	8021474 <RMP_Print_String>
    
    /* Memory pool tests */
#ifdef TEST_MEM_POOL
    Test_Mem_Pool();
 8020e60:	f7ff fc5c 	bl	802071c <Test_Mem_Pool>
#endif

    /* Mailbox from interrupt tests */
    Total=0;
 8020e64:	6026      	str	r6, [r4, #0]
    Int_Init();
 8020e66:	f7ff fa81 	bl	802036c <Int_Init>
    Test_Mail_ISR();
 8020e6a:	f7ff fbf1 	bl	8020650 <Test_Mail_ISR>
    
    /* Semaphore from interrupt tests */
    Temp=Total;
 8020e6e:	6823      	ldr	r3, [r4, #0]
 8020e70:	603b      	str	r3, [r7, #0]
    Total=0;
 8020e72:	6026      	str	r6, [r4, #0]
    Test_Sem_ISR();
 8020e74:	f7ff fc20 	bl	80206b8 <Test_Sem_ISR>
    
    RMP_PRINTK_S("Mailbox-ISR: ");
 8020e78:	481b      	ldr	r0, [pc, #108]	; (8020ee8 <Func_2+0x108>)
 8020e7a:	f000 fafb 	bl	8021474 <RMP_Print_String>
    Mailbox_ISR_Time=Temp/10000;
 8020e7e:	683b      	ldr	r3, [r7, #0]
 8020e80:	4a1a      	ldr	r2, [pc, #104]	; (8020eec <Func_2+0x10c>)
 8020e82:	fba5 1303 	umull	r1, r3, r5, r3
 8020e86:	0b5b      	lsrs	r3, r3, #13
 8020e88:	6013      	str	r3, [r2, #0]
    RMP_PRINTK_I(Mailbox_ISR_Time);
 8020e8a:	6810      	ldr	r0, [r2, #0]
 8020e8c:	f000 fa8c 	bl	80213a8 <RMP_Print_Int>
    RMP_PRINTK_S(" cycles.\r\n");
 8020e90:	480e      	ldr	r0, [pc, #56]	; (8020ecc <Func_2+0xec>)
 8020e92:	f000 faef 	bl	8021474 <RMP_Print_String>
    RMP_PRINTK_S("Semaphore-ISR: ");
 8020e96:	4816      	ldr	r0, [pc, #88]	; (8020ef0 <Func_2+0x110>)
 8020e98:	f000 faec 	bl	8021474 <RMP_Print_String>
    Semaphore_ISR_Time=Total/10000;
 8020e9c:	6823      	ldr	r3, [r4, #0]
 8020e9e:	4a15      	ldr	r2, [pc, #84]	; (8020ef4 <Func_2+0x114>)
 8020ea0:	fba5 1303 	umull	r1, r3, r5, r3
 8020ea4:	0b5b      	lsrs	r3, r3, #13
 8020ea6:	6013      	str	r3, [r2, #0]
    RMP_PRINTK_I(Semaphore_ISR_Time);
 8020ea8:	6810      	ldr	r0, [r2, #0]
 8020eaa:	f000 fa7d 	bl	80213a8 <RMP_Print_Int>
    RMP_PRINTK_S(" cycles.\r\n");
 8020eae:	4807      	ldr	r0, [pc, #28]	; (8020ecc <Func_2+0xec>)
 8020eb0:	f000 fae0 	bl	8021474 <RMP_Print_String>
 8020eb4:	e7fe      	b.n	8020eb4 <Func_2+0xd4>
 8020eb6:	bf00      	nop
 8020eb8:	20028510 	.word	0x20028510
 8020ebc:	d1b71759 	.word	0xd1b71759
 8020ec0:	08022f98 	.word	0x08022f98
 8020ec4:	20028488 	.word	0x20028488
 8020ec8:	200284bc 	.word	0x200284bc
 8020ecc:	08022f8c 	.word	0x08022f8c
 8020ed0:	000186a0 	.word	0x000186a0
 8020ed4:	20028bd4 	.word	0x20028bd4
 8020ed8:	08022fa0 	.word	0x08022fa0
 8020edc:	20028480 	.word	0x20028480
 8020ee0:	08022fac 	.word	0x08022fac
 8020ee4:	2002850c 	.word	0x2002850c
 8020ee8:	08022fb8 	.word	0x08022fb8
 8020eec:	20028500 	.word	0x20028500
 8020ef0:	08022fc8 	.word	0x08022fc8
 8020ef4:	2002044c 	.word	0x2002044c

08020ef8 <RMP_Init_Hook>:
}

void Timer_Init(void)
{
    /* TIM2 clock = 1/2 CPU clock */
    TIM2_Handle.Instance=TIM2;
 8020ef8:	4b2b      	ldr	r3, [pc, #172]	; (8020fa8 <RMP_Init_Hook+0xb0>)
 8020efa:	f04f 4280 	mov.w	r2, #1073741824	; 0x40000000
{
#ifndef MINIMAL_SIZE
    /* Init the timer */
    Timer_Init();
    /* Clean up the structures */
    RMP_Clear(&Thd_1,sizeof(struct RMP_Thd));
 8020efe:	213c      	movs	r1, #60	; 0x3c
Input       : None.
Output      : None.
Return      : None.
******************************************************************************/
void RMP_Init_Hook(void)
{
 8020f00:	e92d 41f0 	stmdb	sp!, {r4, r5, r6, r7, r8, lr}
 8020f04:	601a      	str	r2, [r3, #0]
    TIMx->RCR = Structure->RepetitionCounter;
  }

  /* Generate an update event to reload the Prescaler 
     and the repetition counter(only for TIM1 and TIM8) value immediately */
  TIMx->EGR = TIM_EGR_UG;
 8020f06:	2501      	movs	r5, #1
Return      : None.
******************************************************************************/
void TIM_Base_SetConfig(TIM_TypeDef *TIMx, TIM_Base_InitTypeDef *Structure)
{
  uint32_t tmpcr1 = 0;
  tmpcr1 = TIMx->CR1;
 8020f08:	6816      	ldr	r6, [r2, #0]

void Timer_Init(void)
{
    /* TIM2 clock = 1/2 CPU clock */
    TIM2_Handle.Instance=TIM2;
    TIM2_Handle.Init.Prescaler=0;
 8020f0a:	2400      	movs	r4, #0
    tmpcr1 &= ~TIM_CR1_CKD;
    tmpcr1 |= (uint32_t)Structure->ClockDivision;
  }

  /* Set the auto-reload preload */
  MODIFY_REG(tmpcr1, TIM_CR1_ARPE, Structure->AutoReloadPreload);
 8020f0c:	6998      	ldr	r0, [r3, #24]
{
    /* TIM2 clock = 1/2 CPU clock */
    TIM2_Handle.Instance=TIM2;
    TIM2_Handle.Init.Prescaler=0;
    TIM2_Handle.Init.CounterMode=TIM_COUNTERMODE_UP;
    TIM2_Handle.Init.Period=(unsigned int)(-1);
 8020f0e:	f04f 3eff 	mov.w	lr, #4294967295
    tmpcr1 &= ~TIM_CR1_CKD;
    tmpcr1 |= (uint32_t)Structure->ClockDivision;
  }

  /* Set the auto-reload preload */
  MODIFY_REG(tmpcr1, TIM_CR1_ARPE, Structure->AutoReloadPreload);
 8020f12:	f426 767c 	bic.w	r6, r6, #1008	; 0x3f0
    TIM2_Handle.Init.ClockDivision=TIM_CLOCKDIVISION_DIV1;
    /* Set the Time Base configuration */
    TIM_Base_SetConfig(TIM2_Handle.Instance, &(TIM2_Handle.Init)); 
    TIM2_Handle.State=HAL_TIM_STATE_READY;
  
    __HAL_RCC_TIM2_CLK_ENABLE();
 8020f16:	4f25      	ldr	r7, [pc, #148]	; (8020fac <RMP_Init_Hook+0xb4>)
{
    /* TIM2 clock = 1/2 CPU clock */
    TIM2_Handle.Instance=TIM2;
    TIM2_Handle.Init.Prescaler=0;
    TIM2_Handle.Init.CounterMode=TIM_COUNTERMODE_UP;
    TIM2_Handle.Init.Period=(unsigned int)(-1);
 8020f18:	f8c3 e00c 	str.w	lr, [r3, #12]
 8020f1c:	b084      	sub	sp, #16
    tmpcr1 &= ~TIM_CR1_CKD;
    tmpcr1 |= (uint32_t)Structure->ClockDivision;
  }

  /* Set the auto-reload preload */
  MODIFY_REG(tmpcr1, TIM_CR1_ARPE, Structure->AutoReloadPreload);
 8020f1e:	4330      	orrs	r0, r6

void Timer_Init(void)
{
    /* TIM2 clock = 1/2 CPU clock */
    TIM2_Handle.Instance=TIM2;
    TIM2_Handle.Init.Prescaler=0;
 8020f20:	605c      	str	r4, [r3, #4]
    TIM2_Handle.Init.CounterMode=TIM_COUNTERMODE_UP;
 8020f22:	609c      	str	r4, [r3, #8]
  }

  /* Set the auto-reload preload */
  MODIFY_REG(tmpcr1, TIM_CR1_ARPE, Structure->AutoReloadPreload);

  TIMx->CR1 = tmpcr1;
 8020f24:	6010      	str	r0, [r2, #0]

  /* Set the Auto-reload value */
  TIMx->ARR = (uint32_t)Structure->Period ;
 8020f26:	f8c2 e02c 	str.w	lr, [r2, #44]	; 0x2c
 
  /* Set the Prescaler value */
  TIMx->PSC = (uint32_t)Structure->Prescaler;
 8020f2a:	6294      	str	r4, [r2, #40]	; 0x28
    TIMx->RCR = Structure->RepetitionCounter;
  }

  /* Generate an update event to reload the Prescaler 
     and the repetition counter(only for TIM1 and TIM8) value immediately */
  TIMx->EGR = TIM_EGR_UG;
 8020f2c:	6155      	str	r5, [r2, #20]
    TIM2_Handle.Init.CounterMode=TIM_COUNTERMODE_UP;
    TIM2_Handle.Init.Period=(unsigned int)(-1);
    TIM2_Handle.Init.ClockDivision=TIM_CLOCKDIVISION_DIV1;
    /* Set the Time Base configuration */
    TIM_Base_SetConfig(TIM2_Handle.Instance, &(TIM2_Handle.Init)); 
    TIM2_Handle.State=HAL_TIM_STATE_READY;
 8020f2e:	f883 503d 	strb.w	r5, [r3, #61]	; 0x3d
  
    __HAL_RCC_TIM2_CLK_ENABLE();
 8020f32:	6c3a      	ldr	r2, [r7, #64]	; 0x40
    /* TIM2 clock = 1/2 CPU clock */
    TIM2_Handle.Instance=TIM2;
    TIM2_Handle.Init.Prescaler=0;
    TIM2_Handle.Init.CounterMode=TIM_COUNTERMODE_UP;
    TIM2_Handle.Init.Period=(unsigned int)(-1);
    TIM2_Handle.Init.ClockDivision=TIM_CLOCKDIVISION_DIV1;
 8020f34:	611c      	str	r4, [r3, #16]
    /* Set the Time Base configuration */
    TIM_Base_SetConfig(TIM2_Handle.Instance, &(TIM2_Handle.Init)); 
    TIM2_Handle.State=HAL_TIM_STATE_READY;
  
    __HAL_RCC_TIM2_CLK_ENABLE();
 8020f36:	432a      	orrs	r2, r5
#ifndef MINIMAL_SIZE
    /* Init the timer */
    Timer_Init();
    /* Clean up the structures */
    RMP_Clear(&Thd_1,sizeof(struct RMP_Thd));
 8020f38:	f8df 808c 	ldr.w	r8, [pc, #140]	; 8020fc8 <RMP_Init_Hook+0xd0>
    RMP_Clear(&Thd_2,sizeof(struct RMP_Thd));
 8020f3c:	4e1c      	ldr	r6, [pc, #112]	; (8020fb0 <RMP_Init_Hook+0xb8>)
 8020f3e:	643a      	str	r2, [r7, #64]	; 0x40
{
#ifndef MINIMAL_SIZE
    /* Init the timer */
    Timer_Init();
    /* Clean up the structures */
    RMP_Clear(&Thd_1,sizeof(struct RMP_Thd));
 8020f40:	4640      	mov	r0, r8
 8020f42:	6c3a      	ldr	r2, [r7, #64]	; 0x40
    __HAL_TIM_ENABLE(&TIM2_Handle);
 8020f44:	f8d3 e000 	ldr.w	lr, [r3]
    TIM2_Handle.Init.ClockDivision=TIM_CLOCKDIVISION_DIV1;
    /* Set the Time Base configuration */
    TIM_Base_SetConfig(TIM2_Handle.Instance, &(TIM2_Handle.Init)); 
    TIM2_Handle.State=HAL_TIM_STATE_READY;
  
    __HAL_RCC_TIM2_CLK_ENABLE();
 8020f48:	ea02 0305 	and.w	r3, r2, r5
    RMP_Clear(&Thd_2,sizeof(struct RMP_Thd));
    RMP_Clear(&Sem_1,sizeof(struct RMP_Sem));
 8020f4c:	4f19      	ldr	r7, [pc, #100]	; (8020fb4 <RMP_Init_Hook+0xbc>)
 8020f4e:	9303      	str	r3, [sp, #12]
 8020f50:	9b03      	ldr	r3, [sp, #12]
    __HAL_TIM_ENABLE(&TIM2_Handle);
 8020f52:	f8de 3000 	ldr.w	r3, [lr]
 8020f56:	432b      	orrs	r3, r5
 8020f58:	f8ce 3000 	str.w	r3, [lr]
{
#ifndef MINIMAL_SIZE
    /* Init the timer */
    Timer_Init();
    /* Clean up the structures */
    RMP_Clear(&Thd_1,sizeof(struct RMP_Thd));
 8020f5c:	f000 f9d8 	bl	8021310 <RMP_Clear>
    RMP_Clear(&Thd_2,sizeof(struct RMP_Thd));
 8020f60:	4630      	mov	r0, r6
 8020f62:	213c      	movs	r1, #60	; 0x3c
 8020f64:	f000 f9d4 	bl	8021310 <RMP_Clear>
    RMP_Clear(&Sem_1,sizeof(struct RMP_Sem));
 8020f68:	4638      	mov	r0, r7
 8020f6a:	2110      	movs	r1, #16
 8020f6c:	f000 f9d0 	bl	8021310 <RMP_Clear>
    /* Create counting semaphore */
    RMP_Sem_Crt(&Sem_1,0);
 8020f70:	4621      	mov	r1, r4
 8020f72:	4638      	mov	r0, r7
 8020f74:	f001 f8a0 	bl	80220b8 <RMP_Sem_Crt>
    /* Start threads */
    RMP_Thd_Crt(&Thd_1, Func_1, THD1_STACK, (void*)0x1234, 1, 5);
 8020f78:	2305      	movs	r3, #5
 8020f7a:	9500      	str	r5, [sp, #0]
 8020f7c:	4640      	mov	r0, r8
 8020f7e:	9301      	str	r3, [sp, #4]
 8020f80:	f241 2334 	movw	r3, #4660	; 0x1234
 8020f84:	4a0c      	ldr	r2, [pc, #48]	; (8020fb8 <RMP_Init_Hook+0xc0>)
 8020f86:	490d      	ldr	r1, [pc, #52]	; (8020fbc <RMP_Init_Hook+0xc4>)
 8020f88:	f000 fbbc 	bl	8021704 <RMP_Thd_Crt>
    RMP_Thd_Crt(&Thd_2, Func_2, THD2_STACK, (void*)0x4321, 1, 1000);
 8020f8c:	f44f 737a 	mov.w	r3, #1000	; 0x3e8
 8020f90:	4a0b      	ldr	r2, [pc, #44]	; (8020fc0 <RMP_Init_Hook+0xc8>)
 8020f92:	4630      	mov	r0, r6
 8020f94:	9301      	str	r3, [sp, #4]
 8020f96:	f244 3321 	movw	r3, #17185	; 0x4321
 8020f9a:	490a      	ldr	r1, [pc, #40]	; (8020fc4 <RMP_Init_Hook+0xcc>)
 8020f9c:	9500      	str	r5, [sp, #0]
 8020f9e:	f000 fbb1 	bl	8021704 <RMP_Thd_Crt>
#endif
}
 8020fa2:	b004      	add	sp, #16
 8020fa4:	e8bd 81f0 	ldmia.w	sp!, {r4, r5, r6, r7, r8, pc}
 8020fa8:	20028518 	.word	0x20028518
 8020fac:	40023800 	.word	0x40023800
 8020fb0:	20028bd4 	.word	0x20028bd4
 8020fb4:	20028bc4 	.word	0x20028bc4
 8020fb8:	20029020 	.word	0x20029020
 8020fbc:	08020525 	.word	0x08020525
 8020fc0:	20028b5c 	.word	0x20028b5c
 8020fc4:	08020de1 	.word	0x08020de1
 8020fc8:	20028c10 	.word	0x20028c10

08020fcc <RMP_Init_Idle>:

void RMP_Init_Idle(void)
{
 8020fcc:	4770      	bx	lr
 8020fce:	bf00      	nop

08020fd0 <RMP_PendSV_Handler>:
Input       : None.
Output      : None.
Return      : None.
******************************************************************************/
void RMP_PendSV_Handler(void)
{
 8020fd0:	b570      	push	{r4, r5, r6, lr}
    rmp_ptr_t* SP;
    /* Spill all the registers onto the user stack
     * MRS       R0,PSP
     * STMDB     R0!,{R4-R11,LR} */
    SP=(rmp_ptr_t*)(RVM_Regs.Reg.SP);    
 8020fd2:	4c1e      	ldr	r4, [pc, #120]	; (802104c <RMP_PendSV_Handler+0x7c>)
    RMP_Save_Ctx();
    
    /* Save the SP to control block
     * LDR       R1,=RMP_Cur_SP
     * STR       R0,[R1] */
    RMP_Cur_SP=(rmp_ptr_t)SP;
 8020fd4:	4e1e      	ldr	r6, [pc, #120]	; (8021050 <RMP_PendSV_Handler+0x80>)
{
    rmp_ptr_t* SP;
    /* Spill all the registers onto the user stack
     * MRS       R0,PSP
     * STMDB     R0!,{R4-R11,LR} */
    SP=(rmp_ptr_t*)(RVM_Regs.Reg.SP);    
 8020fd6:	6823      	ldr	r3, [r4, #0]
    *(--SP)=RVM_Regs.Reg.LR;
 8020fd8:	6a62      	ldr	r2, [r4, #36]	; 0x24
    *(--SP)=RVM_Regs.Reg.R9;
    *(--SP)=RVM_Regs.Reg.R8;
    *(--SP)=RVM_Regs.Reg.R7;
    *(--SP)=RVM_Regs.Reg.R6;
    *(--SP)=RVM_Regs.Reg.R5;
    *(--SP)=RVM_Regs.Reg.R4;
 8020fda:	461d      	mov	r5, r3
    rmp_ptr_t* SP;
    /* Spill all the registers onto the user stack
     * MRS       R0,PSP
     * STMDB     R0!,{R4-R11,LR} */
    SP=(rmp_ptr_t*)(RVM_Regs.Reg.SP);    
    *(--SP)=RVM_Regs.Reg.LR;
 8020fdc:	f843 2c04 	str.w	r2, [r3, #-4]
    *(--SP)=RVM_Regs.Reg.R11;
 8020fe0:	6a22      	ldr	r2, [r4, #32]
 8020fe2:	f843 2c08 	str.w	r2, [r3, #-8]
    *(--SP)=RVM_Regs.Reg.R10;
 8020fe6:	69e2      	ldr	r2, [r4, #28]
 8020fe8:	f843 2c0c 	str.w	r2, [r3, #-12]
    *(--SP)=RVM_Regs.Reg.R9;
 8020fec:	69a2      	ldr	r2, [r4, #24]
 8020fee:	f843 2c10 	str.w	r2, [r3, #-16]
    *(--SP)=RVM_Regs.Reg.R8;
 8020ff2:	6962      	ldr	r2, [r4, #20]
 8020ff4:	f843 2c14 	str.w	r2, [r3, #-20]
    *(--SP)=RVM_Regs.Reg.R7;
 8020ff8:	6922      	ldr	r2, [r4, #16]
 8020ffa:	f843 2c18 	str.w	r2, [r3, #-24]
    *(--SP)=RVM_Regs.Reg.R6;
 8020ffe:	68e2      	ldr	r2, [r4, #12]
 8021000:	f843 2c1c 	str.w	r2, [r3, #-28]
    *(--SP)=RVM_Regs.Reg.R5;
 8021004:	68a2      	ldr	r2, [r4, #8]
 8021006:	f843 2c20 	str.w	r2, [r3, #-32]
    *(--SP)=RVM_Regs.Reg.R4;
 802100a:	6863      	ldr	r3, [r4, #4]
 802100c:	f845 3d24 	str.w	r3, [r5, #-36]!
    
    /* Save extra context
     * BL       RMP_Save_Ctx */
    RMP_Save_Ctx();
 8021010:	f001 fb3e 	bl	8022690 <RMP_Save_Ctx>
    
    /* Save the SP to control block
     * LDR       R1,=RMP_Cur_SP
     * STR       R0,[R1] */
    RMP_Cur_SP=(rmp_ptr_t)SP;
 8021014:	6035      	str	r5, [r6, #0]
                
    /* Get the highest ready task
     * BL        _RMP_Get_High_Rdy */
    _RMP_Get_High_Rdy();
 8021016:	f000 fa99 	bl	802154c <_RMP_Get_High_Rdy>
    
    /* Load the SP
     * LDR       R1,=RMP_Cur_SP
     * LDR       R0,[R1] */
    SP=(rmp_ptr_t*)RMP_Cur_SP;
 802101a:	6835      	ldr	r5, [r6, #0]
    
    /* Load extra context
     * BL        RMP_Load_Ctx */
    RMP_Load_Ctx();
 802101c:	f001 fb3a 	bl	8022694 <RMP_Load_Ctx>
     
    /* Load registers from user stack
     * LDMIA     R0!,{R4-R11,LR}
     * MSR       PSP,R0 */
    RVM_Regs.Reg.R4=*(SP++);
 8021020:	682b      	ldr	r3, [r5, #0]
    RVM_Regs.Reg.R7=*(SP++);
    RVM_Regs.Reg.R8=*(SP++);
    RVM_Regs.Reg.R9=*(SP++);
    RVM_Regs.Reg.R10=*(SP++);
    RVM_Regs.Reg.R11=*(SP++);
    RVM_Regs.Reg.LR=*(SP++);
 8021022:	f105 0224 	add.w	r2, r5, #36	; 0x24
    RMP_Load_Ctx();
     
    /* Load registers from user stack
     * LDMIA     R0!,{R4-R11,LR}
     * MSR       PSP,R0 */
    RVM_Regs.Reg.R4=*(SP++);
 8021026:	6063      	str	r3, [r4, #4]
    RVM_Regs.Reg.R5=*(SP++);
 8021028:	686b      	ldr	r3, [r5, #4]
    RVM_Regs.Reg.R8=*(SP++);
    RVM_Regs.Reg.R9=*(SP++);
    RVM_Regs.Reg.R10=*(SP++);
    RVM_Regs.Reg.R11=*(SP++);
    RVM_Regs.Reg.LR=*(SP++);
    RVM_Regs.Reg.SP=(rmp_ptr_t)SP;
 802102a:	6022      	str	r2, [r4, #0]
     
    /* Load registers from user stack
     * LDMIA     R0!,{R4-R11,LR}
     * MSR       PSP,R0 */
    RVM_Regs.Reg.R4=*(SP++);
    RVM_Regs.Reg.R5=*(SP++);
 802102c:	60a3      	str	r3, [r4, #8]
    RVM_Regs.Reg.R6=*(SP++);
 802102e:	68ab      	ldr	r3, [r5, #8]
 8021030:	60e3      	str	r3, [r4, #12]
    RVM_Regs.Reg.R7=*(SP++);
 8021032:	68eb      	ldr	r3, [r5, #12]
 8021034:	6123      	str	r3, [r4, #16]
    RVM_Regs.Reg.R8=*(SP++);
 8021036:	692b      	ldr	r3, [r5, #16]
 8021038:	6163      	str	r3, [r4, #20]
    RVM_Regs.Reg.R9=*(SP++);
 802103a:	696b      	ldr	r3, [r5, #20]
 802103c:	61a3      	str	r3, [r4, #24]
    RVM_Regs.Reg.R10=*(SP++);
 802103e:	69ab      	ldr	r3, [r5, #24]
 8021040:	61e3      	str	r3, [r4, #28]
    RVM_Regs.Reg.R11=*(SP++);
 8021042:	69eb      	ldr	r3, [r5, #28]
 8021044:	6223      	str	r3, [r4, #32]
    RVM_Regs.Reg.LR=*(SP++);
 8021046:	6a2b      	ldr	r3, [r5, #32]
 8021048:	6263      	str	r3, [r4, #36]	; 0x24
 802104a:	bd70      	pop	{r4, r5, r6, pc}
 802104c:	20029088 	.word	0x20029088
 8021050:	20029208 	.word	0x20029208

08021054 <RMP_SysTick_Handler>:
{
    /* PUSH      {LR} */
    /* Note the system that we have entered an interrupt. We are not using tickless here */
    /* MOV       R0,#0x01 */
    /* BL        _RMP_Tick_Handler */
    _RMP_Tick_Handler(1);
 8021054:	2001      	movs	r0, #1
 8021056:	f000 babd 	b.w	80215d4 <_RMP_Tick_Handler>
 802105a:	bf00      	nop

0802105c <_RMP_Stack_Init>:
              to avoid INVSTATE; set PC to the pseudo-process entrance; set LR
              (1) to 0 because the process does not return to anything; set the 
              R12,R3-R0 to 0; set R11-R4 to 0.
******************************************************************************/
void _RMP_Stack_Init(rmp_ptr_t Entry, rmp_ptr_t Stack, rmp_ptr_t Arg)
{
 802105c:	b410      	push	{r4}
    /* CM3:Pass the parameter */                            
    ((rmp_ptr_t*)Stack)[0+9]=Arg;       
    /* CM3:for xPSR. fill the T bit,or an INVSTATE will happen */
    ((rmp_ptr_t*)Stack)[6+9]=Entry;
    /* CM3:Set the process entrance */                            
    ((rmp_ptr_t*)Stack)[7+9]=0x01000200;      
 802105e:	4b05      	ldr	r3, [pc, #20]	; (8021074 <_RMP_Stack_Init+0x18>)
******************************************************************************/
void _RMP_Stack_Init(rmp_ptr_t Entry, rmp_ptr_t Stack, rmp_ptr_t Arg)
{
    /* The "9" here is because we also pushed other registers to PSP */
    /* This is the LR value indicating that we never used the FPU */
    ((rmp_ptr_t*)Stack)[0+8]=0xFFFFFFFD;       
 8021060:	f06f 0402 	mvn.w	r4, #2
    /* CM3:Pass the parameter */                            
    ((rmp_ptr_t*)Stack)[0+9]=Arg;       
 8021064:	624a      	str	r2, [r1, #36]	; 0x24
    /* CM3:for xPSR. fill the T bit,or an INVSTATE will happen */
    ((rmp_ptr_t*)Stack)[6+9]=Entry;
 8021066:	63c8      	str	r0, [r1, #60]	; 0x3c
******************************************************************************/
void _RMP_Stack_Init(rmp_ptr_t Entry, rmp_ptr_t Stack, rmp_ptr_t Arg)
{
    /* The "9" here is because we also pushed other registers to PSP */
    /* This is the LR value indicating that we never used the FPU */
    ((rmp_ptr_t*)Stack)[0+8]=0xFFFFFFFD;       
 8021068:	620c      	str	r4, [r1, #32]
    /* CM3:Pass the parameter */                            
    ((rmp_ptr_t*)Stack)[0+9]=Arg;       
    /* CM3:for xPSR. fill the T bit,or an INVSTATE will happen */
    ((rmp_ptr_t*)Stack)[6+9]=Entry;
    /* CM3:Set the process entrance */                            
    ((rmp_ptr_t*)Stack)[7+9]=0x01000200;      
 802106a:	640b      	str	r3, [r1, #64]	; 0x40
}
 802106c:	f85d 4b04 	ldr.w	r4, [sp], #4
 8021070:	4770      	bx	lr
 8021072:	bf00      	nop
 8021074:	01000200 	.word	0x01000200

08021078 <_RMP_Low_Level_Init>:
Input       : None
Output      : None.
Return      : None.
******************************************************************************/
void _RMP_Low_Level_Init(void)
{
 8021078:	b508      	push	{r3, lr}
    RVM_Init();
 802107a:	f000 f895 	bl	80211a8 <RVM_Init>
    RVM_Vect_Init(0, RMP_SysTick_Handler);
 802107e:	4906      	ldr	r1, [pc, #24]	; (8021098 <_RMP_Low_Level_Init+0x20>)
 8021080:	2000      	movs	r0, #0
 8021082:	f000 f8af 	bl	80211e4 <RVM_Vect_Init>
    RVM_Vect_Init(1, RMP_PendSV_Handler);
 8021086:	4905      	ldr	r1, [pc, #20]	; (802109c <_RMP_Low_Level_Init+0x24>)
 8021088:	2001      	movs	r0, #1
 802108a:	f000 f8ab 	bl	80211e4 <RVM_Vect_Init>
    RMP_Console_Ptr=0;
 802108e:	4b04      	ldr	r3, [pc, #16]	; (80210a0 <_RMP_Low_Level_Init+0x28>)
 8021090:	2200      	movs	r2, #0
 8021092:	601a      	str	r2, [r3, #0]
 8021094:	bd08      	pop	{r3, pc}
 8021096:	bf00      	nop
 8021098:	08021055 	.word	0x08021055
 802109c:	08020fd1 	.word	0x08020fd1
 80210a0:	2002855c 	.word	0x2002855c

080210a4 <_RMP_Plat_Hook>:
 80210a4:	f000 b8ac 	b.w	8021200 <RVM_Enable_Int>

080210a8 <RMP_Putchar>:
Return      : None.
******************************************************************************/
void RMP_Putchar(char Char)
{
    /* If we are not changing lines, and buffer not full */
    if((Char!='\r')&&(Char!='\n')&&(Char!='\0')&&(RMP_Console_Ptr<RMP_KERNEL_DEBUG_MAX_STR-1))
 80210a8:	280d      	cmp	r0, #13
Input       : char Char - The character to print.
Output      : None.
Return      : None.
******************************************************************************/
void RMP_Putchar(char Char)
{
 80210aa:	b510      	push	{r4, lr}
    /* If we are not changing lines, and buffer not full */
    if((Char!='\r')&&(Char!='\n')&&(Char!='\0')&&(RMP_Console_Ptr<RMP_KERNEL_DEBUG_MAX_STR-1))
 80210ac:	4c0e      	ldr	r4, [pc, #56]	; (80210e8 <RMP_Putchar+0x40>)
 80210ae:	d90f      	bls.n	80210d0 <RMP_Putchar+0x28>
 80210b0:	6823      	ldr	r3, [r4, #0]
 80210b2:	2b7e      	cmp	r3, #126	; 0x7e
 80210b4:	d912      	bls.n	80210dc <RMP_Putchar+0x34>
    {
        RVM_Console[RMP_Console_Ptr++]=Char;
    }
    else
    {
        RMP_Lock_Sched();
 80210b6:	f000 f9ed 	bl	8021494 <RMP_Lock_Sched>
        RVM_Console[RMP_Console_Ptr]='\0';
 80210ba:	6822      	ldr	r2, [r4, #0]
 80210bc:	2300      	movs	r3, #0
 80210be:	490b      	ldr	r1, [pc, #44]	; (80210ec <RMP_Putchar+0x44>)
        RMP_Console_Ptr=0;
 80210c0:	6023      	str	r3, [r4, #0]
        RVM_Console[RMP_Console_Ptr++]=Char;
    }
    else
    {
        RMP_Lock_Sched();
        RVM_Console[RMP_Console_Ptr]='\0';
 80210c2:	548b      	strb	r3, [r1, r2]
        RMP_Console_Ptr=0;
        RVM_Print();
 80210c4:	f000 f8da 	bl	802127c <RVM_Print>
        RMP_Unlock_Sched();
    }
}
 80210c8:	e8bd 4010 	ldmia.w	sp!, {r4, lr}
    {
        RMP_Lock_Sched();
        RVM_Console[RMP_Console_Ptr]='\0';
        RMP_Console_Ptr=0;
        RVM_Print();
        RMP_Unlock_Sched();
 80210cc:	f000 b9f2 	b.w	80214b4 <RMP_Unlock_Sched>
Return      : None.
******************************************************************************/
void RMP_Putchar(char Char)
{
    /* If we are not changing lines, and buffer not full */
    if((Char!='\r')&&(Char!='\n')&&(Char!='\0')&&(RMP_Console_Ptr<RMP_KERNEL_DEBUG_MAX_STR-1))
 80210d0:	f242 4301 	movw	r3, #9217	; 0x2401
 80210d4:	40c3      	lsrs	r3, r0
 80210d6:	07db      	lsls	r3, r3, #31
 80210d8:	d4ed      	bmi.n	80210b6 <RMP_Putchar+0xe>
 80210da:	e7e9      	b.n	80210b0 <RMP_Putchar+0x8>
    {
        RVM_Console[RMP_Console_Ptr++]=Char;
 80210dc:	1c59      	adds	r1, r3, #1
 80210de:	4a03      	ldr	r2, [pc, #12]	; (80210ec <RMP_Putchar+0x44>)
 80210e0:	6021      	str	r1, [r4, #0]
 80210e2:	54d0      	strb	r0, [r2, r3]
 80210e4:	bd10      	pop	{r4, pc}
 80210e6:	bf00      	nop
 80210e8:	2002855c 	.word	0x2002855c
 80210ec:	20029188 	.word	0x20029188

080210f0 <_RMP_Yield>:
Output      : None.
Return      : None.
******************************************************************************/
void _RMP_Yield(void)
{
    RVM_Yield();
 80210f0:	f000 b8d4 	b.w	802129c <RVM_Yield>
 80210f4:	0000      	movs	r0, r0
	...

080210f8 <RMP_MSB_Get>:
 80210f8:	fab0 f180 	clz	r1, r0
 80210fc:	f04f 001f 	mov.w	r0, #31
 8021100:	eba0 0001 	sub.w	r0, r0, r1
 8021104:	4770      	bx	lr

08021106 <_RMP_Start>:
 8021106:	f1a1 0110 	sub.w	r1, r1, #16
 802110a:	468d      	mov	sp, r1
 802110c:	f3bf 8f6f 	isb	sy
 8021110:	4780      	blx	r0
 8021112:	bf00      	nop

08021114 <RVM_Int>:
Input       : None.
Output      : None.
Return      : None.
******************************************************************************/
void RVM_Int(void)
{
 8021114:	e92d 4ff8 	stmdb	sp!, {r3, r4, r5, r6, r7, r8, r9, sl, fp, lr}
 8021118:	4c1e      	ldr	r4, [pc, #120]	; (8021194 <RVM_Int+0x80>)
                }
                Int_Num=RVM_Get_Int();
            }
        }
        else
            RVM_Int_Pend=1;
 802111a:	2701      	movs	r7, #1
 802111c:	f8df a080 	ldr.w	sl, [pc, #128]	; 80211a0 <RVM_Int+0x8c>
 8021120:	4d1d      	ldr	r5, [pc, #116]	; (8021198 <RVM_Int+0x84>)
 8021122:	4e1e      	ldr	r6, [pc, #120]	; (802119c <RVM_Int+0x88>)
 8021124:	f8df 807c 	ldr.w	r8, [pc, #124]	; 80211a4 <RVM_Int+0x90>
{
    rvm_cnt_t Int_Num;
    
    while(1)
    {
        RVM_Int_Rcv();
 8021128:	f7fe ffb0 	bl	802008c <RVM_Int_Rcv>
        /* Only try to get interrupts if we didn't mask it */
        if(RVM_Int_Enable!=0)
 802112c:	6823      	ldr	r3, [r4, #0]
 802112e:	b36b      	cbz	r3, 802118c <RVM_Int+0x78>
        {
            RVM_Int_Pend=0;
 8021130:	f04f 0900 	mov.w	r9, #0
    
    /* See which one is ready, and pick it */
    Pos=-1;
    for(Count=RVM_VECT_BITMAP-1;Count>=0;Count--)
    {
        if(RVM_Flag[Count]==0)
 8021134:	6828      	ldr	r0, [r5, #0]
    {
        RVM_Int_Rcv();
        /* Only try to get interrupts if we didn't mask it */
        if(RVM_Int_Enable!=0)
        {
            RVM_Int_Pend=0;
 8021136:	f8ca 9000 	str.w	r9, [sl]
    
    /* See which one is ready, and pick it */
    Pos=-1;
    for(Count=RVM_VECT_BITMAP-1;Count>=0;Count--)
    {
        if(RVM_Flag[Count]==0)
 802113a:	2800      	cmp	r0, #0
 802113c:	d0f4      	beq.n	8021128 <RVM_Int+0x14>
            continue;
        
        Pos=RVM_MSB_Get(RVM_Flag[Count]);
 802113e:	f7fe ff7c 	bl	802003a <RVM_MSB_Get>
        Pos+=(Count<<RVM_WORD_ORDER);
        break;
    }
    /* Now kill the bit */
    if(Pos>=0)
 8021142:	f1b0 0b00 	subs.w	fp, r0, #0
 8021146:	dbef      	blt.n	8021128 <RVM_Int+0x14>
        RVM_Fetch_And(&RVM_Flag[Count],~(((rvm_ptr_t)1)<<Pos));
 8021148:	fa07 f10b 	lsl.w	r1, r7, fp
 802114c:	4812      	ldr	r0, [pc, #72]	; (8021198 <RVM_Int+0x84>)
 802114e:	43c9      	mvns	r1, r1
 8021150:	f7fe ff7a 	bl	8020048 <RVM_Fetch_And>
            /* Look for interrupts to handle from the first */
            Int_Num=RVM_Get_Int();
            /* Handle the interrupt here - the interrupt is tail-chained */
            while(Int_Num>=0)
            {
                if(RVM_Vect[Int_Num]!=0)
 8021154:	f856 302b 	ldr.w	r3, [r6, fp, lsl #2]
 8021158:	b12b      	cbz	r3, 8021166 <RVM_Int+0x52>
                {
                    RVM_Int_Active=1;
                    ((void(*)(rvm_ptr_t))RVM_Vect[Int_Num])(Int_Num);
 802115a:	4658      	mov	r0, fp
            /* Handle the interrupt here - the interrupt is tail-chained */
            while(Int_Num>=0)
            {
                if(RVM_Vect[Int_Num]!=0)
                {
                    RVM_Int_Active=1;
 802115c:	f8c8 7000 	str.w	r7, [r8]
                    ((void(*)(rvm_ptr_t))RVM_Vect[Int_Num])(Int_Num);
 8021160:	4798      	blx	r3
                    RVM_Int_Active=0;
 8021162:	f8c8 9000 	str.w	r9, [r8]
{
    rvm_cnt_t Count;
    rvm_cnt_t Pos;
    
    /* See if interrupt enabled */
    if(RVM_Int_Enable==0)
 8021166:	6823      	ldr	r3, [r4, #0]
 8021168:	2b00      	cmp	r3, #0
 802116a:	d0dd      	beq.n	8021128 <RVM_Int+0x14>
    
    /* See which one is ready, and pick it */
    Pos=-1;
    for(Count=RVM_VECT_BITMAP-1;Count>=0;Count--)
    {
        if(RVM_Flag[Count]==0)
 802116c:	6828      	ldr	r0, [r5, #0]
 802116e:	2800      	cmp	r0, #0
 8021170:	d0da      	beq.n	8021128 <RVM_Int+0x14>
            continue;
        
        Pos=RVM_MSB_Get(RVM_Flag[Count]);
 8021172:	f7fe ff62 	bl	802003a <RVM_MSB_Get>
        Pos+=(Count<<RVM_WORD_ORDER);
        break;
    }
    /* Now kill the bit */
    if(Pos>=0)
 8021176:	f1b0 0b00 	subs.w	fp, r0, #0
        RVM_Fetch_And(&RVM_Flag[Count],~(((rvm_ptr_t)1)<<Pos));
 802117a:	4807      	ldr	r0, [pc, #28]	; (8021198 <RVM_Int+0x84>)
 802117c:	fa07 f10b 	lsl.w	r1, r7, fp
        Pos=RVM_MSB_Get(RVM_Flag[Count]);
        Pos+=(Count<<RVM_WORD_ORDER);
        break;
    }
    /* Now kill the bit */
    if(Pos>=0)
 8021180:	dae5      	bge.n	802114e <RVM_Int+0x3a>
{
    rvm_cnt_t Int_Num;
    
    while(1)
    {
        RVM_Int_Rcv();
 8021182:	f7fe ff83 	bl	802008c <RVM_Int_Rcv>
        /* Only try to get interrupts if we didn't mask it */
        if(RVM_Int_Enable!=0)
 8021186:	6823      	ldr	r3, [r4, #0]
 8021188:	2b00      	cmp	r3, #0
 802118a:	d1d1      	bne.n	8021130 <RVM_Int+0x1c>
                }
                Int_Num=RVM_Get_Int();
            }
        }
        else
            RVM_Int_Pend=1;
 802118c:	f8ca 7000 	str.w	r7, [sl]
 8021190:	e7ca      	b.n	8021128 <RVM_Int+0x14>
 8021192:	bf00      	nop
 8021194:	20028564 	.word	0x20028564
 8021198:	200290f0 	.word	0x200290f0
 802119c:	20029108 	.word	0x20029108
 80211a0:	20028560 	.word	0x20028560
 80211a4:	20028568 	.word	0x20028568

080211a8 <RVM_Init>:
******************************************************************************/
void RVM_Init(void)
{
    rvm_cnt_t Count;
    /* Clear all VM-related flags and registration tables */
    RVM_Int_Enable=0;
 80211a8:	2000      	movs	r0, #0
 80211aa:	4b09      	ldr	r3, [pc, #36]	; (80211d0 <RVM_Init+0x28>)
Input       : None
Output      : None.
Return      : None.
******************************************************************************/
void RVM_Init(void)
{
 80211ac:	b4f0      	push	{r4, r5, r6, r7}
    RVM_Int_Active=0;
    /* Clean up all global variables */
    for(Count=0;Count<RVM_VECT_BITMAP;Count++)
        RVM_Flag[Count]=0;
    for(Count=0;Count<RVM_MAX_INTVECT;Count++)
        RVM_Vect[Count]=0;
 80211ae:	4601      	mov	r1, r0
******************************************************************************/
void RVM_Init(void)
{
    rvm_cnt_t Count;
    /* Clear all VM-related flags and registration tables */
    RVM_Int_Enable=0;
 80211b0:	4f08      	ldr	r7, [pc, #32]	; (80211d4 <RVM_Init+0x2c>)
    RVM_Int_Pend=0;
 80211b2:	4e09      	ldr	r6, [pc, #36]	; (80211d8 <RVM_Init+0x30>)
 80211b4:	f103 0280 	add.w	r2, r3, #128	; 0x80
    RVM_Int_Active=0;
 80211b8:	4d08      	ldr	r5, [pc, #32]	; (80211dc <RVM_Init+0x34>)
    /* Clean up all global variables */
    for(Count=0;Count<RVM_VECT_BITMAP;Count++)
        RVM_Flag[Count]=0;
 80211ba:	4c09      	ldr	r4, [pc, #36]	; (80211e0 <RVM_Init+0x38>)
******************************************************************************/
void RVM_Init(void)
{
    rvm_cnt_t Count;
    /* Clear all VM-related flags and registration tables */
    RVM_Int_Enable=0;
 80211bc:	6038      	str	r0, [r7, #0]
    RVM_Int_Pend=0;
 80211be:	6030      	str	r0, [r6, #0]
    RVM_Int_Active=0;
 80211c0:	6028      	str	r0, [r5, #0]
    /* Clean up all global variables */
    for(Count=0;Count<RVM_VECT_BITMAP;Count++)
        RVM_Flag[Count]=0;
 80211c2:	6020      	str	r0, [r4, #0]
    for(Count=0;Count<RVM_MAX_INTVECT;Count++)
        RVM_Vect[Count]=0;
 80211c4:	f843 1f04 	str.w	r1, [r3, #4]!
    RVM_Int_Pend=0;
    RVM_Int_Active=0;
    /* Clean up all global variables */
    for(Count=0;Count<RVM_VECT_BITMAP;Count++)
        RVM_Flag[Count]=0;
    for(Count=0;Count<RVM_MAX_INTVECT;Count++)
 80211c8:	4293      	cmp	r3, r2
 80211ca:	d1fb      	bne.n	80211c4 <RVM_Init+0x1c>
        RVM_Vect[Count]=0;
}
 80211cc:	bcf0      	pop	{r4, r5, r6, r7}
 80211ce:	4770      	bx	lr
 80211d0:	20029104 	.word	0x20029104
 80211d4:	20028564 	.word	0x20028564
 80211d8:	20028560 	.word	0x20028560
 80211dc:	20028568 	.word	0x20028568
 80211e0:	200290f0 	.word	0x200290f0

080211e4 <RVM_Vect_Init>:
Output      : None.
Return      : None.
******************************************************************************/
rvm_ret_t RVM_Vect_Init(rvm_ptr_t Num, void* Handler)
{
    if(Num>=RVM_MAX_INTVECT)
 80211e4:	281f      	cmp	r0, #31
Input       : None
Output      : None.
Return      : None.
******************************************************************************/
rvm_ret_t RVM_Vect_Init(rvm_ptr_t Num, void* Handler)
{
 80211e6:	4603      	mov	r3, r0
    if(Num>=RVM_MAX_INTVECT)
 80211e8:	d804      	bhi.n	80211f4 <RVM_Vect_Init+0x10>
        return -1;
    
    RVM_Vect[Num]=(rvm_ptr_t)Handler;
 80211ea:	4a04      	ldr	r2, [pc, #16]	; (80211fc <RVM_Vect_Init+0x18>)
    return 0;
 80211ec:	2000      	movs	r0, #0
rvm_ret_t RVM_Vect_Init(rvm_ptr_t Num, void* Handler)
{
    if(Num>=RVM_MAX_INTVECT)
        return -1;
    
    RVM_Vect[Num]=(rvm_ptr_t)Handler;
 80211ee:	f842 1023 	str.w	r1, [r2, r3, lsl #2]
    return 0;
 80211f2:	4770      	bx	lr
Return      : None.
******************************************************************************/
rvm_ret_t RVM_Vect_Init(rvm_ptr_t Num, void* Handler)
{
    if(Num>=RVM_MAX_INTVECT)
        return -1;
 80211f4:	f04f 30ff 	mov.w	r0, #4294967295
    
    RVM_Vect[Num]=(rvm_ptr_t)Handler;
    return 0;
}
 80211f8:	4770      	bx	lr
 80211fa:	bf00      	nop
 80211fc:	20029108 	.word	0x20029108

08021200 <RVM_Enable_Int>:
Return      : None.
******************************************************************************/
rvm_ret_t RVM_Hypercall(rvm_ptr_t Number, rvm_ptr_t Param1, rvm_ptr_t Param2, rvm_ptr_t Param3, rvm_ptr_t Param4)
{
    /* Pass the parameters */
    RVM_Param.Number=Number;
 8021200:	4b05      	ldr	r3, [pc, #20]	; (8021218 <RVM_Enable_Int+0x18>)
 8021202:	2200      	movs	r2, #0
Return      : None.
******************************************************************************/
void RVM_Enable_Int(void)
{
    /* Must be successful */
    RVM_Int_Enable=1;
 8021204:	4905      	ldr	r1, [pc, #20]	; (802121c <RVM_Enable_Int+0x1c>)
 8021206:	2001      	movs	r0, #1
Return      : None.
******************************************************************************/
rvm_ret_t RVM_Hypercall(rvm_ptr_t Number, rvm_ptr_t Param1, rvm_ptr_t Param2, rvm_ptr_t Param3, rvm_ptr_t Param4)
{
    /* Pass the parameters */
    RVM_Param.Number=Number;
 8021208:	601a      	str	r2, [r3, #0]
Return      : None.
******************************************************************************/
void RVM_Enable_Int(void)
{
    /* Must be successful */
    RVM_Int_Enable=1;
 802120a:	6008      	str	r0, [r1, #0]
******************************************************************************/
rvm_ret_t RVM_Hypercall(rvm_ptr_t Number, rvm_ptr_t Param1, rvm_ptr_t Param2, rvm_ptr_t Param3, rvm_ptr_t Param4)
{
    /* Pass the parameters */
    RVM_Param.Number=Number;
    RVM_Param.Param[0]=Param1;
 802120c:	605a      	str	r2, [r3, #4]
    RVM_Param.Param[1]=Param2;
 802120e:	609a      	str	r2, [r3, #8]
    RVM_Param.Param[2]=Param3;
 8021210:	60da      	str	r2, [r3, #12]
    RVM_Param.Param[3]=Param4;
 8021212:	611a      	str	r2, [r3, #16]
    
    /* Do the hypercall */
    _RVM_Hypercall();
 8021214:	f7fe bf30 	b.w	8020078 <_RVM_Hypercall>
 8021218:	200290f4 	.word	0x200290f4
 802121c:	20028564 	.word	0x20028564

08021220 <RVM_Mask_Int>:
Output      : None.
Return      : None.
******************************************************************************/
void RVM_Mask_Int(void)
{
    RVM_Int_Pend=0;
 8021220:	2300      	movs	r3, #0
 8021222:	4902      	ldr	r1, [pc, #8]	; (802122c <RVM_Mask_Int+0xc>)
    RVM_Int_Enable=0;
 8021224:	4a02      	ldr	r2, [pc, #8]	; (8021230 <RVM_Mask_Int+0x10>)
Output      : None.
Return      : None.
******************************************************************************/
void RVM_Mask_Int(void)
{
    RVM_Int_Pend=0;
 8021226:	600b      	str	r3, [r1, #0]
    RVM_Int_Enable=0;
 8021228:	6013      	str	r3, [r2, #0]
 802122a:	4770      	bx	lr
 802122c:	20028560 	.word	0x20028560
 8021230:	20028564 	.word	0x20028564

08021234 <RVM_Unmask_Int>:
******************************************************************************/
void RVM_Unmask_Int(void)
{
    RVM_Int_Enable=1;
    /* Trigger interrupt processing if there are pending ones */
    if(RVM_Int_Pend!=0)
 8021234:	4b05      	ldr	r3, [pc, #20]	; (802124c <RVM_Unmask_Int+0x18>)
Output      : None.
Return      : None.
******************************************************************************/
void RVM_Unmask_Int(void)
{
    RVM_Int_Enable=1;
 8021236:	2001      	movs	r0, #1
 8021238:	4905      	ldr	r1, [pc, #20]	; (8021250 <RVM_Unmask_Int+0x1c>)
    /* Trigger interrupt processing if there are pending ones */
    if(RVM_Int_Pend!=0)
 802123a:	681a      	ldr	r2, [r3, #0]
Output      : None.
Return      : None.
******************************************************************************/
void RVM_Unmask_Int(void)
{
    RVM_Int_Enable=1;
 802123c:	6008      	str	r0, [r1, #0]
    /* Trigger interrupt processing if there are pending ones */
    if(RVM_Int_Pend!=0)
 802123e:	b902      	cbnz	r2, 8021242 <RVM_Unmask_Int+0xe>
 8021240:	4770      	bx	lr
    {
        RVM_Int_Pend=0;
 8021242:	2200      	movs	r2, #0
 8021244:	601a      	str	r2, [r3, #0]
        _RVM_Yield();
 8021246:	f7fe bf2d 	b.w	80200a4 <_RVM_Yield>
 802124a:	bf00      	nop
 802124c:	20028560 	.word	0x20028560
 8021250:	20028564 	.word	0x20028564

08021254 <RVM_Reg_Int>:
Output      : None.
Return      : rvm_ret_t - If successful, the interrupt registration ID; else an error code.
******************************************************************************/
rvm_ret_t RVM_Reg_Int(rvm_ptr_t Vect_Num, rvm_ptr_t Int_Num)
{
    if(Vect_Num>=RVM_Img.Kcap_Num)
 8021254:	b960      	cbnz	r0, 8021270 <RVM_Reg_Int+0x1c>
Return      : None.
******************************************************************************/
rvm_ret_t RVM_Hypercall(rvm_ptr_t Number, rvm_ptr_t Param1, rvm_ptr_t Param2, rvm_ptr_t Param3, rvm_ptr_t Param4)
{
    /* Pass the parameters */
    RVM_Param.Number=Number;
 8021256:	2202      	movs	r2, #2
    RVM_Param.Param[0]=Param1;
 8021258:	231e      	movs	r3, #30
              rvm_ptr_t Int_Num - The virtual vector number.
Output      : None.
Return      : rvm_ret_t - If successful, the interrupt registration ID; else an error code.
******************************************************************************/
rvm_ret_t RVM_Reg_Int(rvm_ptr_t Vect_Num, rvm_ptr_t Int_Num)
{
 802125a:	b510      	push	{r4, lr}
Return      : None.
******************************************************************************/
rvm_ret_t RVM_Hypercall(rvm_ptr_t Number, rvm_ptr_t Param1, rvm_ptr_t Param2, rvm_ptr_t Param3, rvm_ptr_t Param4)
{
    /* Pass the parameters */
    RVM_Param.Number=Number;
 802125c:	4c06      	ldr	r4, [pc, #24]	; (8021278 <RVM_Reg_Int+0x24>)
    RVM_Param.Param[0]=Param1;
    RVM_Param.Param[1]=Param2;
    RVM_Param.Param[2]=Param3;
 802125e:	60e0      	str	r0, [r4, #12]
    RVM_Param.Param[3]=Param4;
 8021260:	6120      	str	r0, [r4, #16]
rvm_ret_t RVM_Hypercall(rvm_ptr_t Number, rvm_ptr_t Param1, rvm_ptr_t Param2, rvm_ptr_t Param3, rvm_ptr_t Param4)
{
    /* Pass the parameters */
    RVM_Param.Number=Number;
    RVM_Param.Param[0]=Param1;
    RVM_Param.Param[1]=Param2;
 8021262:	60a1      	str	r1, [r4, #8]
******************************************************************************/
rvm_ret_t RVM_Hypercall(rvm_ptr_t Number, rvm_ptr_t Param1, rvm_ptr_t Param2, rvm_ptr_t Param3, rvm_ptr_t Param4)
{
    /* Pass the parameters */
    RVM_Param.Number=Number;
    RVM_Param.Param[0]=Param1;
 8021264:	e884 000c 	stmia.w	r4, {r2, r3}
    RVM_Param.Param[1]=Param2;
    RVM_Param.Param[2]=Param3;
    RVM_Param.Param[3]=Param4;
    
    /* Do the hypercall */
    _RVM_Hypercall();
 8021268:	f7fe ff06 	bl	8020078 <_RVM_Hypercall>
    
    /* Return the result */
    return RVM_Param.Param[0];
 802126c:	6860      	ldr	r0, [r4, #4]
rvm_ret_t RVM_Reg_Int(rvm_ptr_t Vect_Num, rvm_ptr_t Int_Num)
{
    if(Vect_Num>=RVM_Img.Kcap_Num)
        return -1;
    
    return RVM_Hypercall(RVM_HYP_REGINT,RVM_Img.Kcap[Vect_Num],Int_Num,0,0);
 802126e:	bd10      	pop	{r4, pc}
Return      : rvm_ret_t - If successful, the interrupt registration ID; else an error code.
******************************************************************************/
rvm_ret_t RVM_Reg_Int(rvm_ptr_t Vect_Num, rvm_ptr_t Int_Num)
{
    if(Vect_Num>=RVM_Img.Kcap_Num)
        return -1;
 8021270:	f04f 30ff 	mov.w	r0, #4294967295
 8021274:	4770      	bx	lr
 8021276:	bf00      	nop
 8021278:	200290f4 	.word	0x200290f4

0802127c <RVM_Print>:
Input       : None.
Output      : None.
Return      : rvm_ret_t - If successful, 0; else -1.
******************************************************************************/
rvm_ret_t RVM_Print(void)
{
 802127c:	b510      	push	{r4, lr}
******************************************************************************/
rvm_ret_t RVM_Hypercall(rvm_ptr_t Number, rvm_ptr_t Param1, rvm_ptr_t Param2, rvm_ptr_t Param3, rvm_ptr_t Param4)
{
    /* Pass the parameters */
    RVM_Param.Number=Number;
    RVM_Param.Param[0]=Param1;
 802127e:	2300      	movs	r3, #0
Return      : None.
******************************************************************************/
rvm_ret_t RVM_Hypercall(rvm_ptr_t Number, rvm_ptr_t Param1, rvm_ptr_t Param2, rvm_ptr_t Param3, rvm_ptr_t Param4)
{
    /* Pass the parameters */
    RVM_Param.Number=Number;
 8021280:	4c05      	ldr	r4, [pc, #20]	; (8021298 <RVM_Print+0x1c>)
    RVM_Param.Param[0]=Param1;
 8021282:	220b      	movs	r2, #11
    RVM_Param.Param[1]=Param2;
 8021284:	60a3      	str	r3, [r4, #8]
    RVM_Param.Param[2]=Param3;
 8021286:	60e3      	str	r3, [r4, #12]
    RVM_Param.Param[3]=Param4;
 8021288:	6123      	str	r3, [r4, #16]
******************************************************************************/
rvm_ret_t RVM_Hypercall(rvm_ptr_t Number, rvm_ptr_t Param1, rvm_ptr_t Param2, rvm_ptr_t Param3, rvm_ptr_t Param4)
{
    /* Pass the parameters */
    RVM_Param.Number=Number;
    RVM_Param.Param[0]=Param1;
 802128a:	e884 000c 	stmia.w	r4, {r2, r3}
    RVM_Param.Param[1]=Param2;
    RVM_Param.Param[2]=Param3;
    RVM_Param.Param[3]=Param4;
    
    /* Do the hypercall */
    _RVM_Hypercall();
 802128e:	f7fe fef3 	bl	8020078 <_RVM_Hypercall>
Return      : rvm_ret_t - If successful, 0; else -1.
******************************************************************************/
rvm_ret_t RVM_Print(void)
{
    return RVM_Hypercall(RVM_HYP_PRINT,0,0,0,0);
}
 8021292:	6860      	ldr	r0, [r4, #4]
 8021294:	bd10      	pop	{r4, pc}
 8021296:	bf00      	nop
 8021298:	200290f4 	.word	0x200290f4

0802129c <RVM_Yield>:
Input       : None.
Output      : None.
Return      : None.
******************************************************************************/
void RVM_Yield(void)
{
 802129c:	b508      	push	{r3, lr}
    RVM_Fetch_Or(RVM_Flag,0x02);
 802129e:	2102      	movs	r1, #2
 80212a0:	4808      	ldr	r0, [pc, #32]	; (80212c4 <RVM_Yield+0x28>)
 80212a2:	f7fe fedd 	bl	8020060 <RVM_Fetch_Or>
    
    /* We send a new trigger if the interrupt is not masked and we are not in interrupt */
    if(RVM_Int_Active==0)
 80212a6:	4b08      	ldr	r3, [pc, #32]	; (80212c8 <RVM_Yield+0x2c>)
 80212a8:	681b      	ldr	r3, [r3, #0]
 80212aa:	b92b      	cbnz	r3, 80212b8 <RVM_Yield+0x1c>
    {
        if(RVM_Int_Enable!=0)
 80212ac:	4b07      	ldr	r3, [pc, #28]	; (80212cc <RVM_Yield+0x30>)
 80212ae:	681b      	ldr	r3, [r3, #0]
 80212b0:	b91b      	cbnz	r3, 80212ba <RVM_Yield+0x1e>
            _RVM_Yield();
        else
            RVM_Int_Pend=1;
 80212b2:	4b07      	ldr	r3, [pc, #28]	; (80212d0 <RVM_Yield+0x34>)
 80212b4:	2201      	movs	r2, #1
 80212b6:	601a      	str	r2, [r3, #0]
 80212b8:	bd08      	pop	{r3, pc}
    }
}
 80212ba:	e8bd 4008 	ldmia.w	sp!, {r3, lr}
    
    /* We send a new trigger if the interrupt is not masked and we are not in interrupt */
    if(RVM_Int_Active==0)
    {
        if(RVM_Int_Enable!=0)
            _RVM_Yield();
 80212be:	f7fe bef1 	b.w	80200a4 <_RVM_Yield>
 80212c2:	bf00      	nop
 80212c4:	200290f0 	.word	0x200290f0
 80212c8:	20028568 	.word	0x20028568
 80212cc:	20028564 	.word	0x20028564
 80212d0:	20028560 	.word	0x20028560

080212d4 <RVM_HW_Int_Enable>:
Output      : None.
Return      : rvm_ret_t - If successful, 0; else -1.
******************************************************************************/
rvm_ret_t RVM_HW_Int_Enable(rvm_ptr_t Int_ID)
{
    if(Int_ID>=RVM_Img.Kcap_Num)
 80212d4:	4602      	mov	r2, r0
 80212d6:	b918      	cbnz	r0, 80212e0 <RVM_HW_Int_Enable+0xc>
        return -1;
    
    return _RVM_Kern(Int_ID, RVM_CMX_KERN_INT(RVM_Img.Kcap[Int_ID]), RVM_CMX_INT_OP, RVM_CMX_INT_ENABLE);
 80212d8:	2301      	movs	r3, #1
 80212da:	211e      	movs	r1, #30
 80212dc:	f7fe beec 	b.w	80200b8 <_RVM_Kern>
}
 80212e0:	f04f 30ff 	mov.w	r0, #4294967295
 80212e4:	4770      	bx	lr
 80212e6:	bf00      	nop

080212e8 <RVM_HW_Int_Disable>:
Output      : None.
Return      : rvm_ret_t - If successful, 0; else -1.
******************************************************************************/
rvm_ret_t RVM_HW_Int_Disable(rvm_ptr_t Int_ID)
{
    if(Int_ID>=RVM_Img.Kcap_Num)
 80212e8:	4603      	mov	r3, r0
 80212ea:	b918      	cbnz	r0, 80212f4 <RVM_HW_Int_Disable+0xc>
        return -1;
    
    return _RVM_Kern(Int_ID, RVM_CMX_KERN_INT(RVM_Img.Kcap[Int_ID]), RVM_CMX_INT_OP, RVM_CMX_INT_DISABLE);
 80212ec:	4602      	mov	r2, r0
 80212ee:	211e      	movs	r1, #30
 80212f0:	f7fe bee2 	b.w	80200b8 <_RVM_Kern>
}
 80212f4:	f04f 30ff 	mov.w	r0, #4294967295
 80212f8:	4770      	bx	lr
 80212fa:	bf00      	nop

080212fc <RVM_HW_Int_Prio>:
Output      : None.
Return      : rvm_ret_t - If successful, 0; else -1.
******************************************************************************/
rvm_ret_t RVM_HW_Int_Prio(rvm_ptr_t Int_ID, rvm_ptr_t Prio)
{
    if(Int_ID>=RVM_Img.Kcap_Num)
 80212fc:	b920      	cbnz	r0, 8021308 <RVM_HW_Int_Prio+0xc>
        return -1;
    
    return _RVM_Kern(Int_ID, RVM_CMX_KERN_INT(RVM_Img.Kcap[Int_ID]), RVM_CMX_INT_PRIO, Prio);
 80212fe:	460b      	mov	r3, r1
 8021300:	2201      	movs	r2, #1
 8021302:	211e      	movs	r1, #30
 8021304:	f7fe bed8 	b.w	80200b8 <_RVM_Kern>
}
 8021308:	f04f 30ff 	mov.w	r0, #4294967295
 802130c:	4770      	bx	lr
 802130e:	bf00      	nop

08021310 <RMP_Clear>:
{
    rmp_u8_t* Ptr;
    rmp_cnt_t Count;
   
    Ptr=(rmp_u8_t*)Addr;
    for(Count=0;Count<(rmp_cnt_t)Size;Count++)
 8021310:	2900      	cmp	r1, #0
              rmp_ptr_t Size - The size to clear.
Output      : None.
Return      : None.
******************************************************************************/
void RMP_Clear(volatile void* Addr, rmp_ptr_t Size)
{
 8021312:	b5f0      	push	{r4, r5, r6, r7, lr}
    rmp_u8_t* Ptr;
    rmp_cnt_t Count;
   
    Ptr=(rmp_u8_t*)Addr;
    for(Count=0;Count<(rmp_cnt_t)Size;Count++)
 8021314:	dd3d      	ble.n	8021392 <RMP_Clear+0x82>
 8021316:	4243      	negs	r3, r0
 8021318:	f003 0303 	and.w	r3, r3, #3
 802131c:	428b      	cmp	r3, r1
 802131e:	bf28      	it	cs
 8021320:	460b      	movcs	r3, r1
 8021322:	2906      	cmp	r1, #6
 8021324:	d839      	bhi.n	802139a <RMP_Clear+0x8a>
 8021326:	460b      	mov	r3, r1
        Ptr[Count]=0;
 8021328:	2200      	movs	r2, #0
 802132a:	2b01      	cmp	r3, #1
 802132c:	7002      	strb	r2, [r0, #0]
 802132e:	d032      	beq.n	8021396 <RMP_Clear+0x86>
 8021330:	2b02      	cmp	r3, #2
 8021332:	7042      	strb	r2, [r0, #1]
 8021334:	d02f      	beq.n	8021396 <RMP_Clear+0x86>
 8021336:	2b03      	cmp	r3, #3
 8021338:	7082      	strb	r2, [r0, #2]
 802133a:	d02c      	beq.n	8021396 <RMP_Clear+0x86>
 802133c:	2b04      	cmp	r3, #4
 802133e:	70c2      	strb	r2, [r0, #3]
 8021340:	d029      	beq.n	8021396 <RMP_Clear+0x86>
 8021342:	2b06      	cmp	r3, #6
 8021344:	7102      	strb	r2, [r0, #4]
 8021346:	d12c      	bne.n	80213a2 <RMP_Clear+0x92>
 8021348:	7142      	strb	r2, [r0, #5]
{
    rmp_u8_t* Ptr;
    rmp_cnt_t Count;
   
    Ptr=(rmp_u8_t*)Addr;
    for(Count=0;Count<(rmp_cnt_t)Size;Count++)
 802134a:	461a      	mov	r2, r3
 802134c:	4299      	cmp	r1, r3
 802134e:	d021      	beq.n	8021394 <RMP_Clear+0x84>
 8021350:	1ace      	subs	r6, r1, r3
 8021352:	1e4d      	subs	r5, r1, #1
 8021354:	1f34      	subs	r4, r6, #4
 8021356:	1aed      	subs	r5, r5, r3
 8021358:	08a4      	lsrs	r4, r4, #2
 802135a:	2d02      	cmp	r5, #2
 802135c:	f104 0401 	add.w	r4, r4, #1
 8021360:	ea4f 0784 	mov.w	r7, r4, lsl #2
 8021364:	d90a      	bls.n	802137c <RMP_Clear+0x6c>
 8021366:	2500      	movs	r5, #0
 8021368:	4403      	add	r3, r0
        Ptr[Count]=0;
 802136a:	46ae      	mov	lr, r5
 802136c:	3501      	adds	r5, #1
 802136e:	f843 eb04 	str.w	lr, [r3], #4
 8021372:	42ac      	cmp	r4, r5
 8021374:	d8fa      	bhi.n	802136c <RMP_Clear+0x5c>
 8021376:	42be      	cmp	r6, r7
 8021378:	443a      	add	r2, r7
 802137a:	d00a      	beq.n	8021392 <RMP_Clear+0x82>
{
    rmp_u8_t* Ptr;
    rmp_cnt_t Count;
   
    Ptr=(rmp_u8_t*)Addr;
    for(Count=0;Count<(rmp_cnt_t)Size;Count++)
 802137c:	1c54      	adds	r4, r2, #1
        Ptr[Count]=0;
 802137e:	2300      	movs	r3, #0
{
    rmp_u8_t* Ptr;
    rmp_cnt_t Count;
   
    Ptr=(rmp_u8_t*)Addr;
    for(Count=0;Count<(rmp_cnt_t)Size;Count++)
 8021380:	42a1      	cmp	r1, r4
        Ptr[Count]=0;
 8021382:	5483      	strb	r3, [r0, r2]
{
    rmp_u8_t* Ptr;
    rmp_cnt_t Count;
   
    Ptr=(rmp_u8_t*)Addr;
    for(Count=0;Count<(rmp_cnt_t)Size;Count++)
 8021384:	dd05      	ble.n	8021392 <RMP_Clear+0x82>
 8021386:	3202      	adds	r2, #2
        Ptr[Count]=0;
 8021388:	5503      	strb	r3, [r0, r4]
{
    rmp_u8_t* Ptr;
    rmp_cnt_t Count;
   
    Ptr=(rmp_u8_t*)Addr;
    for(Count=0;Count<(rmp_cnt_t)Size;Count++)
 802138a:	4291      	cmp	r1, r2
 802138c:	dd01      	ble.n	8021392 <RMP_Clear+0x82>
        Ptr[Count]=0;
 802138e:	5483      	strb	r3, [r0, r2]
 8021390:	bdf0      	pop	{r4, r5, r6, r7, pc}
 8021392:	bdf0      	pop	{r4, r5, r6, r7, pc}
 8021394:	bdf0      	pop	{r4, r5, r6, r7, pc}
{
    rmp_u8_t* Ptr;
    rmp_cnt_t Count;
   
    Ptr=(rmp_u8_t*)Addr;
    for(Count=0;Count<(rmp_cnt_t)Size;Count++)
 8021396:	461a      	mov	r2, r3
 8021398:	e7d8      	b.n	802134c <RMP_Clear+0x3c>
 802139a:	2b00      	cmp	r3, #0
 802139c:	d1c4      	bne.n	8021328 <RMP_Clear+0x18>
 802139e:	461a      	mov	r2, r3
 80213a0:	e7d6      	b.n	8021350 <RMP_Clear+0x40>
 80213a2:	2205      	movs	r2, #5
 80213a4:	e7d2      	b.n	802134c <RMP_Clear+0x3c>
 80213a6:	bf00      	nop

080213a8 <RMP_Print_Int>:
    rmp_cnt_t Count;
    rmp_cnt_t Num;
    rmp_ptr_t Div;
    
    /* how many digits are there? */
    if(Int==0)
 80213a8:	2800      	cmp	r0, #0
Input       : rmp_cnt_t Int - The integer to print.
Output      : None.
Return      : rmp_cnt_t - The length of the string printed.
******************************************************************************/
rmp_cnt_t RMP_Print_Int(rmp_cnt_t Int)
{
 80213aa:	e92d 41f0 	stmdb	sp!, {r4, r5, r6, r7, r8, lr}
    rmp_cnt_t Count;
    rmp_cnt_t Num;
    rmp_ptr_t Div;
    
    /* how many digits are there? */
    if(Int==0)
 80213ae:	d052      	beq.n	8021456 <RMP_Print_Int+0xae>
    {
        RMP_Putchar('0');
        return 1;
    }
    else if(Int<0)
 80213b0:	db25      	blt.n	80213fe <RMP_Print_Int+0x56>
    else
    {
        /* How many digits are there? */
        Count=0;
        Div=1;
        Iter=Int;
 80213b2:	4605      	mov	r5, r0
    }
    else
    {
        /* How many digits are there? */
        Count=0;
        Div=1;
 80213b4:	2401      	movs	r4, #1
        }
    }
    else
    {
        /* How many digits are there? */
        Count=0;
 80213b6:	2600      	movs	r6, #0
        Div=1;
        Iter=Int;
        while(Iter!=0)
        {
            Iter/=10;
 80213b8:	492d      	ldr	r1, [pc, #180]	; (8021470 <RMP_Print_Int+0xc8>)
    else
    {
        /* How many digits are there? */
        Count=0;
        Div=1;
        Iter=Int;
 80213ba:	4603      	mov	r3, r0
        while(Iter!=0)
        {
            Iter/=10;
 80213bc:	fba1 2303 	umull	r2, r3, r1, r3
            Count++;
            Div*=10;
 80213c0:	eb04 0484 	add.w	r4, r4, r4, lsl #2
        Div=1;
        Iter=Int;
        while(Iter!=0)
        {
            Iter/=10;
            Count++;
 80213c4:	3601      	adds	r6, #1
        Count=0;
        Div=1;
        Iter=Int;
        while(Iter!=0)
        {
            Iter/=10;
 80213c6:	4a2a      	ldr	r2, [pc, #168]	; (8021470 <RMP_Print_Int+0xc8>)
    {
        /* How many digits are there? */
        Count=0;
        Div=1;
        Iter=Int;
        while(Iter!=0)
 80213c8:	08db      	lsrs	r3, r3, #3
        {
            Iter/=10;
            Count++;
            Div*=10;
 80213ca:	ea4f 0444 	mov.w	r4, r4, lsl #1
    {
        /* How many digits are there? */
        Count=0;
        Div=1;
        Iter=Int;
        while(Iter!=0)
 80213ce:	d1f5      	bne.n	80213bc <RMP_Print_Int+0x14>
        {
            Iter/=10;
            Count++;
            Div*=10;
        }
        Div/=10;
 80213d0:	fba2 3404 	umull	r3, r4, r2, r4
        while(Count>0)
        {
            Count--;
            RMP_Putchar(Iter/Div+'0');
            Iter=Iter%Div;
            Div/=10;
 80213d4:	4690      	mov	r8, r2
        {
            Iter/=10;
            Count++;
            Div*=10;
        }
        Div/=10;
 80213d6:	4637      	mov	r7, r6
 80213d8:	08e4      	lsrs	r4, r4, #3
        Iter=Int;
        Num=Count;
        
        while(Count>0)
        {
            Count--;
 80213da:	3f01      	subs	r7, #1
            RMP_Putchar(Iter/Div+'0');
 80213dc:	fbb5 f3f4 	udiv	r3, r5, r4
 80213e0:	f103 0030 	add.w	r0, r3, #48	; 0x30
            Iter=Iter%Div;
 80213e4:	fb04 5513 	mls	r5, r4, r3, r5
            Div/=10;
 80213e8:	fba8 3404 	umull	r3, r4, r8, r4
        Num=Count;
        
        while(Count>0)
        {
            Count--;
            RMP_Putchar(Iter/Div+'0');
 80213ec:	b2c0      	uxtb	r0, r0
 80213ee:	f7ff fe5b 	bl	80210a8 <RMP_Putchar>
            Iter=Iter%Div;
            Div/=10;
 80213f2:	08e4      	lsrs	r4, r4, #3
        Div/=10;
        
        Iter=Int;
        Num=Count;
        
        while(Count>0)
 80213f4:	2f00      	cmp	r7, #0
 80213f6:	d1f0      	bne.n	80213da <RMP_Print_Int+0x32>
 80213f8:	4630      	mov	r0, r6
 80213fa:	e8bd 81f0 	ldmia.w	sp!, {r4, r5, r6, r7, r8, pc}
    else if(Int<0)
    {
        /* How many digits are there? */
        Count=0;
        Div=1;
        Iter=(rmp_ptr_t)(-Int);
 80213fe:	4245      	negs	r5, r0
        while(Iter!=0)
 8021400:	b37d      	cbz	r5, 8021462 <RMP_Print_Int+0xba>
 8021402:	462b      	mov	r3, r5
 8021404:	2401      	movs	r4, #1
 8021406:	2000      	movs	r0, #0
        {
            Iter/=10;
 8021408:	4919      	ldr	r1, [pc, #100]	; (8021470 <RMP_Print_Int+0xc8>)
 802140a:	e000      	b.n	802140e <RMP_Print_Int+0x66>
            Count++;
 802140c:	4638      	mov	r0, r7
        Count=0;
        Div=1;
        Iter=(rmp_ptr_t)(-Int);
        while(Iter!=0)
        {
            Iter/=10;
 802140e:	fba1 2303 	umull	r2, r3, r1, r3
            Count++;
            Div*=10;
 8021412:	eb04 0484 	add.w	r4, r4, r4, lsl #2
        Count=0;
        Div=1;
        Iter=(rmp_ptr_t)(-Int);
        while(Iter!=0)
        {
            Iter/=10;
 8021416:	4a16      	ldr	r2, [pc, #88]	; (8021470 <RMP_Print_Int+0xc8>)
            Count++;
 8021418:	1c47      	adds	r7, r0, #1
    {
        /* How many digits are there? */
        Count=0;
        Div=1;
        Iter=(rmp_ptr_t)(-Int);
        while(Iter!=0)
 802141a:	08db      	lsrs	r3, r3, #3
        {
            Iter/=10;
            Count++;
            Div*=10;
 802141c:	ea4f 0444 	mov.w	r4, r4, lsl #1
    {
        /* How many digits are there? */
        Count=0;
        Div=1;
        Iter=(rmp_ptr_t)(-Int);
        while(Iter!=0)
 8021420:	d1f4      	bne.n	802140c <RMP_Print_Int+0x64>
        {
            Iter/=10;
            Count++;
            Div*=10;
        }
        Div/=10;
 8021422:	fba2 3404 	umull	r3, r4, r2, r4
        
        RMP_Putchar('-');
        Iter=-Int;
        Num=Count+1;
 8021426:	1c86      	adds	r6, r0, #2
            Count++;
            Div*=10;
        }
        Div/=10;
        
        RMP_Putchar('-');
 8021428:	202d      	movs	r0, #45	; 0x2d
        while(Count>0)
        {
            Count--;
            RMP_Putchar(Iter/Div+'0');
            Iter=Iter%Div;
            Div/=10;
 802142a:	4690      	mov	r8, r2
        {
            Iter/=10;
            Count++;
            Div*=10;
        }
        Div/=10;
 802142c:	08e4      	lsrs	r4, r4, #3
        
        RMP_Putchar('-');
 802142e:	f7ff fe3b 	bl	80210a8 <RMP_Putchar>
        Iter=-Int;
        Num=Count+1;
        
        while(Count>0)
        {
            Count--;
 8021432:	3f01      	subs	r7, #1
            RMP_Putchar(Iter/Div+'0');
 8021434:	fbb5 f3f4 	udiv	r3, r5, r4
 8021438:	f103 0030 	add.w	r0, r3, #48	; 0x30
            Iter=Iter%Div;
 802143c:	fb04 5513 	mls	r5, r4, r3, r5
            Div/=10;
 8021440:	fba8 3404 	umull	r3, r4, r8, r4
        Num=Count+1;
        
        while(Count>0)
        {
            Count--;
            RMP_Putchar(Iter/Div+'0');
 8021444:	b2c0      	uxtb	r0, r0
 8021446:	f7ff fe2f 	bl	80210a8 <RMP_Putchar>
            Iter=Iter%Div;
            Div/=10;
 802144a:	08e4      	lsrs	r4, r4, #3
        
        RMP_Putchar('-');
        Iter=-Int;
        Num=Count+1;
        
        while(Count>0)
 802144c:	2f00      	cmp	r7, #0
 802144e:	d1f0      	bne.n	8021432 <RMP_Print_Int+0x8a>
 8021450:	4630      	mov	r0, r6
 8021452:	e8bd 81f0 	ldmia.w	sp!, {r4, r5, r6, r7, r8, pc}
    rmp_ptr_t Div;
    
    /* how many digits are there? */
    if(Int==0)
    {
        RMP_Putchar('0');
 8021456:	2030      	movs	r0, #48	; 0x30
 8021458:	f7ff fe26 	bl	80210a8 <RMP_Putchar>
        return 1;
 802145c:	2001      	movs	r0, #1
 802145e:	e8bd 81f0 	ldmia.w	sp!, {r4, r5, r6, r7, r8, pc}
            Count++;
            Div*=10;
        }
        Div/=10;
        
        RMP_Putchar('-');
 8021462:	202d      	movs	r0, #45	; 0x2d
 8021464:	f7ff fe20 	bl	80210a8 <RMP_Putchar>
        Iter=-Int;
        Num=Count+1;
 8021468:	2001      	movs	r0, #1
            Div/=10;
        }
    }
    
    return Num;
}
 802146a:	e8bd 81f0 	ldmia.w	sp!, {r4, r5, r6, r7, r8, pc}
 802146e:	bf00      	nop
 8021470:	cccccccd 	.word	0xcccccccd

08021474 <RMP_Print_String>:
Input       : rmp_s8_t* String - The string to print
Output      : None.
Return      : rmp_cnt_t - The length of the string printed, the '\0' is not included.
******************************************************************************/
rmp_cnt_t RMP_Print_String(rmp_s8_t* String)
{
 8021474:	b538      	push	{r3, r4, r5, lr}
 8021476:	1e45      	subs	r5, r0, #1
    rmp_cnt_t Count;
    
    Count=0;
 8021478:	2400      	movs	r4, #0
 802147a:	e004      	b.n	8021486 <RMP_Print_String+0x12>
    while(Count<RMP_KERNEL_DEBUG_MAX_STR)
    {
        if(String[Count]=='\0')
            break;
        
        RMP_Putchar(String[Count++]);
 802147c:	3401      	adds	r4, #1
 802147e:	f7ff fe13 	bl	80210a8 <RMP_Putchar>
rmp_cnt_t RMP_Print_String(rmp_s8_t* String)
{
    rmp_cnt_t Count;
    
    Count=0;
    while(Count<RMP_KERNEL_DEBUG_MAX_STR)
 8021482:	2c80      	cmp	r4, #128	; 0x80
 8021484:	d004      	beq.n	8021490 <RMP_Print_String+0x1c>
    {
        if(String[Count]=='\0')
 8021486:	f915 3f01 	ldrsb.w	r3, [r5, #1]!
            break;
        
        RMP_Putchar(String[Count++]);
 802148a:	b2d8      	uxtb	r0, r3
    rmp_cnt_t Count;
    
    Count=0;
    while(Count<RMP_KERNEL_DEBUG_MAX_STR)
    {
        if(String[Count]=='\0')
 802148c:	2b00      	cmp	r3, #0
 802148e:	d1f5      	bne.n	802147c <RMP_Print_String+0x8>
        
        RMP_Putchar(String[Count++]);
    }
    
    return Count;
}
 8021490:	4620      	mov	r0, r4
 8021492:	bd38      	pop	{r3, r4, r5, pc}

08021494 <RMP_Lock_Sched>:
Input       : None.
Output      : None.
Return      : None.
******************************************************************************/
void RMP_Lock_Sched(void)
{
 8021494:	b508      	push	{r3, lr}
    RMP_MASK_INT();
 8021496:	f7ff fec3 	bl	8021220 <RVM_Mask_Int>
    RMP_Sched_Locked=1;
 802149a:	4b04      	ldr	r3, [pc, #16]	; (80214ac <RMP_Lock_Sched+0x18>)
 802149c:	2101      	movs	r1, #1
    RMP_Sched_Lock_Cnt++;
 802149e:	4a04      	ldr	r2, [pc, #16]	; (80214b0 <RMP_Lock_Sched+0x1c>)
Return      : None.
******************************************************************************/
void RMP_Lock_Sched(void)
{
    RMP_MASK_INT();
    RMP_Sched_Locked=1;
 80214a0:	6019      	str	r1, [r3, #0]
    RMP_Sched_Lock_Cnt++;
 80214a2:	6813      	ldr	r3, [r2, #0]
 80214a4:	440b      	add	r3, r1
 80214a6:	6013      	str	r3, [r2, #0]
 80214a8:	bd08      	pop	{r3, pc}
 80214aa:	bf00      	nop
 80214ac:	200287c0 	.word	0x200287c0
 80214b0:	20028774 	.word	0x20028774

080214b4 <RMP_Unlock_Sched>:
Input       : None.
Output      : None.
Return      : None.
******************************************************************************/
void RMP_Unlock_Sched(void)
{
 80214b4:	b508      	push	{r3, lr}
    if(RMP_Sched_Lock_Cnt==1)
 80214b6:	4b0f      	ldr	r3, [pc, #60]	; (80214f4 <RMP_Unlock_Sched+0x40>)
 80214b8:	681a      	ldr	r2, [r3, #0]
 80214ba:	2a01      	cmp	r2, #1
 80214bc:	d006      	beq.n	80214cc <RMP_Unlock_Sched+0x18>
        else
            RMP_COVERAGE_MARKER();
        
        RMP_UNMASK_INT();
    }
    else if(RMP_Sched_Lock_Cnt>1)
 80214be:	681a      	ldr	r2, [r3, #0]
 80214c0:	2a01      	cmp	r2, #1
 80214c2:	d90e      	bls.n	80214e2 <RMP_Unlock_Sched+0x2e>
    {
        RMP_COVERAGE_MARKER();
        RMP_Sched_Lock_Cnt--;
 80214c4:	681a      	ldr	r2, [r3, #0]
 80214c6:	3a01      	subs	r2, #1
 80214c8:	601a      	str	r2, [r3, #0]
 80214ca:	bd08      	pop	{r3, pc}
{
    if(RMP_Sched_Lock_Cnt==1)
    {
        RMP_COVERAGE_MARKER();
        /* Clear the count before enabling */
        RMP_Sched_Lock_Cnt=0;
 80214cc:	2200      	movs	r2, #0
        RMP_Sched_Locked=0;
 80214ce:	480a      	ldr	r0, [pc, #40]	; (80214f8 <RMP_Unlock_Sched+0x44>)
        /* Now see if the scheduler scheduling action is pended in the lock-unlock 
         * period. If yes, perform a schedule now */
        if(RMP_Sched_Pend!=0)
 80214d0:	490a      	ldr	r1, [pc, #40]	; (80214fc <RMP_Unlock_Sched+0x48>)
{
    if(RMP_Sched_Lock_Cnt==1)
    {
        RMP_COVERAGE_MARKER();
        /* Clear the count before enabling */
        RMP_Sched_Lock_Cnt=0;
 80214d2:	601a      	str	r2, [r3, #0]
        RMP_Sched_Locked=0;
 80214d4:	6002      	str	r2, [r0, #0]
        /* Now see if the scheduler scheduling action is pended in the lock-unlock 
         * period. If yes, perform a schedule now */
        if(RMP_Sched_Pend!=0)
 80214d6:	680b      	ldr	r3, [r1, #0]
 80214d8:	b923      	cbnz	r3, 80214e4 <RMP_Unlock_Sched+0x30>
        RMP_Sched_Lock_Cnt--;
    }
    /* Trying to unlock a scheduler that is not locked - should never happen */
    else
        while(1);
}
 80214da:	e8bd 4008 	ldmia.w	sp!, {r3, lr}
            _RMP_Yield();
        }
        else
            RMP_COVERAGE_MARKER();
        
        RMP_UNMASK_INT();
 80214de:	f7ff bea9 	b.w	8021234 <RVM_Unmask_Int>
 80214e2:	e7fe      	b.n	80214e2 <RMP_Unlock_Sched+0x2e>
         * period. If yes, perform a schedule now */
        if(RMP_Sched_Pend!=0)
        {
            RMP_COVERAGE_MARKER();
            /* Reset the count and trigger the context switch */
            RMP_Sched_Pend=0;
 80214e4:	600a      	str	r2, [r1, #0]
            _RMP_Yield();
 80214e6:	f7ff fe03 	bl	80210f0 <_RMP_Yield>
        RMP_Sched_Lock_Cnt--;
    }
    /* Trying to unlock a scheduler that is not locked - should never happen */
    else
        while(1);
}
 80214ea:	e8bd 4008 	ldmia.w	sp!, {r3, lr}
            _RMP_Yield();
        }
        else
            RMP_COVERAGE_MARKER();
        
        RMP_UNMASK_INT();
 80214ee:	f7ff bea1 	b.w	8021234 <RVM_Unmask_Int>
 80214f2:	bf00      	nop
 80214f4:	20028774 	.word	0x20028774
 80214f8:	200287c0 	.word	0x200287c0
 80214fc:	20028670 	.word	0x20028670

08021500 <RMP_Init>:
Input       : None.
Output      : None.
Return      : int - This function never returns.
******************************************************************************/
void RMP_Init(void)
{
 8021500:	b508      	push	{r3, lr}
Output      : None.
Return      : None.
******************************************************************************/
void RMP_Lock_Sched(void)
{
    RMP_MASK_INT();
 8021502:	f7ff fe8d 	bl	8021220 <RVM_Mask_Int>
    RMP_Sched_Locked=1;
 8021506:	2101      	movs	r1, #1
    RMP_Sched_Lock_Cnt++;
 8021508:	4a07      	ldr	r2, [pc, #28]	; (8021528 <RMP_Init+0x28>)
Return      : None.
******************************************************************************/
void RMP_Lock_Sched(void)
{
    RMP_MASK_INT();
    RMP_Sched_Locked=1;
 802150a:	4b08      	ldr	r3, [pc, #32]	; (802152c <RMP_Init+0x2c>)
 802150c:	6019      	str	r1, [r3, #0]
    RMP_Sched_Lock_Cnt++;
 802150e:	6813      	ldr	r3, [r2, #0]
 8021510:	440b      	add	r3, r1
 8021512:	6013      	str	r3, [r2, #0]
void RMP_Init(void)
{
    RMP_Lock_Sched();
    
    /* Platform will use this hook to do something */
    _RMP_Plat_Hook();
 8021514:	f7ff fdc6 	bl	80210a4 <_RMP_Plat_Hook>
    /* Start the second thread here */
    RMP_Init_Hook();
 8021518:	f7ff fcee 	bl	8020ef8 <RMP_Init_Hook>
    
    RMP_Unlock_Sched();
 802151c:	f7ff ffca 	bl	80214b4 <RMP_Unlock_Sched>
    
    while(1)
        RMP_Init_Idle();
 8021520:	f7ff fd54 	bl	8020fcc <RMP_Init_Idle>
 8021524:	e7fc      	b.n	8021520 <RMP_Init+0x20>
 8021526:	bf00      	nop
 8021528:	20028774 	.word	0x20028774
 802152c:	200287c0 	.word	0x200287c0

08021530 <RMP_Yield>:
Output      : None.
Return      : None.
******************************************************************************/
void RMP_Yield(void)
{
    if(RMP_Sched_Locked==0)
 8021530:	4b04      	ldr	r3, [pc, #16]	; (8021544 <RMP_Yield+0x14>)
 8021532:	681b      	ldr	r3, [r3, #0]
 8021534:	b11b      	cbz	r3, 802153e <RMP_Yield+0xe>
        _RMP_Yield();
    }
    else
    {
        RMP_COVERAGE_MARKER();
        RMP_Sched_Pend=1;
 8021536:	4b04      	ldr	r3, [pc, #16]	; (8021548 <RMP_Yield+0x18>)
 8021538:	2201      	movs	r2, #1
 802153a:	601a      	str	r2, [r3, #0]
 802153c:	4770      	bx	lr
    if(RMP_Sched_Locked==0)
    {
        RMP_COVERAGE_MARKER();
        /* Now see if the scheduler scheduling action is pended in the lock-unlock 
         * period. If yes, perform a schedule now */
        _RMP_Yield();
 802153e:	f7ff bdd7 	b.w	80210f0 <_RMP_Yield>
 8021542:	bf00      	nop
 8021544:	200287c0 	.word	0x200287c0
 8021548:	20028670 	.word	0x20028670

0802154c <_RMP_Get_High_Rdy>:
Input       : None.
Output      : None.
Return      : None.
******************************************************************************/
void _RMP_Get_High_Rdy(void)
{
 802154c:	b5f8      	push	{r3, r4, r5, r6, r7, lr}
    
    /* Write the SP value to thread structure */
    RMP_Cur_Thd->Stack=RMP_Cur_SP;
    
    /* No need to detect scheduler locks - if this interrupt can be entered, the scheduler is not locked */
    RMP_Sched_Pend=0;
 802154e:	4a1c      	ldr	r2, [pc, #112]	; (80215c0 <_RMP_Get_High_Rdy+0x74>)
 8021550:	2600      	movs	r6, #0
void _RMP_Get_High_Rdy(void)
{
    rmp_cnt_t Count;
    
    /* Write the SP value to thread structure */
    RMP_Cur_Thd->Stack=RMP_Cur_SP;
 8021552:	4c1c      	ldr	r4, [pc, #112]	; (80215c4 <_RMP_Get_High_Rdy+0x78>)
 8021554:	4d1c      	ldr	r5, [pc, #112]	; (80215c8 <_RMP_Get_High_Rdy+0x7c>)
    /* No need to detect scheduler locks - if this interrupt can be entered, the scheduler is not locked */
    RMP_Sched_Pend=0;
    /* See which one is ready, and pick it */
    for(Count=RMP_BITMAP_SIZE-1;Count>=0;Count--)
    {
        if(RMP_Bitmap[Count]==0)
 8021556:	4b1d      	ldr	r3, [pc, #116]	; (80215cc <_RMP_Get_High_Rdy+0x80>)
void _RMP_Get_High_Rdy(void)
{
    rmp_cnt_t Count;
    
    /* Write the SP value to thread structure */
    RMP_Cur_Thd->Stack=RMP_Cur_SP;
 8021558:	6821      	ldr	r1, [r4, #0]
 802155a:	6828      	ldr	r0, [r5, #0]
    
    /* No need to detect scheduler locks - if this interrupt can be entered, the scheduler is not locked */
    RMP_Sched_Pend=0;
 802155c:	6016      	str	r6, [r2, #0]
    /* See which one is ready, and pick it */
    for(Count=RMP_BITMAP_SIZE-1;Count>=0;Count--)
    {
        if(RMP_Bitmap[Count]==0)
 802155e:	681a      	ldr	r2, [r3, #0]
void _RMP_Get_High_Rdy(void)
{
    rmp_cnt_t Count;
    
    /* Write the SP value to thread structure */
    RMP_Cur_Thd->Stack=RMP_Cur_SP;
 8021560:	6348      	str	r0, [r1, #52]	; 0x34
    /* No need to detect scheduler locks - if this interrupt can be entered, the scheduler is not locked */
    RMP_Sched_Pend=0;
    /* See which one is ready, and pick it */
    for(Count=RMP_BITMAP_SIZE-1;Count>=0;Count--)
    {
        if(RMP_Bitmap[Count]==0)
 8021562:	b91a      	cbnz	r2, 802156c <_RMP_Get_High_Rdy+0x20>
        RMP_Cur_Thd=(struct RMP_Thd*)(RMP_Run[Count].Next);
        break;
    }
    
    /* Load the SP value from thread structure */
    RMP_Cur_SP=RMP_Cur_Thd->Stack;
 8021564:	6823      	ldr	r3, [r4, #0]
 8021566:	6b5b      	ldr	r3, [r3, #52]	; 0x34
 8021568:	602b      	str	r3, [r5, #0]
 802156a:	bdf8      	pop	{r3, r4, r5, r6, r7, pc}
            continue;
        }
        else
            RMP_COVERAGE_MARKER();
        
        Count=RMP_MSB_Get(RMP_Bitmap[Count])+(Count<<RMP_WORD_ORDER);
 802156c:	6818      	ldr	r0, [r3, #0]
 802156e:	f7ff fdc3 	bl	80210f8 <RMP_MSB_Get>
        
        /* See if the current thread and the next thread are the same. If yes, place the current at the end of the queue */
        if(RMP_Cur_Thd==(struct RMP_Thd*)(RMP_Run[Count].Next))
 8021572:	4b17      	ldr	r3, [pc, #92]	; (80215d0 <_RMP_Get_High_Rdy+0x84>)
 8021574:	00c0      	lsls	r0, r0, #3
 8021576:	181a      	adds	r2, r3, r0
 8021578:	6851      	ldr	r1, [r2, #4]
 802157a:	6822      	ldr	r2, [r4, #0]
 802157c:	4291      	cmp	r1, r2
 802157e:	d00a      	beq.n	8021596 <_RMP_Get_High_Rdy+0x4a>
        }
        else
            RMP_COVERAGE_MARKER();
        
        /* Replenish timeslices */
        RMP_Cur_Thd->Slices_Left=RMP_Cur_Thd->Slices;
 8021580:	6822      	ldr	r2, [r4, #0]
        RMP_Cur_Thd=(struct RMP_Thd*)(RMP_Run[Count].Next);
 8021582:	4418      	add	r0, r3
        }
        else
            RMP_COVERAGE_MARKER();
        
        /* Replenish timeslices */
        RMP_Cur_Thd->Slices_Left=RMP_Cur_Thd->Slices;
 8021584:	6823      	ldr	r3, [r4, #0]
 8021586:	69db      	ldr	r3, [r3, #28]
 8021588:	6213      	str	r3, [r2, #32]
        RMP_Cur_Thd=(struct RMP_Thd*)(RMP_Run[Count].Next);
 802158a:	6843      	ldr	r3, [r0, #4]
 802158c:	6023      	str	r3, [r4, #0]
        break;
    }
    
    /* Load the SP value from thread structure */
    RMP_Cur_SP=RMP_Cur_Thd->Stack;
 802158e:	6823      	ldr	r3, [r4, #0]
 8021590:	6b5b      	ldr	r3, [r3, #52]	; 0x34
 8021592:	602b      	str	r3, [r5, #0]
 8021594:	bdf8      	pop	{r3, r4, r5, r6, r7, pc}
        
        /* See if the current thread and the next thread are the same. If yes, place the current at the end of the queue */
        if(RMP_Cur_Thd==(struct RMP_Thd*)(RMP_Run[Count].Next))
        {
            RMP_COVERAGE_MARKER();
            RMP_List_Del(RMP_Cur_Thd->Run_Head.Prev, RMP_Cur_Thd->Run_Head.Next);
 8021596:	6822      	ldr	r2, [r4, #0]
 8021598:	6821      	ldr	r1, [r4, #0]
 802159a:	6812      	ldr	r2, [r2, #0]
 802159c:	6849      	ldr	r1, [r1, #4]
Output      : None.
Return      : None.
******************************************************************************/
void RMP_List_Del(volatile struct RMP_List* Prev,volatile struct RMP_List* Next)
{
    Next->Prev=(struct RMP_List*)Prev;
 802159e:	600a      	str	r2, [r1, #0]
    Prev->Next=(struct RMP_List*)Next;
 80215a0:	6051      	str	r1, [r2, #4]
        /* See if the current thread and the next thread are the same. If yes, place the current at the end of the queue */
        if(RMP_Cur_Thd==(struct RMP_Thd*)(RMP_Run[Count].Next))
        {
            RMP_COVERAGE_MARKER();
            RMP_List_Del(RMP_Cur_Thd->Run_Head.Prev, RMP_Cur_Thd->Run_Head.Next);
            RMP_List_Ins(&(RMP_Cur_Thd->Run_Head),
 80215a2:	6822      	ldr	r2, [r4, #0]
                         RMP_Run[RMP_Cur_Thd->Prio].Prev,
 80215a4:	6821      	ldr	r1, [r4, #0]
 80215a6:	6a49      	ldr	r1, [r1, #36]	; 0x24
        /* See if the current thread and the next thread are the same. If yes, place the current at the end of the queue */
        if(RMP_Cur_Thd==(struct RMP_Thd*)(RMP_Run[Count].Next))
        {
            RMP_COVERAGE_MARKER();
            RMP_List_Del(RMP_Cur_Thd->Run_Head.Prev, RMP_Cur_Thd->Run_Head.Next);
            RMP_List_Ins(&(RMP_Cur_Thd->Run_Head),
 80215a8:	f853 1031 	ldr.w	r1, [r3, r1, lsl #3]
                         RMP_Run[RMP_Cur_Thd->Prio].Prev,
                         &(RMP_Run[RMP_Cur_Thd->Prio]));
 80215ac:	6826      	ldr	r6, [r4, #0]
 80215ae:	6a76      	ldr	r6, [r6, #36]	; 0x24
        /* See if the current thread and the next thread are the same. If yes, place the current at the end of the queue */
        if(RMP_Cur_Thd==(struct RMP_Thd*)(RMP_Run[Count].Next))
        {
            RMP_COVERAGE_MARKER();
            RMP_List_Del(RMP_Cur_Thd->Run_Head.Prev, RMP_Cur_Thd->Run_Head.Next);
            RMP_List_Ins(&(RMP_Cur_Thd->Run_Head),
 80215b0:	eb03 07c6 	add.w	r7, r3, r6, lsl #3
******************************************************************************/
void RMP_List_Ins(volatile struct RMP_List* New,
                  volatile struct RMP_List* Prev,
                  volatile struct RMP_List* Next)
{
    Next->Prev=(struct RMP_List*)New;
 80215b4:	f843 2036 	str.w	r2, [r3, r6, lsl #3]
    New->Next=(struct RMP_List*)Next;
 80215b8:	6057      	str	r7, [r2, #4]
    New->Prev=(struct RMP_List*)Prev;
 80215ba:	6011      	str	r1, [r2, #0]
    Prev->Next=(struct RMP_List*)New;
 80215bc:	604a      	str	r2, [r1, #4]
 80215be:	e7df      	b.n	8021580 <_RMP_Get_High_Rdy+0x34>
 80215c0:	20028670 	.word	0x20028670
 80215c4:	2002920c 	.word	0x2002920c
 80215c8:	20029208 	.word	0x20029208
 80215cc:	2002866c 	.word	0x2002866c
 80215d0:	20028674 	.word	0x20028674

080215d4 <_RMP_Tick_Handler>:
Input       : rmp_ptr_t Ticks - How many ticks have passed.
Output      : None.
Return      : None.
******************************************************************************/
void _RMP_Tick_Handler(rmp_ptr_t Ticks)
{
 80215d4:	e92d 4ff0 	stmdb	sp!, {r4, r5, r6, r7, r8, r9, sl, fp, lr}
    struct RMP_Thd* Thread;
    /* Increase the timestamp as always */
    RMP_Tick+=Ticks;
 80215d8:	4d44      	ldr	r5, [pc, #272]	; (80216ec <_RMP_Tick_Handler+0x118>)
    
    /* See if the current thread expired. If yes, trigger a scheduler event */
    if(Ticks>RMP_Cur_Thd->Slices_Left)
 80215da:	4e45      	ldr	r6, [pc, #276]	; (80216f0 <_RMP_Tick_Handler+0x11c>)
******************************************************************************/
void _RMP_Tick_Handler(rmp_ptr_t Ticks)
{
    struct RMP_Thd* Thread;
    /* Increase the timestamp as always */
    RMP_Tick+=Ticks;
 80215dc:	682b      	ldr	r3, [r5, #0]
 80215de:	4403      	add	r3, r0
 80215e0:	602b      	str	r3, [r5, #0]
    
    /* See if the current thread expired. If yes, trigger a scheduler event */
    if(Ticks>RMP_Cur_Thd->Slices_Left)
 80215e2:	6833      	ldr	r3, [r6, #0]
 80215e4:	6a1b      	ldr	r3, [r3, #32]
 80215e6:	4298      	cmp	r0, r3
 80215e8:	d973      	bls.n	80216d2 <_RMP_Tick_Handler+0xfe>
    {
        RMP_COVERAGE_MARKER();
        RMP_Sched_Pend=1;
 80215ea:	4c42      	ldr	r4, [pc, #264]	; (80216f4 <_RMP_Tick_Handler+0x120>)
 80215ec:	2301      	movs	r3, #1
 80215ee:	6023      	str	r3, [r4, #0]
        RMP_COVERAGE_MARKER();
        RMP_Cur_Thd->Slices_Left-=Ticks;
    }
    
    /* Check if there are any timer events */
    if((&RMP_Delay)!=RMP_Delay.Next)
 80215f0:	4a41      	ldr	r2, [pc, #260]	; (80216f8 <_RMP_Tick_Handler+0x124>)
 80215f2:	6853      	ldr	r3, [r2, #4]
 80215f4:	4293      	cmp	r3, r2
 80215f6:	d067      	beq.n	80216c8 <_RMP_Tick_Handler+0xf4>
    {
        RMP_COVERAGE_MARKER();
        Thread=RMP_DLY2THD(RMP_Delay.Next);
 80215f8:	6851      	ldr	r1, [r2, #4]
        /* If the value is less than this, then it means that the time have
         * already passed and we have to process this */
        if((RMP_Tick-Thread->Timeout)<=(RMP_ALLBITS>>1))
 80215fa:	682b      	ldr	r3, [r5, #0]
 80215fc:	6a09      	ldr	r1, [r1, #32]
 80215fe:	1a5b      	subs	r3, r3, r1
 8021600:	2b00      	cmp	r3, #0
 8021602:	db61      	blt.n	80216c8 <_RMP_Tick_Handler+0xf4>
void _RMP_Timer_Proc(void)
{
    struct RMP_Thd* Thread;
    
    /* Process the timer events, if there are any of them */
    while((&RMP_Delay)!=RMP_Delay.Next)
 8021604:	4692      	mov	sl, r2
            }
            
            case RMP_THD_RCVDLY:
            {
                RMP_COVERAGE_MARKER();
                Thread->Retval=RMP_ERR_OPER;
 8021606:	f06f 0c04 	mvn.w	ip, #4
    {
        RMP_COVERAGE_MARKER();
        /* Insert this into the corresponding runqueue */
        RMP_List_Ins(&(Thread->Run_Head),RMP_Run[Thread->Prio].Prev,&(RMP_Run[Thread->Prio]));
        /* Set this runlevel as active */
        RMP_Bitmap[Thread->Prio>>RMP_WORD_ORDER]|=((rmp_ptr_t)1)<<(Thread->Prio&RMP_WORD_MASK);
 802160a:	f8df e0f4 	ldr.w	lr, [pc, #244]	; 8021700 <_RMP_Tick_Handler+0x12c>
 802160e:	f04f 0901 	mov.w	r9, #1
void _RMP_Timer_Proc(void)
{
    struct RMP_Thd* Thread;
    
    /* Process the timer events, if there are any of them */
    while((&RMP_Delay)!=RMP_Delay.Next)
 8021612:	6853      	ldr	r3, [r2, #4]
 8021614:	4293      	cmp	r3, r2
 8021616:	d057      	beq.n	80216c8 <_RMP_Tick_Handler+0xf4>
    {
        Thread=RMP_DLY2THD(RMP_Delay.Next);
 8021618:	f8da 7004 	ldr.w	r7, [sl, #4]
        /* If the value is more than this, then it means that the time have
         * already passed and we have to process this */
        if((RMP_Tick-Thread->Timeout)>(RMP_ALLBITS>>1))
 802161c:	6829      	ldr	r1, [r5, #0]
    struct RMP_Thd* Thread;
    
    /* Process the timer events, if there are any of them */
    while((&RMP_Delay)!=RMP_Delay.Next)
    {
        Thread=RMP_DLY2THD(RMP_Delay.Next);
 802161e:	f1a7 0308 	sub.w	r3, r7, #8
        /* If the value is more than this, then it means that the time have
         * already passed and we have to process this */
        if((RMP_Tick-Thread->Timeout)>(RMP_ALLBITS>>1))
 8021622:	6a98      	ldr	r0, [r3, #40]	; 0x28
 8021624:	1a09      	subs	r1, r1, r0
 8021626:	2900      	cmp	r1, #0
 8021628:	db4e      	blt.n	80216c8 <_RMP_Tick_Handler+0xf4>
        }
        else
            RMP_COVERAGE_MARKER();
        
        /* This thread should be processed */
        RMP_List_Del(Thread->Dly_Head.Prev,Thread->Dly_Head.Next);
 802162a:	6899      	ldr	r1, [r3, #8]
 802162c:	f8d3 800c 	ldr.w	r8, [r3, #12]
Output      : None.
Return      : None.
******************************************************************************/
void RMP_List_Del(volatile struct RMP_List* Prev,volatile struct RMP_List* Next)
{
    Next->Prev=(struct RMP_List*)Prev;
 8021630:	f8c8 1000 	str.w	r1, [r8]
    Prev->Next=(struct RMP_List*)Next;
 8021634:	f8c1 8004 	str.w	r8, [r1, #4]
        else
            RMP_COVERAGE_MARKER();
        
        /* This thread should be processed */
        RMP_List_Del(Thread->Dly_Head.Prev,Thread->Dly_Head.Next);
        switch(RMP_THD_STATE(Thread->State))
 8021638:	6999      	ldr	r1, [r3, #24]
 802163a:	fa5f f881 	uxtb.w	r8, r1
 802163e:	f1a8 0803 	sub.w	r8, r8, #3
 8021642:	f1b8 0f05 	cmp.w	r8, #5
 8021646:	d83e      	bhi.n	80216c6 <_RMP_Tick_Handler+0xf2>
 8021648:	e8df f008 	tbb	[pc, r8]
 802164c:	0e3a3d03 	.word	0x0e3a3d03
 8021650:	033d      	.short	0x033d
        {
            case RMP_THD_SNDDLY:RMP_COVERAGE_MARKER();
            case RMP_THD_SEMDLY:
            {
                RMP_COVERAGE_MARKER();
                RMP_List_Del(Thread->Run_Head.Prev,Thread->Run_Head.Next);
 8021652:	f857 1c08 	ldr.w	r1, [r7, #-8]
 8021656:	f8d3 8004 	ldr.w	r8, [r3, #4]
Output      : None.
Return      : None.
******************************************************************************/
void RMP_List_Del(volatile struct RMP_List* Prev,volatile struct RMP_List* Next)
{
    Next->Prev=(struct RMP_List*)Prev;
 802165a:	f8c8 1000 	str.w	r1, [r8]
    Prev->Next=(struct RMP_List*)Next;
 802165e:	f8c1 8004 	str.w	r8, [r1, #4]
 8021662:	6999      	ldr	r1, [r3, #24]
            case RMP_THD_SNDDLY:RMP_COVERAGE_MARKER();
            case RMP_THD_SEMDLY:
            {
                RMP_COVERAGE_MARKER();
                RMP_List_Del(Thread->Run_Head.Prev,Thread->Run_Head.Next);
                Thread->Retval=RMP_ERR_OPER;
 8021664:	f8c3 c038 	str.w	ip, [r3, #56]	; 0x38
            case RMP_THD_DELAYED:RMP_COVERAGE_MARKER();break;
            /* Should not get here */
            default:while(1);
        }

        RMP_THD_STATE_SET(Thread->State,RMP_THD_RUNNING);
 8021668:	f021 01ff 	bic.w	r1, r1, #255	; 0xff
 802166c:	f041 0101 	orr.w	r1, r1, #1
 8021670:	6199      	str	r1, [r3, #24]
Return      : None.
******************************************************************************/
void _RMP_Set_Rdy(volatile struct RMP_Thd* Thread)
{        
    /* Is it suspended? If yes, we can't directly set it running */
    if((Thread->State&RMP_THD_SUSPENDED)==0)
 8021672:	6999      	ldr	r1, [r3, #24]
 8021674:	05c9      	lsls	r1, r1, #23
 8021676:	d4cc      	bmi.n	8021612 <_RMP_Tick_Handler+0x3e>
    {
        RMP_COVERAGE_MARKER();
        /* Insert this into the corresponding runqueue */
        RMP_List_Ins(&(Thread->Run_Head),RMP_Run[Thread->Prio].Prev,&(RMP_Run[Thread->Prio]));
 8021678:	6a59      	ldr	r1, [r3, #36]	; 0x24
 802167a:	4820      	ldr	r0, [pc, #128]	; (80216fc <_RMP_Tick_Handler+0x128>)
 802167c:	f850 1031 	ldr.w	r1, [r0, r1, lsl #3]
 8021680:	f8d3 8024 	ldr.w	r8, [r3, #36]	; 0x24
 8021684:	eb00 0bc8 	add.w	fp, r0, r8, lsl #3
******************************************************************************/
void RMP_List_Ins(volatile struct RMP_List* New,
                  volatile struct RMP_List* Prev,
                  volatile struct RMP_List* Next)
{
    Next->Prev=(struct RMP_List*)New;
 8021688:	f840 3038 	str.w	r3, [r0, r8, lsl #3]
    New->Next=(struct RMP_List*)Next;
 802168c:	f8c3 b004 	str.w	fp, [r3, #4]
    New->Prev=(struct RMP_List*)Prev;
 8021690:	f847 1c08 	str.w	r1, [r7, #-8]
    Prev->Next=(struct RMP_List*)New;
 8021694:	604b      	str	r3, [r1, #4]
    {
        RMP_COVERAGE_MARKER();
        /* Insert this into the corresponding runqueue */
        RMP_List_Ins(&(Thread->Run_Head),RMP_Run[Thread->Prio].Prev,&(RMP_Run[Thread->Prio]));
        /* Set this runlevel as active */
        RMP_Bitmap[Thread->Prio>>RMP_WORD_ORDER]|=((rmp_ptr_t)1)<<(Thread->Prio&RMP_WORD_MASK);
 8021696:	6a59      	ldr	r1, [r3, #36]	; 0x24
 8021698:	6a5f      	ldr	r7, [r3, #36]	; 0x24
 802169a:	f001 011f 	and.w	r1, r1, #31
 802169e:	097f      	lsrs	r7, r7, #5
 80216a0:	fa09 f101 	lsl.w	r1, r9, r1
 80216a4:	f85e 8027 	ldr.w	r8, [lr, r7, lsl #2]
 80216a8:	ea41 0108 	orr.w	r1, r1, r8
 80216ac:	f84e 1027 	str.w	r1, [lr, r7, lsl #2]
        
        /* Compare this with the current one to see if we need a context switch */
        if(Thread->Prio>RMP_Cur_Thd->Prio)
 80216b0:	6a59      	ldr	r1, [r3, #36]	; 0x24
 80216b2:	6833      	ldr	r3, [r6, #0]
 80216b4:	6a5b      	ldr	r3, [r3, #36]	; 0x24
 80216b6:	4299      	cmp	r1, r3
 80216b8:	d9ab      	bls.n	8021612 <_RMP_Tick_Handler+0x3e>
        {
            RMP_COVERAGE_MARKER();
            RMP_Sched_Pend=1;
 80216ba:	2301      	movs	r3, #1
 80216bc:	6023      	str	r3, [r4, #0]
 80216be:	e7a6      	b.n	802160e <_RMP_Tick_Handler+0x3a>
            }
            
            case RMP_THD_RCVDLY:
            {
                RMP_COVERAGE_MARKER();
                Thread->Retval=RMP_ERR_OPER;
 80216c0:	f8c3 c038 	str.w	ip, [r3, #56]	; 0x38
 80216c4:	e7d0      	b.n	8021668 <_RMP_Tick_Handler+0x94>
 80216c6:	e7fe      	b.n	80216c6 <_RMP_Tick_Handler+0xf2>
            RMP_COVERAGE_MARKER();
    }
    else
        RMP_COVERAGE_MARKER();
    
    if(RMP_Sched_Pend!=0)
 80216c8:	6822      	ldr	r2, [r4, #0]
 80216ca:	4b0a      	ldr	r3, [pc, #40]	; (80216f4 <_RMP_Tick_Handler+0x120>)
 80216cc:	b93a      	cbnz	r2, 80216de <_RMP_Tick_Handler+0x10a>
 80216ce:	e8bd 8ff0 	ldmia.w	sp!, {r4, r5, r6, r7, r8, r9, sl, fp, pc}
        RMP_Sched_Pend=1;
    }
    else
    {
        RMP_COVERAGE_MARKER();
        RMP_Cur_Thd->Slices_Left-=Ticks;
 80216d2:	6832      	ldr	r2, [r6, #0]
 80216d4:	4c07      	ldr	r4, [pc, #28]	; (80216f4 <_RMP_Tick_Handler+0x120>)
 80216d6:	6a13      	ldr	r3, [r2, #32]
 80216d8:	1a1b      	subs	r3, r3, r0
 80216da:	6213      	str	r3, [r2, #32]
 80216dc:	e788      	b.n	80215f0 <_RMP_Tick_Handler+0x1c>
        RMP_COVERAGE_MARKER();
    
    if(RMP_Sched_Pend!=0)
    {
        RMP_COVERAGE_MARKER();
        RMP_Sched_Pend=0;
 80216de:	2200      	movs	r2, #0
 80216e0:	601a      	str	r2, [r3, #0]
        RMP_COVERAGE_MARKER();
    
#if(RMP_USE_HOOKS==RMP_TRUE)
    RMP_Tick_Hook(Ticks);
#endif
}
 80216e2:	e8bd 4ff0 	ldmia.w	sp!, {r4, r5, r6, r7, r8, r9, sl, fp, lr}
    
    if(RMP_Sched_Pend!=0)
    {
        RMP_COVERAGE_MARKER();
        RMP_Sched_Pend=0;
        _RMP_Yield();
 80216e6:	f7ff bd03 	b.w	80210f0 <_RMP_Yield>
 80216ea:	bf00      	nop
 80216ec:	20029210 	.word	0x20029210
 80216f0:	2002920c 	.word	0x2002920c
 80216f4:	20028670 	.word	0x20028670
 80216f8:	200287b8 	.word	0x200287b8
 80216fc:	20028674 	.word	0x20028674
 8021700:	2002866c 	.word	0x2002866c

08021704 <RMP_Thd_Crt>:
              rmp_ptr_t Slices - The number of timeslices to assign to the thread.
Output      : None.
Return      : rmp_ret_t - If successful, 0. on error, return an error code.
******************************************************************************/
rmp_ret_t RMP_Thd_Crt(volatile struct RMP_Thd* Thread, void* Entry, void* Stack, void* Arg, rmp_ptr_t Prio, rmp_ptr_t Slices)
{
 8021704:	e92d 4ff8 	stmdb	sp!, {r3, r4, r5, r6, r7, r8, r9, sl, fp, lr}
    /* Check if the priority and timeslice range is correct */
    if(Prio>=RMP_MAX_PREEMPT_PRIO)
 8021708:	9c0a      	ldr	r4, [sp, #40]	; 0x28
              rmp_ptr_t Slices - The number of timeslices to assign to the thread.
Output      : None.
Return      : rmp_ret_t - If successful, 0. on error, return an error code.
******************************************************************************/
rmp_ret_t RMP_Thd_Crt(volatile struct RMP_Thd* Thread, void* Entry, void* Stack, void* Arg, rmp_ptr_t Prio, rmp_ptr_t Slices)
{
 802170a:	f8dd a02c 	ldr.w	sl, [sp, #44]	; 0x2c
    /* Check if the priority and timeslice range is correct */
    if(Prio>=RMP_MAX_PREEMPT_PRIO)
 802170e:	2c1f      	cmp	r4, #31
 8021710:	d87e      	bhi.n	8021810 <RMP_Thd_Crt+0x10c>
        return RMP_ERR_PRIO;
    }
    else
        RMP_COVERAGE_MARKER();
    
    if((Slices==0)||(Slices>=RMP_MAX_SLICES))
 8021712:	f10a 35ff 	add.w	r5, sl, #4294967295
 8021716:	4c4e      	ldr	r4, [pc, #312]	; (8021850 <RMP_Thd_Crt+0x14c>)
 8021718:	42a5      	cmp	r5, r4
 802171a:	d875      	bhi.n	8021808 <RMP_Thd_Crt+0x104>
    }
    else
        RMP_COVERAGE_MARKER();
    
    /* Check if this thread structure could possibly be in use */
    if(Thread==0)
 802171c:	2800      	cmp	r0, #0
 802171e:	d07b      	beq.n	8021818 <RMP_Thd_Crt+0x114>
Return      : None.
******************************************************************************/
void RMP_Lock_Sched(void)
{
    RMP_MASK_INT();
    RMP_Sched_Locked=1;
 8021720:	2601      	movs	r6, #1
    RMP_Sched_Lock_Cnt++;
 8021722:	4d4c      	ldr	r5, [pc, #304]	; (8021854 <RMP_Thd_Crt+0x150>)
Return      : None.
******************************************************************************/
void RMP_Lock_Sched(void)
{
    RMP_MASK_INT();
    RMP_Sched_Locked=1;
 8021724:	4f4c      	ldr	r7, [pc, #304]	; (8021858 <RMP_Thd_Crt+0x154>)
 8021726:	4690      	mov	r8, r2
 8021728:	4604      	mov	r4, r0
 802172a:	469b      	mov	fp, r3
 802172c:	4689      	mov	r9, r1
Output      : None.
Return      : None.
******************************************************************************/
void RMP_Lock_Sched(void)
{
    RMP_MASK_INT();
 802172e:	f7ff fd77 	bl	8021220 <RVM_Mask_Int>
    RMP_Sched_Locked=1;
 8021732:	603e      	str	r6, [r7, #0]
    RMP_Sched_Lock_Cnt++;
 8021734:	682a      	ldr	r2, [r5, #0]
 8021736:	4432      	add	r2, r6
 8021738:	602a      	str	r2, [r5, #0]
    else
        RMP_COVERAGE_MARKER();
    
    RMP_Lock_Sched();
    
    if(RMP_THD_STATE(Thread->State)!=RMP_THD_FREE)
 802173a:	69a2      	ldr	r2, [r4, #24]
 802173c:	f012 0fff 	tst.w	r2, #255	; 0xff
 8021740:	d155      	bne.n	80217ee <RMP_Thd_Crt+0xea>
    }
    else
        RMP_COVERAGE_MARKER();
    
    /* Create the thread and insert it into the list */
    Thread->Prio=Prio;
 8021742:	9b0a      	ldr	r3, [sp, #40]	; 0x28
    Thread->Slices=Slices;
    Thread->Slices_Left=Slices;
    Thread->Stack=(rmp_ptr_t)Stack;
    
    /* Initialize its stack and sending list */
    _RMP_Stack_Init((rmp_ptr_t)Entry, (rmp_ptr_t)Stack, (rmp_ptr_t)Arg);
 8021744:	465a      	mov	r2, fp
 8021746:	4641      	mov	r1, r8
 8021748:	4648      	mov	r0, r9
    }
    else
        RMP_COVERAGE_MARKER();
    
    /* Create the thread and insert it into the list */
    Thread->Prio=Prio;
 802174a:	6263      	str	r3, [r4, #36]	; 0x24
    Thread->Slices=Slices;
 802174c:	f8c4 a01c 	str.w	sl, [r4, #28]
    Thread->Slices_Left=Slices;
 8021750:	f8c4 a020 	str.w	sl, [r4, #32]
    Thread->Stack=(rmp_ptr_t)Stack;
 8021754:	f8c4 8034 	str.w	r8, [r4, #52]	; 0x34
    
    /* Initialize its stack and sending list */
    _RMP_Stack_Init((rmp_ptr_t)Entry, (rmp_ptr_t)Stack, (rmp_ptr_t)Arg);
 8021758:	f7ff fc80 	bl	802105c <_RMP_Stack_Init>
    RMP_List_Crt(&(Thread->Snd_List));
 802175c:	f104 0310 	add.w	r3, r4, #16
Output      : None.
Return      : None.
******************************************************************************/
void RMP_List_Crt(volatile struct RMP_List* Head)
{
    Head->Prev=(struct RMP_List*)Head;
 8021760:	6123      	str	r3, [r4, #16]
    Head->Next=(struct RMP_List*)Head;
 8021762:	6163      	str	r3, [r4, #20]
    /* Initialize its stack and sending list */
    _RMP_Stack_Init((rmp_ptr_t)Entry, (rmp_ptr_t)Stack, (rmp_ptr_t)Arg);
    RMP_List_Crt(&(Thread->Snd_List));
    
    /* Notify the scheduler that we have created something new, also check locks */
    Thread->State=RMP_THD_RUNNING;
 8021764:	61a6      	str	r6, [r4, #24]
Return      : None.
******************************************************************************/
void _RMP_Set_Rdy(volatile struct RMP_Thd* Thread)
{        
    /* Is it suspended? If yes, we can't directly set it running */
    if((Thread->State&RMP_THD_SUSPENDED)==0)
 8021766:	69a3      	ldr	r3, [r4, #24]
 8021768:	05db      	lsls	r3, r3, #23
 802176a:	d50c      	bpl.n	8021786 <RMP_Thd_Crt+0x82>
Output      : None.
Return      : None.
******************************************************************************/
void RMP_Unlock_Sched(void)
{
    if(RMP_Sched_Lock_Cnt==1)
 802176c:	682a      	ldr	r2, [r5, #0]
 802176e:	4b39      	ldr	r3, [pc, #228]	; (8021854 <RMP_Thd_Crt+0x150>)
 8021770:	2a01      	cmp	r2, #1
 8021772:	d030      	beq.n	80217d6 <RMP_Thd_Crt+0xd2>
        else
            RMP_COVERAGE_MARKER();
        
        RMP_UNMASK_INT();
    }
    else if(RMP_Sched_Lock_Cnt>1)
 8021774:	681a      	ldr	r2, [r3, #0]
 8021776:	2a01      	cmp	r2, #1
 8021778:	d938      	bls.n	80217ec <RMP_Thd_Crt+0xe8>
    {
        RMP_COVERAGE_MARKER();
        RMP_Sched_Lock_Cnt--;
 802177a:	681a      	ldr	r2, [r3, #0]
    Thread->State=RMP_THD_RUNNING;
    _RMP_Set_Rdy(Thread);
    
    RMP_Unlock_Sched();

    return 0;
 802177c:	2000      	movs	r0, #0
        RMP_UNMASK_INT();
    }
    else if(RMP_Sched_Lock_Cnt>1)
    {
        RMP_COVERAGE_MARKER();
        RMP_Sched_Lock_Cnt--;
 802177e:	3a01      	subs	r2, #1
 8021780:	601a      	str	r2, [r3, #0]
 8021782:	e8bd 8ff8 	ldmia.w	sp!, {r3, r4, r5, r6, r7, r8, r9, sl, fp, pc}
    /* Is it suspended? If yes, we can't directly set it running */
    if((Thread->State&RMP_THD_SUSPENDED)==0)
    {
        RMP_COVERAGE_MARKER();
        /* Insert this into the corresponding runqueue */
        RMP_List_Ins(&(Thread->Run_Head),RMP_Run[Thread->Prio].Prev,&(RMP_Run[Thread->Prio]));
 8021786:	6a62      	ldr	r2, [r4, #36]	; 0x24
 8021788:	4b34      	ldr	r3, [pc, #208]	; (802185c <RMP_Thd_Crt+0x158>)
        /* Set this runlevel as active */
        RMP_Bitmap[Thread->Prio>>RMP_WORD_ORDER]|=((rmp_ptr_t)1)<<(Thread->Prio&RMP_WORD_MASK);
 802178a:	4835      	ldr	r0, [pc, #212]	; (8021860 <RMP_Thd_Crt+0x15c>)
    /* Is it suspended? If yes, we can't directly set it running */
    if((Thread->State&RMP_THD_SUSPENDED)==0)
    {
        RMP_COVERAGE_MARKER();
        /* Insert this into the corresponding runqueue */
        RMP_List_Ins(&(Thread->Run_Head),RMP_Run[Thread->Prio].Prev,&(RMP_Run[Thread->Prio]));
 802178c:	f853 2032 	ldr.w	r2, [r3, r2, lsl #3]
 8021790:	6a61      	ldr	r1, [r4, #36]	; 0x24
        /* Set this runlevel as active */
        RMP_Bitmap[Thread->Prio>>RMP_WORD_ORDER]|=((rmp_ptr_t)1)<<(Thread->Prio&RMP_WORD_MASK);
        
        /* Compare this with the current one to see if we need a context switch */
        if(Thread->Prio>RMP_Cur_Thd->Prio)
 8021792:	f8df e0d4 	ldr.w	lr, [pc, #212]	; 8021868 <RMP_Thd_Crt+0x164>
    /* Is it suspended? If yes, we can't directly set it running */
    if((Thread->State&RMP_THD_SUSPENDED)==0)
    {
        RMP_COVERAGE_MARKER();
        /* Insert this into the corresponding runqueue */
        RMP_List_Ins(&(Thread->Run_Head),RMP_Run[Thread->Prio].Prev,&(RMP_Run[Thread->Prio]));
 8021796:	eb03 0cc1 	add.w	ip, r3, r1, lsl #3
******************************************************************************/
void RMP_List_Ins(volatile struct RMP_List* New,
                  volatile struct RMP_List* Prev,
                  volatile struct RMP_List* Next)
{
    Next->Prev=(struct RMP_List*)New;
 802179a:	f843 4031 	str.w	r4, [r3, r1, lsl #3]
    New->Next=(struct RMP_List*)Next;
 802179e:	f8c4 c004 	str.w	ip, [r4, #4]
    New->Prev=(struct RMP_List*)Prev;
 80217a2:	6022      	str	r2, [r4, #0]
    Prev->Next=(struct RMP_List*)New;
 80217a4:	6054      	str	r4, [r2, #4]
    {
        RMP_COVERAGE_MARKER();
        /* Insert this into the corresponding runqueue */
        RMP_List_Ins(&(Thread->Run_Head),RMP_Run[Thread->Prio].Prev,&(RMP_Run[Thread->Prio]));
        /* Set this runlevel as active */
        RMP_Bitmap[Thread->Prio>>RMP_WORD_ORDER]|=((rmp_ptr_t)1)<<(Thread->Prio&RMP_WORD_MASK);
 80217a6:	6a63      	ldr	r3, [r4, #36]	; 0x24
 80217a8:	6a62      	ldr	r2, [r4, #36]	; 0x24
 80217aa:	f003 031f 	and.w	r3, r3, #31
 80217ae:	0952      	lsrs	r2, r2, #5
 80217b0:	fa06 f303 	lsl.w	r3, r6, r3
 80217b4:	f850 1022 	ldr.w	r1, [r0, r2, lsl #2]
 80217b8:	430b      	orrs	r3, r1
 80217ba:	f840 3022 	str.w	r3, [r0, r2, lsl #2]
        
        /* Compare this with the current one to see if we need a context switch */
        if(Thread->Prio>RMP_Cur_Thd->Prio)
 80217be:	6a62      	ldr	r2, [r4, #36]	; 0x24
 80217c0:	f8de 3000 	ldr.w	r3, [lr]
 80217c4:	6a5b      	ldr	r3, [r3, #36]	; 0x24
 80217c6:	429a      	cmp	r2, r3
 80217c8:	d9d0      	bls.n	802176c <RMP_Thd_Crt+0x68>
        {
            RMP_COVERAGE_MARKER();
            RMP_Sched_Pend=1;
 80217ca:	4b26      	ldr	r3, [pc, #152]	; (8021864 <RMP_Thd_Crt+0x160>)
 80217cc:	601e      	str	r6, [r3, #0]
Output      : None.
Return      : None.
******************************************************************************/
void RMP_Unlock_Sched(void)
{
    if(RMP_Sched_Lock_Cnt==1)
 80217ce:	682a      	ldr	r2, [r5, #0]
 80217d0:	4b20      	ldr	r3, [pc, #128]	; (8021854 <RMP_Thd_Crt+0x150>)
 80217d2:	2a01      	cmp	r2, #1
 80217d4:	d1ce      	bne.n	8021774 <RMP_Thd_Crt+0x70>
    {
        RMP_COVERAGE_MARKER();
        /* Clear the count before enabling */
        RMP_Sched_Lock_Cnt=0;
 80217d6:	2200      	movs	r2, #0
        RMP_Sched_Locked=0;
        /* Now see if the scheduler scheduling action is pended in the lock-unlock 
         * period. If yes, perform a schedule now */
        if(RMP_Sched_Pend!=0)
 80217d8:	4922      	ldr	r1, [pc, #136]	; (8021864 <RMP_Thd_Crt+0x160>)
{
    if(RMP_Sched_Lock_Cnt==1)
    {
        RMP_COVERAGE_MARKER();
        /* Clear the count before enabling */
        RMP_Sched_Lock_Cnt=0;
 80217da:	601a      	str	r2, [r3, #0]
        RMP_Sched_Locked=0;
 80217dc:	603a      	str	r2, [r7, #0]
        /* Now see if the scheduler scheduling action is pended in the lock-unlock 
         * period. If yes, perform a schedule now */
        if(RMP_Sched_Pend!=0)
 80217de:	680b      	ldr	r3, [r1, #0]
 80217e0:	b9f3      	cbnz	r3, 8021820 <RMP_Thd_Crt+0x11c>
            _RMP_Yield();
        }
        else
            RMP_COVERAGE_MARKER();
        
        RMP_UNMASK_INT();
 80217e2:	f7ff fd27 	bl	8021234 <RVM_Unmask_Int>
    Thread->State=RMP_THD_RUNNING;
    _RMP_Set_Rdy(Thread);
    
    RMP_Unlock_Sched();

    return 0;
 80217e6:	2000      	movs	r0, #0
 80217e8:	e8bd 8ff8 	ldmia.w	sp!, {r3, r4, r5, r6, r7, r8, r9, sl, fp, pc}
 80217ec:	e7fe      	b.n	80217ec <RMP_Thd_Crt+0xe8>
Output      : None.
Return      : None.
******************************************************************************/
void RMP_Unlock_Sched(void)
{
    if(RMP_Sched_Lock_Cnt==1)
 80217ee:	682b      	ldr	r3, [r5, #0]
 80217f0:	42b3      	cmp	r3, r6
 80217f2:	d01e      	beq.n	8021832 <RMP_Thd_Crt+0x12e>
        else
            RMP_COVERAGE_MARKER();
        
        RMP_UNMASK_INT();
    }
    else if(RMP_Sched_Lock_Cnt>1)
 80217f4:	682b      	ldr	r3, [r5, #0]
 80217f6:	2b01      	cmp	r3, #1
 80217f8:	d91a      	bls.n	8021830 <RMP_Thd_Crt+0x12c>
    {
        RMP_COVERAGE_MARKER();
        RMP_Sched_Lock_Cnt--;
 80217fa:	682b      	ldr	r3, [r5, #0]
    
    if(RMP_THD_STATE(Thread->State)!=RMP_THD_FREE)
    {
        RMP_COVERAGE_MARKER();
        RMP_Unlock_Sched();
        return RMP_ERR_THD;
 80217fc:	f04f 30ff 	mov.w	r0, #4294967295
        RMP_UNMASK_INT();
    }
    else if(RMP_Sched_Lock_Cnt>1)
    {
        RMP_COVERAGE_MARKER();
        RMP_Sched_Lock_Cnt--;
 8021800:	4403      	add	r3, r0
 8021802:	602b      	str	r3, [r5, #0]
 8021804:	e8bd 8ff8 	ldmia.w	sp!, {r3, r4, r5, r6, r7, r8, r9, sl, fp, pc}
        RMP_COVERAGE_MARKER();
    
    if((Slices==0)||(Slices>=RMP_MAX_SLICES))
    {
        RMP_COVERAGE_MARKER();
        return RMP_ERR_SLICE;
 8021808:	f06f 0002 	mvn.w	r0, #2
 802180c:	e8bd 8ff8 	ldmia.w	sp!, {r3, r4, r5, r6, r7, r8, r9, sl, fp, pc}
{
    /* Check if the priority and timeslice range is correct */
    if(Prio>=RMP_MAX_PREEMPT_PRIO)
    {
        RMP_COVERAGE_MARKER();
        return RMP_ERR_PRIO;
 8021810:	f06f 0001 	mvn.w	r0, #1
 8021814:	e8bd 8ff8 	ldmia.w	sp!, {r3, r4, r5, r6, r7, r8, r9, sl, fp, pc}
    
    /* Check if this thread structure could possibly be in use */
    if(Thread==0)
    {
        RMP_COVERAGE_MARKER();
        return RMP_ERR_THD;
 8021818:	f04f 30ff 	mov.w	r0, #4294967295
    _RMP_Set_Rdy(Thread);
    
    RMP_Unlock_Sched();

    return 0;
}
 802181c:	e8bd 8ff8 	ldmia.w	sp!, {r3, r4, r5, r6, r7, r8, r9, sl, fp, pc}
         * period. If yes, perform a schedule now */
        if(RMP_Sched_Pend!=0)
        {
            RMP_COVERAGE_MARKER();
            /* Reset the count and trigger the context switch */
            RMP_Sched_Pend=0;
 8021820:	600a      	str	r2, [r1, #0]
            _RMP_Yield();
 8021822:	f7ff fc65 	bl	80210f0 <_RMP_Yield>
        }
        else
            RMP_COVERAGE_MARKER();
        
        RMP_UNMASK_INT();
 8021826:	f7ff fd05 	bl	8021234 <RVM_Unmask_Int>
    Thread->State=RMP_THD_RUNNING;
    _RMP_Set_Rdy(Thread);
    
    RMP_Unlock_Sched();

    return 0;
 802182a:	2000      	movs	r0, #0
 802182c:	e8bd 8ff8 	ldmia.w	sp!, {r3, r4, r5, r6, r7, r8, r9, sl, fp, pc}
 8021830:	e7fe      	b.n	8021830 <RMP_Thd_Crt+0x12c>
{
    if(RMP_Sched_Lock_Cnt==1)
    {
        RMP_COVERAGE_MARKER();
        /* Clear the count before enabling */
        RMP_Sched_Lock_Cnt=0;
 8021832:	2300      	movs	r3, #0
        RMP_Sched_Locked=0;
        /* Now see if the scheduler scheduling action is pended in the lock-unlock 
         * period. If yes, perform a schedule now */
        if(RMP_Sched_Pend!=0)
 8021834:	4a0b      	ldr	r2, [pc, #44]	; (8021864 <RMP_Thd_Crt+0x160>)
{
    if(RMP_Sched_Lock_Cnt==1)
    {
        RMP_COVERAGE_MARKER();
        /* Clear the count before enabling */
        RMP_Sched_Lock_Cnt=0;
 8021836:	602b      	str	r3, [r5, #0]
        RMP_Sched_Locked=0;
 8021838:	603b      	str	r3, [r7, #0]
        /* Now see if the scheduler scheduling action is pended in the lock-unlock 
         * period. If yes, perform a schedule now */
        if(RMP_Sched_Pend!=0)
 802183a:	6811      	ldr	r1, [r2, #0]
 802183c:	b111      	cbz	r1, 8021844 <RMP_Thd_Crt+0x140>
        {
            RMP_COVERAGE_MARKER();
            /* Reset the count and trigger the context switch */
            RMP_Sched_Pend=0;
 802183e:	6013      	str	r3, [r2, #0]
            _RMP_Yield();
 8021840:	f7ff fc56 	bl	80210f0 <_RMP_Yield>
        }
        else
            RMP_COVERAGE_MARKER();
        
        RMP_UNMASK_INT();
 8021844:	f7ff fcf6 	bl	8021234 <RVM_Unmask_Int>
    
    if(RMP_THD_STATE(Thread->State)!=RMP_THD_FREE)
    {
        RMP_COVERAGE_MARKER();
        RMP_Unlock_Sched();
        return RMP_ERR_THD;
 8021848:	f04f 30ff 	mov.w	r0, #4294967295
 802184c:	e8bd 8ff8 	ldmia.w	sp!, {r3, r4, r5, r6, r7, r8, r9, sl, fp, pc}
 8021850:	0001869e 	.word	0x0001869e
 8021854:	20028774 	.word	0x20028774
 8021858:	200287c0 	.word	0x200287c0
 802185c:	20028674 	.word	0x20028674
 8021860:	2002866c 	.word	0x2002866c
 8021864:	20028670 	.word	0x20028670
 8021868:	2002920c 	.word	0x2002920c

0802186c <RMP_Thd_Set>:
Return      : rmp_ret_t - If successful, 0; else error code.
******************************************************************************/
rmp_ret_t RMP_Thd_Set(volatile struct RMP_Thd* Thread, rmp_ptr_t Prio, rmp_ptr_t Slices)
{
    /* Check if the priority and timeslice range is correct */
    if(Slices==0)
 802186c:	2a00      	cmp	r2, #0
 802186e:	d07b      	beq.n	8021968 <RMP_Thd_Set+0xfc>
    }
    else
        RMP_COVERAGE_MARKER();
    
    /* Check if this thread structure could possibly be in use */
    if(Thread==0)
 8021870:	2800      	cmp	r0, #0
 8021872:	d076      	beq.n	8021962 <RMP_Thd_Set+0xf6>
              rmp_ptr_t Slices - The new timeslice value for this thread.
Output      : None.
Return      : rmp_ret_t - If successful, 0; else error code.
******************************************************************************/
rmp_ret_t RMP_Thd_Set(volatile struct RMP_Thd* Thread, rmp_ptr_t Prio, rmp_ptr_t Slices)
{
 8021874:	e92d 41f0 	stmdb	sp!, {r4, r5, r6, r7, r8, lr}
 8021878:	4604      	mov	r4, r0
 802187a:	4615      	mov	r5, r2
 802187c:	460e      	mov	r6, r1
Output      : None.
Return      : None.
******************************************************************************/
void RMP_Lock_Sched(void)
{
    RMP_MASK_INT();
 802187e:	f7ff fccf 	bl	8021220 <RVM_Mask_Int>
    RMP_Sched_Locked=1;
 8021882:	2201      	movs	r2, #1
    RMP_Sched_Lock_Cnt++;
 8021884:	4b54      	ldr	r3, [pc, #336]	; (80219d8 <RMP_Thd_Set+0x16c>)
Return      : None.
******************************************************************************/
void RMP_Lock_Sched(void)
{
    RMP_MASK_INT();
    RMP_Sched_Locked=1;
 8021886:	4855      	ldr	r0, [pc, #340]	; (80219dc <RMP_Thd_Set+0x170>)
 8021888:	6002      	str	r2, [r0, #0]
    RMP_Sched_Lock_Cnt++;
 802188a:	681a      	ldr	r2, [r3, #0]
 802188c:	3201      	adds	r2, #1
 802188e:	601a      	str	r2, [r3, #0]
    else
        RMP_COVERAGE_MARKER();
    
    RMP_Lock_Sched();
    
    if(RMP_THD_STATE(Thread->State)==RMP_THD_FREE)
 8021890:	69a2      	ldr	r2, [r4, #24]
 8021892:	f012 02ff 	ands.w	r2, r2, #255	; 0xff
 8021896:	d057      	beq.n	8021948 <RMP_Thd_Set+0xdc>
    }
    else
        RMP_COVERAGE_MARKER();
    
    /* See if the thread is in running state */
    if(RMP_THD_STATE(Thread->State)==RMP_THD_RUNNING)
 8021898:	69a2      	ldr	r2, [r4, #24]
 802189a:	b2d2      	uxtb	r2, r2
 802189c:	2a01      	cmp	r2, #1
 802189e:	d013      	beq.n	80218c8 <RMP_Thd_Set+0x5c>
    }
    else
    {
        RMP_COVERAGE_MARKER();
        
        if(Prio<RMP_MAX_PREEMPT_PRIO)
 80218a0:	2e1f      	cmp	r6, #31
 80218a2:	d800      	bhi.n	80218a6 <RMP_Thd_Set+0x3a>
        {
            RMP_COVERAGE_MARKER();
            Thread->Prio=Prio;
 80218a4:	6266      	str	r6, [r4, #36]	; 0x24
        }
        else
            RMP_COVERAGE_MARKER();
        
        if(Slices<RMP_MAX_SLICES)
 80218a6:	4a4e      	ldr	r2, [pc, #312]	; (80219e0 <RMP_Thd_Set+0x174>)
 80218a8:	4295      	cmp	r5, r2
 80218aa:	d800      	bhi.n	80218ae <RMP_Thd_Set+0x42>
        {
            RMP_COVERAGE_MARKER();
            Thread->Slices=Slices;
 80218ac:	61e5      	str	r5, [r4, #28]
Output      : None.
Return      : None.
******************************************************************************/
void RMP_Unlock_Sched(void)
{
    if(RMP_Sched_Lock_Cnt==1)
 80218ae:	681a      	ldr	r2, [r3, #0]
 80218b0:	4b49      	ldr	r3, [pc, #292]	; (80219d8 <RMP_Thd_Set+0x16c>)
 80218b2:	2a01      	cmp	r2, #1
 80218b4:	d03c      	beq.n	8021930 <RMP_Thd_Set+0xc4>
        else
            RMP_COVERAGE_MARKER();
        
        RMP_UNMASK_INT();
    }
    else if(RMP_Sched_Lock_Cnt>1)
 80218b6:	681a      	ldr	r2, [r3, #0]
 80218b8:	2a01      	cmp	r2, #1
 80218ba:	d938      	bls.n	802192e <RMP_Thd_Set+0xc2>
    {
        RMP_COVERAGE_MARKER();
        RMP_Sched_Lock_Cnt--;
 80218bc:	681a      	ldr	r2, [r3, #0]
        else
            RMP_COVERAGE_MARKER();
    }
    
    RMP_Unlock_Sched();
    return 0;
 80218be:	2000      	movs	r0, #0
        RMP_UNMASK_INT();
    }
    else if(RMP_Sched_Lock_Cnt>1)
    {
        RMP_COVERAGE_MARKER();
        RMP_Sched_Lock_Cnt--;
 80218c0:	3a01      	subs	r2, #1
 80218c2:	601a      	str	r2, [r3, #0]
 80218c4:	e8bd 81f0 	ldmia.w	sp!, {r4, r5, r6, r7, r8, pc}
    if(RMP_THD_STATE(Thread->State)==RMP_THD_RUNNING)
    {
        RMP_COVERAGE_MARKER();
        
        /* See if we are gonna change one of it or both */
        if(Prio<RMP_MAX_PREEMPT_PRIO)
 80218c8:	2e1f      	cmp	r6, #31
 80218ca:	d8ec      	bhi.n	80218a6 <RMP_Thd_Set+0x3a>
        {
            RMP_COVERAGE_MARKER();
            if(Thread->Prio!=Prio)
 80218cc:	6a61      	ldr	r1, [r4, #36]	; 0x24
 80218ce:	428e      	cmp	r6, r1
 80218d0:	d0e9      	beq.n	80218a6 <RMP_Thd_Set+0x3a>
Return      : None.
******************************************************************************/
void _RMP_Clr_Rdy(volatile struct RMP_Thd* Thread)
{
    /* Is it suspended? If yes, no need to delete again */
    if((Thread->State&RMP_THD_SUSPENDED)==0)
 80218d2:	69a1      	ldr	r1, [r4, #24]
 80218d4:	05c9      	lsls	r1, r1, #23
 80218d6:	d54a      	bpl.n	802196e <RMP_Thd_Set+0x102>
            {
                RMP_COVERAGE_MARKER();
                /* It doesn't matter whether this is suspended or not. 
                 * If suspended, the operations will not be conducted. */
                _RMP_Clr_Rdy(Thread);
                Thread->Prio=Prio;
 80218d8:	6266      	str	r6, [r4, #36]	; 0x24
Return      : None.
******************************************************************************/
void _RMP_Set_Rdy(volatile struct RMP_Thd* Thread)
{        
    /* Is it suspended? If yes, we can't directly set it running */
    if((Thread->State&RMP_THD_SUSPENDED)==0)
 80218da:	69a2      	ldr	r2, [r4, #24]
 80218dc:	05d2      	lsls	r2, r2, #23
 80218de:	d4e2      	bmi.n	80218a6 <RMP_Thd_Set+0x3a>
    {
        RMP_COVERAGE_MARKER();
        /* Insert this into the corresponding runqueue */
        RMP_List_Ins(&(Thread->Run_Head),RMP_Run[Thread->Prio].Prev,&(RMP_Run[Thread->Prio]));
 80218e0:	6a61      	ldr	r1, [r4, #36]	; 0x24
        /* Set this runlevel as active */
        RMP_Bitmap[Thread->Prio>>RMP_WORD_ORDER]|=((rmp_ptr_t)1)<<(Thread->Prio&RMP_WORD_MASK);
 80218e2:	2701      	movs	r7, #1
    /* Is it suspended? If yes, we can't directly set it running */
    if((Thread->State&RMP_THD_SUSPENDED)==0)
    {
        RMP_COVERAGE_MARKER();
        /* Insert this into the corresponding runqueue */
        RMP_List_Ins(&(Thread->Run_Head),RMP_Run[Thread->Prio].Prev,&(RMP_Run[Thread->Prio]));
 80218e4:	4a3f      	ldr	r2, [pc, #252]	; (80219e4 <RMP_Thd_Set+0x178>)
        /* Set this runlevel as active */
        RMP_Bitmap[Thread->Prio>>RMP_WORD_ORDER]|=((rmp_ptr_t)1)<<(Thread->Prio&RMP_WORD_MASK);
 80218e6:	f8df e108 	ldr.w	lr, [pc, #264]	; 80219f0 <RMP_Thd_Set+0x184>
    /* Is it suspended? If yes, we can't directly set it running */
    if((Thread->State&RMP_THD_SUSPENDED)==0)
    {
        RMP_COVERAGE_MARKER();
        /* Insert this into the corresponding runqueue */
        RMP_List_Ins(&(Thread->Run_Head),RMP_Run[Thread->Prio].Prev,&(RMP_Run[Thread->Prio]));
 80218ea:	f852 1031 	ldr.w	r1, [r2, r1, lsl #3]
 80218ee:	6a66      	ldr	r6, [r4, #36]	; 0x24
        /* Set this runlevel as active */
        RMP_Bitmap[Thread->Prio>>RMP_WORD_ORDER]|=((rmp_ptr_t)1)<<(Thread->Prio&RMP_WORD_MASK);
        
        /* Compare this with the current one to see if we need a context switch */
        if(Thread->Prio>RMP_Cur_Thd->Prio)
 80218f0:	f8df c0f8 	ldr.w	ip, [pc, #248]	; 80219ec <RMP_Thd_Set+0x180>
    /* Is it suspended? If yes, we can't directly set it running */
    if((Thread->State&RMP_THD_SUSPENDED)==0)
    {
        RMP_COVERAGE_MARKER();
        /* Insert this into the corresponding runqueue */
        RMP_List_Ins(&(Thread->Run_Head),RMP_Run[Thread->Prio].Prev,&(RMP_Run[Thread->Prio]));
 80218f4:	eb02 08c6 	add.w	r8, r2, r6, lsl #3
******************************************************************************/
void RMP_List_Ins(volatile struct RMP_List* New,
                  volatile struct RMP_List* Prev,
                  volatile struct RMP_List* Next)
{
    Next->Prev=(struct RMP_List*)New;
 80218f8:	f842 4036 	str.w	r4, [r2, r6, lsl #3]
    New->Next=(struct RMP_List*)Next;
 80218fc:	f8c4 8004 	str.w	r8, [r4, #4]
    New->Prev=(struct RMP_List*)Prev;
 8021900:	6021      	str	r1, [r4, #0]
    Prev->Next=(struct RMP_List*)New;
 8021902:	604c      	str	r4, [r1, #4]
    {
        RMP_COVERAGE_MARKER();
        /* Insert this into the corresponding runqueue */
        RMP_List_Ins(&(Thread->Run_Head),RMP_Run[Thread->Prio].Prev,&(RMP_Run[Thread->Prio]));
        /* Set this runlevel as active */
        RMP_Bitmap[Thread->Prio>>RMP_WORD_ORDER]|=((rmp_ptr_t)1)<<(Thread->Prio&RMP_WORD_MASK);
 8021904:	6a62      	ldr	r2, [r4, #36]	; 0x24
 8021906:	6a61      	ldr	r1, [r4, #36]	; 0x24
 8021908:	f002 021f 	and.w	r2, r2, #31
 802190c:	0949      	lsrs	r1, r1, #5
 802190e:	fa07 f202 	lsl.w	r2, r7, r2
 8021912:	f85e 6021 	ldr.w	r6, [lr, r1, lsl #2]
 8021916:	4332      	orrs	r2, r6
 8021918:	f84e 2021 	str.w	r2, [lr, r1, lsl #2]
        
        /* Compare this with the current one to see if we need a context switch */
        if(Thread->Prio>RMP_Cur_Thd->Prio)
 802191c:	6a61      	ldr	r1, [r4, #36]	; 0x24
 802191e:	f8dc 2000 	ldr.w	r2, [ip]
 8021922:	6a52      	ldr	r2, [r2, #36]	; 0x24
 8021924:	4291      	cmp	r1, r2
 8021926:	d9be      	bls.n	80218a6 <RMP_Thd_Set+0x3a>
        {
            RMP_COVERAGE_MARKER();
            RMP_Sched_Pend=1;
 8021928:	4a2f      	ldr	r2, [pc, #188]	; (80219e8 <RMP_Thd_Set+0x17c>)
 802192a:	6017      	str	r7, [r2, #0]
 802192c:	e7bb      	b.n	80218a6 <RMP_Thd_Set+0x3a>
 802192e:	e7fe      	b.n	802192e <RMP_Thd_Set+0xc2>
{
    if(RMP_Sched_Lock_Cnt==1)
    {
        RMP_COVERAGE_MARKER();
        /* Clear the count before enabling */
        RMP_Sched_Lock_Cnt=0;
 8021930:	2200      	movs	r2, #0
        RMP_Sched_Locked=0;
        /* Now see if the scheduler scheduling action is pended in the lock-unlock 
         * period. If yes, perform a schedule now */
        if(RMP_Sched_Pend!=0)
 8021932:	492d      	ldr	r1, [pc, #180]	; (80219e8 <RMP_Thd_Set+0x17c>)
{
    if(RMP_Sched_Lock_Cnt==1)
    {
        RMP_COVERAGE_MARKER();
        /* Clear the count before enabling */
        RMP_Sched_Lock_Cnt=0;
 8021934:	601a      	str	r2, [r3, #0]
        RMP_Sched_Locked=0;
 8021936:	6002      	str	r2, [r0, #0]
        /* Now see if the scheduler scheduling action is pended in the lock-unlock 
         * period. If yes, perform a schedule now */
        if(RMP_Sched_Pend!=0)
 8021938:	680b      	ldr	r3, [r1, #0]
 802193a:	2b00      	cmp	r3, #0
 802193c:	d135      	bne.n	80219aa <RMP_Thd_Set+0x13e>
            _RMP_Yield();
        }
        else
            RMP_COVERAGE_MARKER();
        
        RMP_UNMASK_INT();
 802193e:	f7ff fc79 	bl	8021234 <RVM_Unmask_Int>
        else
            RMP_COVERAGE_MARKER();
    }
    
    RMP_Unlock_Sched();
    return 0;
 8021942:	2000      	movs	r0, #0
 8021944:	e8bd 81f0 	ldmia.w	sp!, {r4, r5, r6, r7, r8, pc}
Output      : None.
Return      : None.
******************************************************************************/
void RMP_Unlock_Sched(void)
{
    if(RMP_Sched_Lock_Cnt==1)
 8021948:	6819      	ldr	r1, [r3, #0]
 802194a:	2901      	cmp	r1, #1
 802194c:	d036      	beq.n	80219bc <RMP_Thd_Set+0x150>
        else
            RMP_COVERAGE_MARKER();
        
        RMP_UNMASK_INT();
    }
    else if(RMP_Sched_Lock_Cnt>1)
 802194e:	681a      	ldr	r2, [r3, #0]
 8021950:	2a01      	cmp	r2, #1
 8021952:	d932      	bls.n	80219ba <RMP_Thd_Set+0x14e>
    {
        RMP_COVERAGE_MARKER();
        RMP_Sched_Lock_Cnt--;
 8021954:	681a      	ldr	r2, [r3, #0]
    
    if(RMP_THD_STATE(Thread->State)==RMP_THD_FREE)
    {
        RMP_COVERAGE_MARKER();
        RMP_Unlock_Sched();
        return RMP_ERR_THD;
 8021956:	f04f 30ff 	mov.w	r0, #4294967295
        RMP_UNMASK_INT();
    }
    else if(RMP_Sched_Lock_Cnt>1)
    {
        RMP_COVERAGE_MARKER();
        RMP_Sched_Lock_Cnt--;
 802195a:	4402      	add	r2, r0
 802195c:	601a      	str	r2, [r3, #0]
 802195e:	e8bd 81f0 	ldmia.w	sp!, {r4, r5, r6, r7, r8, pc}
    
    /* Check if this thread structure could possibly be in use */
    if(Thread==0)
    {
        RMP_COVERAGE_MARKER();
        return RMP_ERR_THD;
 8021962:	f04f 30ff 	mov.w	r0, #4294967295
 8021966:	4770      	bx	lr
{
    /* Check if the priority and timeslice range is correct */
    if(Slices==0)
    {
        RMP_COVERAGE_MARKER();
        return RMP_ERR_SLICE;
 8021968:	f06f 0002 	mvn.w	r0, #2
 802196c:	4770      	bx	lr
    /* Is it suspended? If yes, no need to delete again */
    if((Thread->State&RMP_THD_SUSPENDED)==0)
    {
        RMP_COVERAGE_MARKER();
        /* See if it is the last thread on the priority level */
        if(Thread->Run_Head.Prev==Thread->Run_Head.Next)
 802196e:	6827      	ldr	r7, [r4, #0]
 8021970:	6861      	ldr	r1, [r4, #4]
 8021972:	428f      	cmp	r7, r1
 8021974:	d10d      	bne.n	8021992 <RMP_Thd_Set+0x126>
        {
            RMP_COVERAGE_MARKER();
            RMP_Bitmap[Thread->Prio>>RMP_WORD_ORDER]&=~(((rmp_ptr_t)1)<<(Thread->Prio&RMP_WORD_MASK));
 8021976:	6a67      	ldr	r7, [r4, #36]	; 0x24
 8021978:	6a61      	ldr	r1, [r4, #36]	; 0x24
 802197a:	f007 071f 	and.w	r7, r7, #31
 802197e:	f8df e070 	ldr.w	lr, [pc, #112]	; 80219f0 <RMP_Thd_Set+0x184>
 8021982:	0949      	lsrs	r1, r1, #5
 8021984:	40ba      	lsls	r2, r7
 8021986:	f85e 7021 	ldr.w	r7, [lr, r1, lsl #2]
 802198a:	ea27 0202 	bic.w	r2, r7, r2
 802198e:	f84e 2021 	str.w	r2, [lr, r1, lsl #2]
        }
        else
            RMP_COVERAGE_MARKER();
        
        /* Delete this from the corresponding runqueue */
        RMP_List_Del(Thread->Run_Head.Prev,Thread->Run_Head.Next);
 8021992:	6822      	ldr	r2, [r4, #0]
 8021994:	6861      	ldr	r1, [r4, #4]
        
        /* If it is the current thread, request a context switch */
        if(Thread==RMP_Cur_Thd)
 8021996:	4f15      	ldr	r7, [pc, #84]	; (80219ec <RMP_Thd_Set+0x180>)
Output      : None.
Return      : None.
******************************************************************************/
void RMP_List_Del(volatile struct RMP_List* Prev,volatile struct RMP_List* Next)
{
    Next->Prev=(struct RMP_List*)Prev;
 8021998:	600a      	str	r2, [r1, #0]
    Prev->Next=(struct RMP_List*)Next;
 802199a:	6051      	str	r1, [r2, #4]
        
        /* Delete this from the corresponding runqueue */
        RMP_List_Del(Thread->Run_Head.Prev,Thread->Run_Head.Next);
        
        /* If it is the current thread, request a context switch */
        if(Thread==RMP_Cur_Thd)
 802199c:	683a      	ldr	r2, [r7, #0]
 802199e:	4294      	cmp	r4, r2
 80219a0:	d19a      	bne.n	80218d8 <RMP_Thd_Set+0x6c>
        {
            RMP_COVERAGE_MARKER();
            RMP_Sched_Pend=1;
 80219a2:	4a11      	ldr	r2, [pc, #68]	; (80219e8 <RMP_Thd_Set+0x17c>)
 80219a4:	2101      	movs	r1, #1
 80219a6:	6011      	str	r1, [r2, #0]
 80219a8:	e796      	b.n	80218d8 <RMP_Thd_Set+0x6c>
         * period. If yes, perform a schedule now */
        if(RMP_Sched_Pend!=0)
        {
            RMP_COVERAGE_MARKER();
            /* Reset the count and trigger the context switch */
            RMP_Sched_Pend=0;
 80219aa:	600a      	str	r2, [r1, #0]
            _RMP_Yield();
 80219ac:	f7ff fba0 	bl	80210f0 <_RMP_Yield>
        }
        else
            RMP_COVERAGE_MARKER();
        
        RMP_UNMASK_INT();
 80219b0:	f7ff fc40 	bl	8021234 <RVM_Unmask_Int>
        else
            RMP_COVERAGE_MARKER();
    }
    
    RMP_Unlock_Sched();
    return 0;
 80219b4:	2000      	movs	r0, #0
 80219b6:	e8bd 81f0 	ldmia.w	sp!, {r4, r5, r6, r7, r8, pc}
 80219ba:	e7fe      	b.n	80219ba <RMP_Thd_Set+0x14e>
        /* Clear the count before enabling */
        RMP_Sched_Lock_Cnt=0;
        RMP_Sched_Locked=0;
        /* Now see if the scheduler scheduling action is pended in the lock-unlock 
         * period. If yes, perform a schedule now */
        if(RMP_Sched_Pend!=0)
 80219bc:	490a      	ldr	r1, [pc, #40]	; (80219e8 <RMP_Thd_Set+0x17c>)
{
    if(RMP_Sched_Lock_Cnt==1)
    {
        RMP_COVERAGE_MARKER();
        /* Clear the count before enabling */
        RMP_Sched_Lock_Cnt=0;
 80219be:	601a      	str	r2, [r3, #0]
        RMP_Sched_Locked=0;
 80219c0:	6002      	str	r2, [r0, #0]
        /* Now see if the scheduler scheduling action is pended in the lock-unlock 
         * period. If yes, perform a schedule now */
        if(RMP_Sched_Pend!=0)
 80219c2:	680b      	ldr	r3, [r1, #0]
 80219c4:	b113      	cbz	r3, 80219cc <RMP_Thd_Set+0x160>
        {
            RMP_COVERAGE_MARKER();
            /* Reset the count and trigger the context switch */
            RMP_Sched_Pend=0;
 80219c6:	600a      	str	r2, [r1, #0]
            _RMP_Yield();
 80219c8:	f7ff fb92 	bl	80210f0 <_RMP_Yield>
        }
        else
            RMP_COVERAGE_MARKER();
        
        RMP_UNMASK_INT();
 80219cc:	f7ff fc32 	bl	8021234 <RVM_Unmask_Int>
    
    if(RMP_THD_STATE(Thread->State)==RMP_THD_FREE)
    {
        RMP_COVERAGE_MARKER();
        RMP_Unlock_Sched();
        return RMP_ERR_THD;
 80219d0:	f04f 30ff 	mov.w	r0, #4294967295
 80219d4:	e8bd 81f0 	ldmia.w	sp!, {r4, r5, r6, r7, r8, pc}
 80219d8:	20028774 	.word	0x20028774
 80219dc:	200287c0 	.word	0x200287c0
 80219e0:	0001869f 	.word	0x0001869f
 80219e4:	20028674 	.word	0x20028674
 80219e8:	20028670 	.word	0x20028670
 80219ec:	2002920c 	.word	0x2002920c
 80219f0:	2002866c 	.word	0x2002866c

080219f4 <RMP_Thd_Snd>:
Return      : rmp_ret_t - If successful,0; or an error code.
******************************************************************************/
rmp_ret_t RMP_Thd_Snd(volatile struct RMP_Thd* Thread, rmp_ptr_t Data, rmp_ptr_t Slices)
{
    /* Check if this thread structure could possibly be in use */
    if(Thread==0)
 80219f4:	2800      	cmp	r0, #0
 80219f6:	f000 8134 	beq.w	8021c62 <RMP_Thd_Snd+0x26e>
              rmp_ptr_t Slices - The timeslice to wait, if the mailbox is already full.
Output      : None.
Return      : rmp_ret_t - If successful,0; or an error code.
******************************************************************************/
rmp_ret_t RMP_Thd_Snd(volatile struct RMP_Thd* Thread, rmp_ptr_t Data, rmp_ptr_t Slices)
{
 80219fa:	e92d 43f8 	stmdb	sp!, {r3, r4, r5, r6, r7, r8, r9, lr}
 80219fe:	4604      	mov	r4, r0
 8021a00:	4616      	mov	r6, r2
 8021a02:	4689      	mov	r9, r1
Output      : None.
Return      : None.
******************************************************************************/
void RMP_Lock_Sched(void)
{
    RMP_MASK_INT();
 8021a04:	f7ff fc0c 	bl	8021220 <RVM_Mask_Int>
    RMP_Sched_Locked=1;
 8021a08:	f04f 0e01 	mov.w	lr, #1
    RMP_Sched_Lock_Cnt++;
 8021a0c:	4b9e      	ldr	r3, [pc, #632]	; (8021c88 <RMP_Thd_Snd+0x294>)
Return      : None.
******************************************************************************/
void RMP_Lock_Sched(void)
{
    RMP_MASK_INT();
    RMP_Sched_Locked=1;
 8021a0e:	499f      	ldr	r1, [pc, #636]	; (8021c8c <RMP_Thd_Snd+0x298>)
 8021a10:	f8c1 e000 	str.w	lr, [r1]
    RMP_Sched_Lock_Cnt++;
 8021a14:	681a      	ldr	r2, [r3, #0]
 8021a16:	4472      	add	r2, lr
 8021a18:	601a      	str	r2, [r3, #0]
    else
        RMP_COVERAGE_MARKER();
    
    RMP_Lock_Sched();
    
    if(RMP_THD_STATE(Thread->State)==RMP_THD_FREE)
 8021a1a:	69a2      	ldr	r2, [r4, #24]
 8021a1c:	f012 02ff 	ands.w	r2, r2, #255	; 0xff
 8021a20:	f000 8112 	beq.w	8021c48 <RMP_Thd_Snd+0x254>
    }
    else
        RMP_COVERAGE_MARKER();
    
    /* Are we sending to ourself? This is not allowed */
    if(RMP_Cur_Thd==Thread)
 8021a24:	4d9a      	ldr	r5, [pc, #616]	; (8021c90 <RMP_Thd_Snd+0x29c>)
 8021a26:	682a      	ldr	r2, [r5, #0]
 8021a28:	4294      	cmp	r4, r2
 8021a2a:	f000 80ec 	beq.w	8021c06 <RMP_Thd_Snd+0x212>
        return RMP_ERR_OPER;
    }
    else
        RMP_COVERAGE_MARKER();
    
    RMP_Cur_Thd->Retval=0;
 8021a2e:	682a      	ldr	r2, [r5, #0]
 8021a30:	2000      	movs	r0, #0
 8021a32:	6390      	str	r0, [r2, #56]	; 0x38

    /* See if there is already a value in the mailbox, if yes, we block */
    if((Thread->State&RMP_THD_MBOXFUL)!=0)
 8021a34:	69a2      	ldr	r2, [r4, #24]
 8021a36:	0597      	lsls	r7, r2, #22
 8021a38:	d53f      	bpl.n	8021aba <RMP_Thd_Snd+0xc6>
    {
        RMP_COVERAGE_MARKER();
        
        /* Mailbox full, we block, and put ourself into the queue */
        if(Slices==0)
 8021a3a:	2e00      	cmp	r6, #0
 8021a3c:	f000 80d6 	beq.w	8021bec <RMP_Thd_Snd+0x1f8>
        }
        else
            RMP_COVERAGE_MARKER();

        /* We must be running */
        _RMP_Clr_Rdy(RMP_Cur_Thd);
 8021a40:	682a      	ldr	r2, [r5, #0]
Return      : None.
******************************************************************************/
void _RMP_Clr_Rdy(volatile struct RMP_Thd* Thread)
{
    /* Is it suspended? If yes, no need to delete again */
    if((Thread->State&RMP_THD_SUSPENDED)==0)
 8021a42:	6990      	ldr	r0, [r2, #24]
 8021a44:	05c0      	lsls	r0, r0, #23
 8021a46:	f140 80a2 	bpl.w	8021b8e <RMP_Thd_Snd+0x19a>
        else
            RMP_COVERAGE_MARKER();

        /* We must be running */
        _RMP_Clr_Rdy(RMP_Cur_Thd);
        RMP_List_Ins(&(RMP_Cur_Thd->Run_Head),Thread->Snd_List.Prev,&(Thread->Snd_List));
 8021a4a:	4620      	mov	r0, r4

        if(Slices<RMP_MAX_SLICES)
 8021a4c:	f8df c24c 	ldr.w	ip, [pc, #588]	; 8021c9c <RMP_Thd_Snd+0x2a8>
        else
            RMP_COVERAGE_MARKER();

        /* We must be running */
        _RMP_Clr_Rdy(RMP_Cur_Thd);
        RMP_List_Ins(&(RMP_Cur_Thd->Run_Head),Thread->Snd_List.Prev,&(Thread->Snd_List));
 8021a50:	682a      	ldr	r2, [r5, #0]

        if(Slices<RMP_MAX_SLICES)
 8021a52:	4566      	cmp	r6, ip
        else
            RMP_COVERAGE_MARKER();

        /* We must be running */
        _RMP_Clr_Rdy(RMP_Cur_Thd);
        RMP_List_Ins(&(RMP_Cur_Thd->Run_Head),Thread->Snd_List.Prev,&(Thread->Snd_List));
 8021a54:	f850 ef10 	ldr.w	lr, [r0, #16]!
******************************************************************************/
void RMP_List_Ins(volatile struct RMP_List* New,
                  volatile struct RMP_List* Prev,
                  volatile struct RMP_List* Next)
{
    Next->Prev=(struct RMP_List*)New;
 8021a58:	6122      	str	r2, [r4, #16]
    New->Next=(struct RMP_List*)Next;
 8021a5a:	6050      	str	r0, [r2, #4]
    New->Prev=(struct RMP_List*)Prev;
 8021a5c:	f8c2 e000 	str.w	lr, [r2]
        else
            RMP_COVERAGE_MARKER();

        /* We must be running */
        _RMP_Clr_Rdy(RMP_Cur_Thd);
        RMP_List_Ins(&(RMP_Cur_Thd->Run_Head),Thread->Snd_List.Prev,&(Thread->Snd_List));
 8021a60:	488b      	ldr	r0, [pc, #556]	; (8021c90 <RMP_Thd_Snd+0x29c>)
                  volatile struct RMP_List* Next)
{
    Next->Prev=(struct RMP_List*)New;
    New->Next=(struct RMP_List*)Next;
    New->Prev=(struct RMP_List*)Prev;
    Prev->Next=(struct RMP_List*)New;
 8021a62:	f8ce 2004 	str.w	r2, [lr, #4]

        /* We must be running */
        _RMP_Clr_Rdy(RMP_Cur_Thd);
        RMP_List_Ins(&(RMP_Cur_Thd->Run_Head),Thread->Snd_List.Prev,&(Thread->Snd_List));

        if(Slices<RMP_MAX_SLICES)
 8021a66:	d877      	bhi.n	8021b58 <RMP_Thd_Snd+0x164>
{
    struct RMP_List* Trav_Ptr;
    struct RMP_Thd* Trav_Thd;
    
    /* Find a place to insert this timer */
    Trav_Ptr=(struct RMP_List*)RMP_Delay.Next;
 8021a68:	f8df c234 	ldr.w	ip, [pc, #564]	; 8021ca0 <RMP_Thd_Snd+0x2ac>
        RMP_List_Ins(&(RMP_Cur_Thd->Run_Head),Thread->Snd_List.Prev,&(Thread->Snd_List));

        if(Slices<RMP_MAX_SLICES)
        {
            RMP_COVERAGE_MARKER();
            _RMP_Dly_Ins(RMP_Cur_Thd, Slices);
 8021a6c:	6800      	ldr	r0, [r0, #0]
{
    struct RMP_List* Trav_Ptr;
    struct RMP_Thd* Trav_Thd;
    
    /* Find a place to insert this timer */
    Trav_Ptr=(struct RMP_List*)RMP_Delay.Next;
 8021a6e:	f8dc 2004 	ldr.w	r2, [ip, #4]
    while(Trav_Ptr!=&(RMP_Delay))
    {
        Trav_Thd=RMP_DLY2THD(Trav_Ptr);
        if((Trav_Thd->Timeout-RMP_Tick)>Slices)
 8021a72:	f8df e230 	ldr.w	lr, [pc, #560]	; 8021ca4 <RMP_Thd_Snd+0x2b0>
    struct RMP_List* Trav_Ptr;
    struct RMP_Thd* Trav_Thd;
    
    /* Find a place to insert this timer */
    Trav_Ptr=(struct RMP_List*)RMP_Delay.Next;
    while(Trav_Ptr!=&(RMP_Delay))
 8021a76:	4562      	cmp	r2, ip
 8021a78:	d103      	bne.n	8021a82 <RMP_Thd_Snd+0x8e>
 8021a7a:	e008      	b.n	8021a8e <RMP_Thd_Snd+0x9a>
            break;
        }
        else
            RMP_COVERAGE_MARKER();
        
        Trav_Ptr=(struct RMP_List*)(Trav_Ptr->Next);
 8021a7c:	6852      	ldr	r2, [r2, #4]
    struct RMP_List* Trav_Ptr;
    struct RMP_Thd* Trav_Thd;
    
    /* Find a place to insert this timer */
    Trav_Ptr=(struct RMP_List*)RMP_Delay.Next;
    while(Trav_Ptr!=&(RMP_Delay))
 8021a7e:	4562      	cmp	r2, ip
 8021a80:	d005      	beq.n	8021a8e <RMP_Thd_Snd+0x9a>
    {
        Trav_Thd=RMP_DLY2THD(Trav_Ptr);
        if((Trav_Thd->Timeout-RMP_Tick)>Slices)
 8021a82:	f8de 4000 	ldr.w	r4, [lr]
 8021a86:	6a17      	ldr	r7, [r2, #32]
 8021a88:	1b3c      	subs	r4, r7, r4
 8021a8a:	42a6      	cmp	r6, r4
 8021a8c:	d2f6      	bcs.n	8021a7c <RMP_Thd_Snd+0x88>
        
        Trav_Ptr=(struct RMP_List*)(Trav_Ptr->Next);
    }

    /* Insert this into the list */
    Thread->Timeout=RMP_Tick+Slices;
 8021a8e:	f8de 4000 	ldr.w	r4, [lr]
    RMP_List_Ins(&Thread->Dly_Head,Trav_Ptr->Prev,Trav_Ptr);
 8021a92:	f100 0e08 	add.w	lr, r0, #8
        
        Trav_Ptr=(struct RMP_List*)(Trav_Ptr->Next);
    }

    /* Insert this into the list */
    Thread->Timeout=RMP_Tick+Slices;
 8021a96:	4426      	add	r6, r4
 8021a98:	6286      	str	r6, [r0, #40]	; 0x28
    RMP_List_Ins(&Thread->Dly_Head,Trav_Ptr->Prev,Trav_Ptr);
 8021a9a:	6814      	ldr	r4, [r2, #0]
******************************************************************************/
void RMP_List_Ins(volatile struct RMP_List* New,
                  volatile struct RMP_List* Prev,
                  volatile struct RMP_List* Next)
{
    Next->Prev=(struct RMP_List*)New;
 8021a9c:	f8c2 e000 	str.w	lr, [r2]
    New->Next=(struct RMP_List*)Next;
 8021aa0:	60c2      	str	r2, [r0, #12]
    New->Prev=(struct RMP_List*)Prev;
 8021aa2:	6084      	str	r4, [r0, #8]
    Prev->Next=(struct RMP_List*)New;
 8021aa4:	f8c4 e004 	str.w	lr, [r4, #4]

        if(Slices<RMP_MAX_SLICES)
        {
            RMP_COVERAGE_MARKER();
            _RMP_Dly_Ins(RMP_Cur_Thd, Slices);
            RMP_THD_STATE_SET(RMP_Cur_Thd->State,RMP_THD_SNDDLY);
 8021aa8:	6828      	ldr	r0, [r5, #0]
 8021aaa:	682a      	ldr	r2, [r5, #0]
 8021aac:	6992      	ldr	r2, [r2, #24]
 8021aae:	f022 02ff 	bic.w	r2, r2, #255	; 0xff
 8021ab2:	f042 0203 	orr.w	r2, r2, #3
 8021ab6:	6182      	str	r2, [r0, #24]
 8021ab8:	e056      	b.n	8021b68 <RMP_Thd_Snd+0x174>
    else
    {
        RMP_COVERAGE_MARKER();
        
        /* Mailbox not full. We need to check if the receiver is waiting for us */
        if((RMP_THD_STATE(Thread->State)==RMP_THD_RCVBLK)||
 8021aba:	69a2      	ldr	r2, [r4, #24]
 8021abc:	b2d2      	uxtb	r2, r2
 8021abe:	2a04      	cmp	r2, #4
 8021ac0:	d017      	beq.n	8021af2 <RMP_Thd_Snd+0xfe>
           (RMP_THD_STATE(Thread->State)==RMP_THD_RCVDLY))
 8021ac2:	69a2      	ldr	r2, [r4, #24]
    else
    {
        RMP_COVERAGE_MARKER();
        
        /* Mailbox not full. We need to check if the receiver is waiting for us */
        if((RMP_THD_STATE(Thread->State)==RMP_THD_RCVBLK)||
 8021ac4:	b2d2      	uxtb	r2, r2
 8021ac6:	2a05      	cmp	r2, #5
 8021ac8:	d013      	beq.n	8021af2 <RMP_Thd_Snd+0xfe>
        }
        else
            RMP_COVERAGE_MARKER();
        
        /* Set the mailbox */
        Thread->Mailbox=Data;
 8021aca:	f8c4 902c 	str.w	r9, [r4, #44]	; 0x2c
        Thread->State|=RMP_THD_MBOXFUL;
 8021ace:	69a2      	ldr	r2, [r4, #24]
 8021ad0:	f442 7200 	orr.w	r2, r2, #512	; 0x200
 8021ad4:	61a2      	str	r2, [r4, #24]
Output      : None.
Return      : None.
******************************************************************************/
void RMP_Unlock_Sched(void)
{
    if(RMP_Sched_Lock_Cnt==1)
 8021ad6:	681a      	ldr	r2, [r3, #0]
 8021ad8:	4b6b      	ldr	r3, [pc, #428]	; (8021c88 <RMP_Thd_Snd+0x294>)
 8021ada:	2a01      	cmp	r2, #1
 8021adc:	d04b      	beq.n	8021b76 <RMP_Thd_Snd+0x182>
        else
            RMP_COVERAGE_MARKER();
        
        RMP_UNMASK_INT();
    }
    else if(RMP_Sched_Lock_Cnt>1)
 8021ade:	681a      	ldr	r2, [r3, #0]
 8021ae0:	2a01      	cmp	r2, #1
 8021ae2:	d968      	bls.n	8021bb6 <RMP_Thd_Snd+0x1c2>
    {
        RMP_COVERAGE_MARKER();
        RMP_Sched_Lock_Cnt--;
 8021ae4:	681a      	ldr	r2, [r3, #0]
 8021ae6:	3a01      	subs	r2, #1
 8021ae8:	601a      	str	r2, [r3, #0]
        Thread->State|=RMP_THD_MBOXFUL;
    }
    
    RMP_Unlock_Sched();

    return RMP_Cur_Thd->Retval;
 8021aea:	682b      	ldr	r3, [r5, #0]
 8021aec:	6b98      	ldr	r0, [r3, #56]	; 0x38
 8021aee:	e8bd 83f8 	ldmia.w	sp!, {r3, r4, r5, r6, r7, r8, r9, pc}
           (RMP_THD_STATE(Thread->State)==RMP_THD_RCVDLY))
        {
            RMP_COVERAGE_MARKER();
            
            /* The receiver is blocked, wake it up and return the value */
            if(RMP_THD_STATE(Thread->State)==RMP_THD_RCVDLY)
 8021af2:	69a2      	ldr	r2, [r4, #24]
 8021af4:	b2d2      	uxtb	r2, r2
 8021af6:	2a05      	cmp	r2, #5
 8021af8:	d05e      	beq.n	8021bb8 <RMP_Thd_Snd+0x1c4>
                RMP_List_Del(Thread->Dly_Head.Prev,Thread->Dly_Head.Next);
            }
            else
                RMP_COVERAGE_MARKER();
            
            RMP_THD_STATE_SET(Thread->State,RMP_THD_RUNNING);
 8021afa:	69a2      	ldr	r2, [r4, #24]
 8021afc:	f022 02ff 	bic.w	r2, r2, #255	; 0xff
 8021b00:	f042 0201 	orr.w	r2, r2, #1
 8021b04:	61a2      	str	r2, [r4, #24]
Return      : None.
******************************************************************************/
void _RMP_Set_Rdy(volatile struct RMP_Thd* Thread)
{        
    /* Is it suspended? If yes, we can't directly set it running */
    if((Thread->State&RMP_THD_SUSPENDED)==0)
 8021b06:	69a2      	ldr	r2, [r4, #24]
 8021b08:	05d2      	lsls	r2, r2, #23
 8021b0a:	d4de      	bmi.n	8021aca <RMP_Thd_Snd+0xd6>
    {
        RMP_COVERAGE_MARKER();
        /* Insert this into the corresponding runqueue */
        RMP_List_Ins(&(Thread->Run_Head),RMP_Run[Thread->Prio].Prev,&(RMP_Run[Thread->Prio]));
 8021b0c:	6a60      	ldr	r0, [r4, #36]	; 0x24
        /* Set this runlevel as active */
        RMP_Bitmap[Thread->Prio>>RMP_WORD_ORDER]|=((rmp_ptr_t)1)<<(Thread->Prio&RMP_WORD_MASK);
 8021b0e:	f04f 0e01 	mov.w	lr, #1
    /* Is it suspended? If yes, we can't directly set it running */
    if((Thread->State&RMP_THD_SUSPENDED)==0)
    {
        RMP_COVERAGE_MARKER();
        /* Insert this into the corresponding runqueue */
        RMP_List_Ins(&(Thread->Run_Head),RMP_Run[Thread->Prio].Prev,&(RMP_Run[Thread->Prio]));
 8021b12:	4a60      	ldr	r2, [pc, #384]	; (8021c94 <RMP_Thd_Snd+0x2a0>)
        /* Set this runlevel as active */
        RMP_Bitmap[Thread->Prio>>RMP_WORD_ORDER]|=((rmp_ptr_t)1)<<(Thread->Prio&RMP_WORD_MASK);
 8021b14:	f8df c190 	ldr.w	ip, [pc, #400]	; 8021ca8 <RMP_Thd_Snd+0x2b4>
    /* Is it suspended? If yes, we can't directly set it running */
    if((Thread->State&RMP_THD_SUSPENDED)==0)
    {
        RMP_COVERAGE_MARKER();
        /* Insert this into the corresponding runqueue */
        RMP_List_Ins(&(Thread->Run_Head),RMP_Run[Thread->Prio].Prev,&(RMP_Run[Thread->Prio]));
 8021b18:	f852 0030 	ldr.w	r0, [r2, r0, lsl #3]
 8021b1c:	6a66      	ldr	r6, [r4, #36]	; 0x24
 8021b1e:	eb02 08c6 	add.w	r8, r2, r6, lsl #3
******************************************************************************/
void RMP_List_Ins(volatile struct RMP_List* New,
                  volatile struct RMP_List* Prev,
                  volatile struct RMP_List* Next)
{
    Next->Prev=(struct RMP_List*)New;
 8021b22:	f842 4036 	str.w	r4, [r2, r6, lsl #3]
    New->Next=(struct RMP_List*)Next;
 8021b26:	f8c4 8004 	str.w	r8, [r4, #4]
    New->Prev=(struct RMP_List*)Prev;
 8021b2a:	6020      	str	r0, [r4, #0]
    Prev->Next=(struct RMP_List*)New;
 8021b2c:	6044      	str	r4, [r0, #4]
    {
        RMP_COVERAGE_MARKER();
        /* Insert this into the corresponding runqueue */
        RMP_List_Ins(&(Thread->Run_Head),RMP_Run[Thread->Prio].Prev,&(RMP_Run[Thread->Prio]));
        /* Set this runlevel as active */
        RMP_Bitmap[Thread->Prio>>RMP_WORD_ORDER]|=((rmp_ptr_t)1)<<(Thread->Prio&RMP_WORD_MASK);
 8021b2e:	6a62      	ldr	r2, [r4, #36]	; 0x24
 8021b30:	6a60      	ldr	r0, [r4, #36]	; 0x24
 8021b32:	f002 021f 	and.w	r2, r2, #31
 8021b36:	0940      	lsrs	r0, r0, #5
 8021b38:	fa0e f202 	lsl.w	r2, lr, r2
 8021b3c:	f85c 6020 	ldr.w	r6, [ip, r0, lsl #2]
 8021b40:	4332      	orrs	r2, r6
 8021b42:	f84c 2020 	str.w	r2, [ip, r0, lsl #2]
        
        /* Compare this with the current one to see if we need a context switch */
        if(Thread->Prio>RMP_Cur_Thd->Prio)
 8021b46:	6a60      	ldr	r0, [r4, #36]	; 0x24
 8021b48:	682a      	ldr	r2, [r5, #0]
 8021b4a:	6a52      	ldr	r2, [r2, #36]	; 0x24
 8021b4c:	4290      	cmp	r0, r2
 8021b4e:	d9bc      	bls.n	8021aca <RMP_Thd_Snd+0xd6>
        {
            RMP_COVERAGE_MARKER();
            RMP_Sched_Pend=1;
 8021b50:	4a51      	ldr	r2, [pc, #324]	; (8021c98 <RMP_Thd_Snd+0x2a4>)
 8021b52:	f8c2 e000 	str.w	lr, [r2]
 8021b56:	e7b8      	b.n	8021aca <RMP_Thd_Snd+0xd6>
            RMP_THD_STATE_SET(RMP_Cur_Thd->State,RMP_THD_SNDDLY);
        }
        else
        {
            RMP_COVERAGE_MARKER();
            RMP_THD_STATE_SET(RMP_Cur_Thd->State,RMP_THD_SNDBLK);
 8021b58:	6804      	ldr	r4, [r0, #0]
 8021b5a:	6802      	ldr	r2, [r0, #0]
 8021b5c:	6992      	ldr	r2, [r2, #24]
 8021b5e:	f022 02ff 	bic.w	r2, r2, #255	; 0xff
 8021b62:	f042 0202 	orr.w	r2, r2, #2
 8021b66:	61a2      	str	r2, [r4, #24]
        }

        RMP_Cur_Thd->Data=Data;
 8021b68:	682a      	ldr	r2, [r5, #0]
 8021b6a:	f8c2 9030 	str.w	r9, [r2, #48]	; 0x30
Output      : None.
Return      : None.
******************************************************************************/
void RMP_Unlock_Sched(void)
{
    if(RMP_Sched_Lock_Cnt==1)
 8021b6e:	681a      	ldr	r2, [r3, #0]
 8021b70:	4b45      	ldr	r3, [pc, #276]	; (8021c88 <RMP_Thd_Snd+0x294>)
 8021b72:	2a01      	cmp	r2, #1
 8021b74:	d1b3      	bne.n	8021ade <RMP_Thd_Snd+0xea>
    {
        RMP_COVERAGE_MARKER();
        /* Clear the count before enabling */
        RMP_Sched_Lock_Cnt=0;
 8021b76:	2200      	movs	r2, #0
        RMP_Sched_Locked=0;
        /* Now see if the scheduler scheduling action is pended in the lock-unlock 
         * period. If yes, perform a schedule now */
        if(RMP_Sched_Pend!=0)
 8021b78:	4847      	ldr	r0, [pc, #284]	; (8021c98 <RMP_Thd_Snd+0x2a4>)
{
    if(RMP_Sched_Lock_Cnt==1)
    {
        RMP_COVERAGE_MARKER();
        /* Clear the count before enabling */
        RMP_Sched_Lock_Cnt=0;
 8021b7a:	601a      	str	r2, [r3, #0]
        RMP_Sched_Locked=0;
 8021b7c:	600a      	str	r2, [r1, #0]
        /* Now see if the scheduler scheduling action is pended in the lock-unlock 
         * period. If yes, perform a schedule now */
        if(RMP_Sched_Pend!=0)
 8021b7e:	6803      	ldr	r3, [r0, #0]
 8021b80:	bb83      	cbnz	r3, 8021be4 <RMP_Thd_Snd+0x1f0>
            _RMP_Yield();
        }
        else
            RMP_COVERAGE_MARKER();
        
        RMP_UNMASK_INT();
 8021b82:	f7ff fb57 	bl	8021234 <RVM_Unmask_Int>
        Thread->State|=RMP_THD_MBOXFUL;
    }
    
    RMP_Unlock_Sched();

    return RMP_Cur_Thd->Retval;
 8021b86:	682b      	ldr	r3, [r5, #0]
 8021b88:	6b98      	ldr	r0, [r3, #56]	; 0x38
 8021b8a:	e8bd 83f8 	ldmia.w	sp!, {r3, r4, r5, r6, r7, r8, r9, pc}
    /* Is it suspended? If yes, no need to delete again */
    if((Thread->State&RMP_THD_SUSPENDED)==0)
    {
        RMP_COVERAGE_MARKER();
        /* See if it is the last thread on the priority level */
        if(Thread->Run_Head.Prev==Thread->Run_Head.Next)
 8021b8e:	f8d2 c000 	ldr.w	ip, [r2]
 8021b92:	6850      	ldr	r0, [r2, #4]
 8021b94:	4584      	cmp	ip, r0
 8021b96:	d014      	beq.n	8021bc2 <RMP_Thd_Snd+0x1ce>
        }
        else
            RMP_COVERAGE_MARKER();
        
        /* Delete this from the corresponding runqueue */
        RMP_List_Del(Thread->Run_Head.Prev,Thread->Run_Head.Next);
 8021b98:	6810      	ldr	r0, [r2, #0]
 8021b9a:	f8d2 e004 	ldr.w	lr, [r2, #4]
Output      : None.
Return      : None.
******************************************************************************/
void RMP_List_Del(volatile struct RMP_List* Prev,volatile struct RMP_List* Next)
{
    Next->Prev=(struct RMP_List*)Prev;
 8021b9e:	f8ce 0000 	str.w	r0, [lr]
    Prev->Next=(struct RMP_List*)Next;
 8021ba2:	f8c0 e004 	str.w	lr, [r0, #4]
        
        /* Delete this from the corresponding runqueue */
        RMP_List_Del(Thread->Run_Head.Prev,Thread->Run_Head.Next);
        
        /* If it is the current thread, request a context switch */
        if(Thread==RMP_Cur_Thd)
 8021ba6:	6828      	ldr	r0, [r5, #0]
 8021ba8:	4282      	cmp	r2, r0
 8021baa:	f47f af4e 	bne.w	8021a4a <RMP_Thd_Snd+0x56>
        {
            RMP_COVERAGE_MARKER();
            RMP_Sched_Pend=1;
 8021bae:	4a3a      	ldr	r2, [pc, #232]	; (8021c98 <RMP_Thd_Snd+0x2a4>)
 8021bb0:	2001      	movs	r0, #1
 8021bb2:	6010      	str	r0, [r2, #0]
 8021bb4:	e749      	b.n	8021a4a <RMP_Thd_Snd+0x56>
 8021bb6:	e7fe      	b.n	8021bb6 <RMP_Thd_Snd+0x1c2>
            
            /* The receiver is blocked, wake it up and return the value */
            if(RMP_THD_STATE(Thread->State)==RMP_THD_RCVDLY)
            {
                RMP_COVERAGE_MARKER();
                RMP_List_Del(Thread->Dly_Head.Prev,Thread->Dly_Head.Next);
 8021bb8:	68a2      	ldr	r2, [r4, #8]
 8021bba:	68e0      	ldr	r0, [r4, #12]
Output      : None.
Return      : None.
******************************************************************************/
void RMP_List_Del(volatile struct RMP_List* Prev,volatile struct RMP_List* Next)
{
    Next->Prev=(struct RMP_List*)Prev;
 8021bbc:	6002      	str	r2, [r0, #0]
    Prev->Next=(struct RMP_List*)Next;
 8021bbe:	6050      	str	r0, [r2, #4]
 8021bc0:	e79b      	b.n	8021afa <RMP_Thd_Snd+0x106>
        RMP_COVERAGE_MARKER();
        /* See if it is the last thread on the priority level */
        if(Thread->Run_Head.Prev==Thread->Run_Head.Next)
        {
            RMP_COVERAGE_MARKER();
            RMP_Bitmap[Thread->Prio>>RMP_WORD_ORDER]&=~(((rmp_ptr_t)1)<<(Thread->Prio&RMP_WORD_MASK));
 8021bc2:	f8d2 c024 	ldr.w	ip, [r2, #36]	; 0x24
 8021bc6:	6a50      	ldr	r0, [r2, #36]	; 0x24
 8021bc8:	f00c 0c1f 	and.w	ip, ip, #31
 8021bcc:	f8df 80d8 	ldr.w	r8, [pc, #216]	; 8021ca8 <RMP_Thd_Snd+0x2b4>
 8021bd0:	0940      	lsrs	r0, r0, #5
 8021bd2:	fa0e fe0c 	lsl.w	lr, lr, ip
 8021bd6:	f858 c020 	ldr.w	ip, [r8, r0, lsl #2]
 8021bda:	ea2c 0e0e 	bic.w	lr, ip, lr
 8021bde:	f848 e020 	str.w	lr, [r8, r0, lsl #2]
 8021be2:	e7d9      	b.n	8021b98 <RMP_Thd_Snd+0x1a4>
         * period. If yes, perform a schedule now */
        if(RMP_Sched_Pend!=0)
        {
            RMP_COVERAGE_MARKER();
            /* Reset the count and trigger the context switch */
            RMP_Sched_Pend=0;
 8021be4:	6002      	str	r2, [r0, #0]
            _RMP_Yield();
 8021be6:	f7ff fa83 	bl	80210f0 <_RMP_Yield>
 8021bea:	e7ca      	b.n	8021b82 <RMP_Thd_Snd+0x18e>
Output      : None.
Return      : None.
******************************************************************************/
void RMP_Unlock_Sched(void)
{
    if(RMP_Sched_Lock_Cnt==1)
 8021bec:	681a      	ldr	r2, [r3, #0]
 8021bee:	2a01      	cmp	r2, #1
 8021bf0:	d020      	beq.n	8021c34 <RMP_Thd_Snd+0x240>
        else
            RMP_COVERAGE_MARKER();
        
        RMP_UNMASK_INT();
    }
    else if(RMP_Sched_Lock_Cnt>1)
 8021bf2:	681a      	ldr	r2, [r3, #0]
 8021bf4:	2a01      	cmp	r2, #1
 8021bf6:	d91c      	bls.n	8021c32 <RMP_Thd_Snd+0x23e>
    {
        RMP_COVERAGE_MARKER();
        RMP_Sched_Lock_Cnt--;
 8021bf8:	681a      	ldr	r2, [r3, #0]
        /* Mailbox full, we block, and put ourself into the queue */
        if(Slices==0)
        {
            RMP_COVERAGE_MARKER();
            RMP_Unlock_Sched();
            return RMP_ERR_OPER;
 8021bfa:	f06f 0004 	mvn.w	r0, #4
        RMP_UNMASK_INT();
    }
    else if(RMP_Sched_Lock_Cnt>1)
    {
        RMP_COVERAGE_MARKER();
        RMP_Sched_Lock_Cnt--;
 8021bfe:	3a01      	subs	r2, #1
 8021c00:	601a      	str	r2, [r3, #0]
 8021c02:	e8bd 83f8 	ldmia.w	sp!, {r3, r4, r5, r6, r7, r8, r9, pc}
Output      : None.
Return      : None.
******************************************************************************/
void RMP_Unlock_Sched(void)
{
    if(RMP_Sched_Lock_Cnt==1)
 8021c06:	681a      	ldr	r2, [r3, #0]
 8021c08:	2a01      	cmp	r2, #1
 8021c0a:	d003      	beq.n	8021c14 <RMP_Thd_Snd+0x220>
        else
            RMP_COVERAGE_MARKER();
        
        RMP_UNMASK_INT();
    }
    else if(RMP_Sched_Lock_Cnt>1)
 8021c0c:	681a      	ldr	r2, [r3, #0]
 8021c0e:	2a01      	cmp	r2, #1
 8021c10:	d8f2      	bhi.n	8021bf8 <RMP_Thd_Snd+0x204>
 8021c12:	e7fe      	b.n	8021c12 <RMP_Thd_Snd+0x21e>
{
    if(RMP_Sched_Lock_Cnt==1)
    {
        RMP_COVERAGE_MARKER();
        /* Clear the count before enabling */
        RMP_Sched_Lock_Cnt=0;
 8021c14:	2200      	movs	r2, #0
        RMP_Sched_Locked=0;
        /* Now see if the scheduler scheduling action is pended in the lock-unlock 
         * period. If yes, perform a schedule now */
        if(RMP_Sched_Pend!=0)
 8021c16:	4820      	ldr	r0, [pc, #128]	; (8021c98 <RMP_Thd_Snd+0x2a4>)
{
    if(RMP_Sched_Lock_Cnt==1)
    {
        RMP_COVERAGE_MARKER();
        /* Clear the count before enabling */
        RMP_Sched_Lock_Cnt=0;
 8021c18:	601a      	str	r2, [r3, #0]
        RMP_Sched_Locked=0;
 8021c1a:	600a      	str	r2, [r1, #0]
        /* Now see if the scheduler scheduling action is pended in the lock-unlock 
         * period. If yes, perform a schedule now */
        if(RMP_Sched_Pend!=0)
 8021c1c:	6803      	ldr	r3, [r0, #0]
 8021c1e:	b113      	cbz	r3, 8021c26 <RMP_Thd_Snd+0x232>
        {
            RMP_COVERAGE_MARKER();
            /* Reset the count and trigger the context switch */
            RMP_Sched_Pend=0;
 8021c20:	6002      	str	r2, [r0, #0]
            _RMP_Yield();
 8021c22:	f7ff fa65 	bl	80210f0 <_RMP_Yield>
        }
        else
            RMP_COVERAGE_MARKER();
        
        RMP_UNMASK_INT();
 8021c26:	f7ff fb05 	bl	8021234 <RVM_Unmask_Int>
